Component: ARM Compiler 5.06 update 2 (build 183) Tool: armlink [4d35b7]

==============================================================================

Section Cross References

    .\build\aes.o(i.mbedtls_aes_crypt_cbc) refers to D:\Keil_v5\ARM\ARMCC\Bin\..\lib\armlib\c_w.l(rt_memcpy_v6.o)(.text) for __aeabi_memcpy
    .\build\aes.o(i.mbedtls_aes_crypt_cbc) refers to .\build\aes.o(i.mbedtls_aes_crypt_ecb) for mbedtls_aes_crypt_ecb
    .\build\aes.o(i.mbedtls_aes_crypt_ecb) refers to .\build\aes.o(i.mbedtls_internal_aes_decrypt) for mbedtls_internal_aes_decrypt
    .\build\aes.o(i.mbedtls_aes_crypt_ecb) refers to .\build\aes.o(i.mbedtls_internal_aes_encrypt) for mbedtls_internal_aes_encrypt
    .\build\aes.o(i.mbedtls_aes_decrypt) refers to .\build\aes.o(i.mbedtls_internal_aes_decrypt) for mbedtls_internal_aes_decrypt
    .\build\aes.o(i.mbedtls_aes_encrypt) refers to .\build\aes.o(i.mbedtls_internal_aes_encrypt) for mbedtls_internal_aes_encrypt
    .\build\aes.o(i.mbedtls_aes_free) refers to .\build\aes.o(i.mbedtls_zeroize) for mbedtls_zeroize
    .\build\aes.o(i.mbedtls_aes_init) refers to D:\Keil_v5\ARM\ARMCC\Bin\..\lib\armlib\c_w.l(rt_memclr_w.o)(.text) for __aeabi_memclr4
    .\build\aes.o(i.mbedtls_aes_self_test) refers to D:\Keil_v5\ARM\ARMCC\Bin\..\lib\armlib\c_w.l(_printf_pad.o)(.text) for _printf_pre_padding
    .\build\aes.o(i.mbedtls_aes_self_test) refers to D:\Keil_v5\ARM\ARMCC\Bin\..\lib\armlib\c_w.l(_printf_percent.o)(.ARM.Collect$$_printf_percent$$00000000) for _printf_percent
    .\build\aes.o(i.mbedtls_aes_self_test) refers to D:\Keil_v5\ARM\ARMCC\Bin\..\lib\armlib\c_w.l(_printf_d.o)(.ARM.Collect$$_printf_percent$$00000009) for _printf_d
    .\build\aes.o(i.mbedtls_aes_self_test) refers to D:\Keil_v5\ARM\ARMCC\Bin\..\lib\armlib\c_w.l(_printf_s.o)(.ARM.Collect$$_printf_percent$$00000014) for _printf_s
    .\build\aes.o(i.mbedtls_aes_self_test) refers to D:\Keil_v5\ARM\ARMCC\Bin\..\lib\armlib\c_w.l(_printf_dec.o)(.text) for _printf_int_dec
    .\build\aes.o(i.mbedtls_aes_self_test) refers to D:\Keil_v5\ARM\ARMCC\Bin\..\lib\armlib\c_w.l(_printf_str.o)(.text) for _printf_str
    .\build\aes.o(i.mbedtls_aes_self_test) refers to D:\Keil_v5\ARM\ARMCC\Bin\..\lib\armlib\c_w.l(rt_memclr_w.o)(.text) for __aeabi_memclr4
    .\build\aes.o(i.mbedtls_aes_self_test) refers to .\build\aes.o(i.mbedtls_aes_init) for mbedtls_aes_init
    .\build\aes.o(i.mbedtls_aes_self_test) refers to D:\Keil_v5\ARM\ARMCC\Bin\..\lib\armlib\c_w.l(__2printf.o)(.text) for __2printf
    .\build\aes.o(i.mbedtls_aes_self_test) refers to .\build\aes.o(i.mbedtls_aes_setkey_enc) for mbedtls_aes_setkey_enc
    .\build\aes.o(i.mbedtls_aes_self_test) refers to .\build\aes.o(i.mbedtls_aes_setkey_dec) for mbedtls_aes_setkey_dec
    .\build\aes.o(i.mbedtls_aes_self_test) refers to .\build\aes.o(i.mbedtls_aes_crypt_ecb) for mbedtls_aes_crypt_ecb
    .\build\aes.o(i.mbedtls_aes_self_test) refers to D:\Keil_v5\ARM\ARMCC\Bin\..\lib\armlib\c_w.l(memcmp.o)(.text) for memcmp
    .\build\aes.o(i.mbedtls_aes_self_test) refers to .\build\aes.o(i.mbedtls_aes_crypt_cbc) for mbedtls_aes_crypt_cbc
    .\build\aes.o(i.mbedtls_aes_self_test) refers to .\build\aes.o(i.mbedtls_aes_free) for mbedtls_aes_free
    .\build\aes.o(i.mbedtls_aes_self_test) refers to .\build\aes.o(.constdata) for .constdata
    .\build\aes.o(i.mbedtls_aes_setkey_dec) refers to .\build\aes.o(i.mbedtls_aes_init) for mbedtls_aes_init
    .\build\aes.o(i.mbedtls_aes_setkey_dec) refers to .\build\aes.o(i.mbedtls_aes_setkey_enc) for mbedtls_aes_setkey_enc
    .\build\aes.o(i.mbedtls_aes_setkey_dec) refers to .\build\aes.o(i.mbedtls_aes_free) for mbedtls_aes_free
    .\build\aes.o(i.mbedtls_aes_setkey_dec) refers to .\build\aes.o(.constdata) for .constdata
    .\build\aes.o(i.mbedtls_aes_setkey_enc) refers to .\build\aes.o(.constdata) for .constdata
    .\build\aes.o(i.mbedtls_internal_aes_decrypt) refers to .\build\aes.o(.constdata) for .constdata
    .\build\aes.o(i.mbedtls_internal_aes_encrypt) refers to .\build\aes.o(.constdata) for .constdata
    .\build\analogin_api.o(i.analogin_read) refers to .\build\analogin_device.o(i.adc_read) for adc_read
    .\build\analogin_api.o(i.analogin_read) refers to D:\Keil_v5\ARM\ARMCC\Bin\..\lib\armlib\fz_ws.l(fflt_clz.o)(x$fpl$ffltu) for __aeabi_ui2f
    .\build\analogin_api.o(i.analogin_read) refers to D:\Keil_v5\ARM\ARMCC\Bin\..\lib\armlib\fz_ws.l(fmul.o)(x$fpl$fmul) for __aeabi_fmul
    .\build\analogin_api.o(i.analogin_read_u16) refers to .\build\analogin_device.o(i.adc_read) for adc_read
    .\build\analogin_device.o(i.adc_read) refers to .\build\stm32f1xx_hal_adc.o(i.HAL_ADC_ConfigChannel) for HAL_ADC_ConfigChannel
    .\build\analogin_device.o(i.adc_read) refers to .\build\stm32f1xx_hal_adc.o(i.HAL_ADC_Start) for HAL_ADC_Start
    .\build\analogin_device.o(i.adc_read) refers to .\build\stm32f1xx_hal_adc.o(i.HAL_ADC_PollForConversion) for HAL_ADC_PollForConversion
    .\build\analogin_device.o(i.adc_read) refers to .\build\stm32f1xx_hal_adc.o(i.HAL_ADC_GetValue) for HAL_ADC_GetValue
    .\build\analogin_device.o(i.analogin_init) refers to .\build\mbed_pinmap_common.o(i.pinmap_peripheral) for pinmap_peripheral
    .\build\analogin_device.o(i.analogin_init) refers to .\build\mbed_pinmap_common.o(i.pinmap_function) for pinmap_function
    .\build\analogin_device.o(i.analogin_init) refers to .\build\mbed_pinmap_common.o(i.pinmap_pinout) for pinmap_pinout
    .\build\analogin_device.o(i.analogin_init) refers to .\build\mbed_assert.o(i.mbed_assert_internal) for mbed_assert_internal
    .\build\analogin_device.o(i.analogin_init) refers to .\build\stm32f1xx_hal_adc.o(i.HAL_ADC_Init) for HAL_ADC_Init
    .\build\analogin_device.o(i.analogin_init) refers to .\build\mbed_error.o(i.error) for error
    .\build\analogin_device.o(i.analogin_init) refers to .\build\stm32f1xx_hal_rcc_ex.o(i.HAL_RCCEx_PeriphCLKConfig) for HAL_RCCEx_PeriphCLKConfig
    .\build\analogin_device.o(i.analogin_init) refers to .\build\stm32f1xx_hal_adc_ex.o(i.HAL_ADCEx_Calibration_Start) for HAL_ADCEx_Calibration_Start
    .\build\analogin_device.o(i.analogin_init) refers to .\build\peripheralpins.o(.constdata) for PinMap_ADC
    .\build\analogin_device.o(i.analogin_init) refers to .\build\peripheralpins.o(.constdata) for PinMap_ADC_Internal
    .\build\analogin_device.o(i.analogin_init) refers to .\build\analogin_device.o(.data) for .data
    .\build\asn1parse.o(i.mbedtls_asn1_find_named_data) refers to D:\Keil_v5\ARM\ARMCC\Bin\..\lib\armlib\c_w.l(memcmp.o)(.text) for memcmp
    .\build\asn1parse.o(i.mbedtls_asn1_free_named_data) refers to D:\Keil_v5\ARM\ARMCC\Bin\..\lib\armlib\c_w.l(h1_free_mt.o)(.text) for free
    .\build\asn1parse.o(i.mbedtls_asn1_free_named_data) refers to .\build\asn1parse.o(i.mbedtls_zeroize) for mbedtls_zeroize
    .\build\asn1parse.o(i.mbedtls_asn1_free_named_data_list) refers to .\build\asn1parse.o(i.mbedtls_asn1_free_named_data) for mbedtls_asn1_free_named_data
    .\build\asn1parse.o(i.mbedtls_asn1_free_named_data_list) refers to D:\Keil_v5\ARM\ARMCC\Bin\..\lib\armlib\c_w.l(h1_free_mt.o)(.text) for free
    .\build\asn1parse.o(i.mbedtls_asn1_get_alg) refers to .\build\asn1parse.o(i.mbedtls_asn1_get_tag) for mbedtls_asn1_get_tag
    .\build\asn1parse.o(i.mbedtls_asn1_get_alg) refers to .\build\asn1parse.o(i.mbedtls_zeroize) for mbedtls_zeroize
    .\build\asn1parse.o(i.mbedtls_asn1_get_alg) refers to .\build\asn1parse.o(i.mbedtls_asn1_get_len) for mbedtls_asn1_get_len
    .\build\asn1parse.o(i.mbedtls_asn1_get_alg_null) refers to .\build\asn1parse.o(i.mbedtls_asn1_get_alg) for mbedtls_asn1_get_alg
    .\build\asn1parse.o(i.mbedtls_asn1_get_bitstring) refers to .\build\asn1parse.o(i.mbedtls_asn1_get_tag) for mbedtls_asn1_get_tag
    .\build\asn1parse.o(i.mbedtls_asn1_get_bitstring_null) refers to .\build\asn1parse.o(i.mbedtls_asn1_get_tag) for mbedtls_asn1_get_tag
    .\build\asn1parse.o(i.mbedtls_asn1_get_bool) refers to .\build\asn1parse.o(i.mbedtls_asn1_get_tag) for mbedtls_asn1_get_tag
    .\build\asn1parse.o(i.mbedtls_asn1_get_int) refers to .\build\asn1parse.o(i.mbedtls_asn1_get_tag) for mbedtls_asn1_get_tag
    .\build\asn1parse.o(i.mbedtls_asn1_get_mpi) refers to .\build\asn1parse.o(i.mbedtls_asn1_get_tag) for mbedtls_asn1_get_tag
    .\build\asn1parse.o(i.mbedtls_asn1_get_mpi) refers to .\build\bignum.o(i.mbedtls_mpi_read_binary) for mbedtls_mpi_read_binary
    .\build\asn1parse.o(i.mbedtls_asn1_get_sequence_of) refers to .\build\asn1parse.o(i.mbedtls_asn1_get_tag) for mbedtls_asn1_get_tag
    .\build\asn1parse.o(i.mbedtls_asn1_get_sequence_of) refers to D:\Keil_v5\ARM\ARMCC\Bin\..\lib\armlib\c_w.l(calloc.o)(.text) for calloc
    .\build\asn1parse.o(i.mbedtls_asn1_get_tag) refers to .\build\asn1parse.o(i.mbedtls_asn1_get_len) for mbedtls_asn1_get_len
    .\build\asn1write.o(i.mbedtls_asn1_store_named_data) refers to .\build\asn1parse.o(i.mbedtls_asn1_find_named_data) for mbedtls_asn1_find_named_data
    .\build\asn1write.o(i.mbedtls_asn1_store_named_data) refers to D:\Keil_v5\ARM\ARMCC\Bin\..\lib\armlib\c_w.l(calloc.o)(.text) for calloc
    .\build\asn1write.o(i.mbedtls_asn1_store_named_data) refers to D:\Keil_v5\ARM\ARMCC\Bin\..\lib\armlib\c_w.l(h1_free_mt.o)(.text) for free
    .\build\asn1write.o(i.mbedtls_asn1_store_named_data) refers to D:\Keil_v5\ARM\ARMCC\Bin\..\lib\armlib\c_w.l(rt_memcpy_v6.o)(.text) for __aeabi_memcpy
    .\build\asn1write.o(i.mbedtls_asn1_write_algorithm_identifier) refers to .\build\asn1write.o(i.mbedtls_asn1_write_null) for mbedtls_asn1_write_null
    .\build\asn1write.o(i.mbedtls_asn1_write_algorithm_identifier) refers to .\build\asn1write.o(i.mbedtls_asn1_write_oid) for mbedtls_asn1_write_oid
    .\build\asn1write.o(i.mbedtls_asn1_write_algorithm_identifier) refers to .\build\asn1write.o(i.mbedtls_asn1_write_len) for mbedtls_asn1_write_len
    .\build\asn1write.o(i.mbedtls_asn1_write_algorithm_identifier) refers to .\build\asn1write.o(i.mbedtls_asn1_write_tag) for mbedtls_asn1_write_tag
    .\build\asn1write.o(i.mbedtls_asn1_write_bitstring) refers to D:\Keil_v5\ARM\ARMCC\Bin\..\lib\armlib\c_w.l(rt_memcpy_v6.o)(.text) for __aeabi_memcpy
    .\build\asn1write.o(i.mbedtls_asn1_write_bitstring) refers to .\build\asn1write.o(i.mbedtls_asn1_write_len) for mbedtls_asn1_write_len
    .\build\asn1write.o(i.mbedtls_asn1_write_bitstring) refers to .\build\asn1write.o(i.mbedtls_asn1_write_tag) for mbedtls_asn1_write_tag
    .\build\asn1write.o(i.mbedtls_asn1_write_bool) refers to .\build\asn1write.o(i.mbedtls_asn1_write_len) for mbedtls_asn1_write_len
    .\build\asn1write.o(i.mbedtls_asn1_write_bool) refers to .\build\asn1write.o(i.mbedtls_asn1_write_tag) for mbedtls_asn1_write_tag
    .\build\asn1write.o(i.mbedtls_asn1_write_ia5_string) refers to .\build\asn1write.o(i.mbedtls_asn1_write_raw_buffer) for mbedtls_asn1_write_raw_buffer
    .\build\asn1write.o(i.mbedtls_asn1_write_ia5_string) refers to .\build\asn1write.o(i.mbedtls_asn1_write_len) for mbedtls_asn1_write_len
    .\build\asn1write.o(i.mbedtls_asn1_write_ia5_string) refers to .\build\asn1write.o(i.mbedtls_asn1_write_tag) for mbedtls_asn1_write_tag
    .\build\asn1write.o(i.mbedtls_asn1_write_int) refers to .\build\asn1write.o(i.mbedtls_asn1_write_len) for mbedtls_asn1_write_len
    .\build\asn1write.o(i.mbedtls_asn1_write_int) refers to .\build\asn1write.o(i.mbedtls_asn1_write_tag) for mbedtls_asn1_write_tag
    .\build\asn1write.o(i.mbedtls_asn1_write_mpi) refers to .\build\bignum.o(i.mbedtls_mpi_size) for mbedtls_mpi_size
    .\build\asn1write.o(i.mbedtls_asn1_write_mpi) refers to .\build\bignum.o(i.mbedtls_mpi_write_binary) for mbedtls_mpi_write_binary
    .\build\asn1write.o(i.mbedtls_asn1_write_mpi) refers to .\build\asn1write.o(i.mbedtls_asn1_write_len) for mbedtls_asn1_write_len
    .\build\asn1write.o(i.mbedtls_asn1_write_mpi) refers to .\build\asn1write.o(i.mbedtls_asn1_write_tag) for mbedtls_asn1_write_tag
    .\build\asn1write.o(i.mbedtls_asn1_write_null) refers to .\build\asn1write.o(i.mbedtls_asn1_write_len) for mbedtls_asn1_write_len
    .\build\asn1write.o(i.mbedtls_asn1_write_null) refers to .\build\asn1write.o(i.mbedtls_asn1_write_tag) for mbedtls_asn1_write_tag
    .\build\asn1write.o(i.mbedtls_asn1_write_octet_string) refers to .\build\asn1write.o(i.mbedtls_asn1_write_raw_buffer) for mbedtls_asn1_write_raw_buffer
    .\build\asn1write.o(i.mbedtls_asn1_write_octet_string) refers to .\build\asn1write.o(i.mbedtls_asn1_write_len) for mbedtls_asn1_write_len
    .\build\asn1write.o(i.mbedtls_asn1_write_octet_string) refers to .\build\asn1write.o(i.mbedtls_asn1_write_tag) for mbedtls_asn1_write_tag
    .\build\asn1write.o(i.mbedtls_asn1_write_oid) refers to .\build\asn1write.o(i.mbedtls_asn1_write_raw_buffer) for mbedtls_asn1_write_raw_buffer
    .\build\asn1write.o(i.mbedtls_asn1_write_oid) refers to .\build\asn1write.o(i.mbedtls_asn1_write_len) for mbedtls_asn1_write_len
    .\build\asn1write.o(i.mbedtls_asn1_write_oid) refers to .\build\asn1write.o(i.mbedtls_asn1_write_tag) for mbedtls_asn1_write_tag
    .\build\asn1write.o(i.mbedtls_asn1_write_printable_string) refers to .\build\asn1write.o(i.mbedtls_asn1_write_raw_buffer) for mbedtls_asn1_write_raw_buffer
    .\build\asn1write.o(i.mbedtls_asn1_write_printable_string) refers to .\build\asn1write.o(i.mbedtls_asn1_write_len) for mbedtls_asn1_write_len
    .\build\asn1write.o(i.mbedtls_asn1_write_printable_string) refers to .\build\asn1write.o(i.mbedtls_asn1_write_tag) for mbedtls_asn1_write_tag
    .\build\asn1write.o(i.mbedtls_asn1_write_raw_buffer) refers to D:\Keil_v5\ARM\ARMCC\Bin\..\lib\armlib\c_w.l(rt_memcpy_v6.o)(.text) for __aeabi_memcpy
    .\build\at_cellularbase.o(i._ZNK4mbed15AT_CellularBase16get_device_errorEv) refers to .\build\athandler.o(i._ZNK4mbed9ATHandler21get_last_device_errorEv) for mbed::ATHandler::get_last_device_error() const
    .\build\at_cellularbase.o(.ARM.exidx) refers to .\build\at_cellularbase.o(i._ZN4mbed15AT_CellularBaseC1ERNS_9ATHandlerE) for i._ZN4mbed15AT_CellularBaseC1ERNS_9ATHandlerE
    .\build\at_cellularbase.o(.ARM.exidx) refers to .\build\at_cellularbase.o(i._ZN4mbed15AT_CellularBase14get_at_handlerEv) for i._ZN4mbed15AT_CellularBase14get_at_handlerEv
    .\build\at_cellularbase.o(.ARM.exidx) refers to .\build\at_cellularbase.o(i._ZNK4mbed15AT_CellularBase16get_device_errorEv) for i._ZNK4mbed15AT_CellularBase16get_device_errorEv
    .\build\at_cellulardevice.o(i._ZN4mbed17AT_CellularDevice10open_powerEPNS_10FileHandleE) refers to .\build\at_cellulardevice.o(i._ZN4mbed17AT_CellularDevice14get_at_handlerEPNS_10FileHandleE) for mbed::AT_CellularDevice::get_at_handler(mbed::FileHandle*)
    .\build\at_cellulardevice.o(i._ZN4mbed17AT_CellularDevice10open_powerEPNS_10FileHandleE) refers to .\build\mbed_retarget.o(i._Znwj) for operator new(unsigned)
    .\build\at_cellulardevice.o(i._ZN4mbed17AT_CellularDevice10open_powerEPNS_10FileHandleE) refers to .\build\at_cellularpower.o(i._ZN4mbed16AT_CellularPowerC1ERNS_9ATHandlerE) for mbed::AT_CellularPower::AT_CellularPower(mbed::ATHandler&)
    .\build\at_cellulardevice.o(i._ZN4mbed17AT_CellularDevice10open_powerEPNS_10FileHandleE) refers to .\build\at_cellulardevice.o(i._ZN4mbed17AT_CellularDevice18release_at_handlerEPNS_9ATHandlerE) for mbed::AT_CellularDevice::release_at_handler(mbed::ATHandler*)
    .\build\at_cellulardevice.o(i._ZN4mbed17AT_CellularDevice11close_powerEv) refers to .\build\at_cellularbase.o(i._ZN4mbed15AT_CellularBase14get_at_handlerEv) for mbed::AT_CellularBase::get_at_handler()
    .\build\at_cellulardevice.o(i._ZN4mbed17AT_CellularDevice11close_powerEv) refers to .\build\at_cellulardevice.o(i._ZN4mbed17AT_CellularDevice18release_at_handlerEPNS_9ATHandlerE) for mbed::AT_CellularDevice::release_at_handler(mbed::ATHandler*)
    .\build\at_cellulardevice.o(i._ZN4mbed17AT_CellularDevice11set_timeoutEi) refers to .\build\athandler.o(i._ZN4mbed9ATHandler14set_at_timeoutEjb) for mbed::ATHandler::set_at_timeout(unsigned, bool)
    .\build\at_cellulardevice.o(i._ZN4mbed17AT_CellularDevice12open_networkEPNS_10FileHandleE) refers to .\build\at_cellulardevice.o(i._ZN4mbed17AT_CellularDevice14get_at_handlerEPNS_10FileHandleE) for mbed::AT_CellularDevice::get_at_handler(mbed::FileHandle*)
    .\build\at_cellulardevice.o(i._ZN4mbed17AT_CellularDevice12open_networkEPNS_10FileHandleE) refers to .\build\mbed_retarget.o(i._Znwj) for operator new(unsigned)
    .\build\at_cellulardevice.o(i._ZN4mbed17AT_CellularDevice12open_networkEPNS_10FileHandleE) refers to .\build\at_cellularnetwork.o(i._ZN4mbed18AT_CellularNetworkC1ERNS_9ATHandlerE) for mbed::AT_CellularNetwork::AT_CellularNetwork(mbed::ATHandler&)
    .\build\at_cellulardevice.o(i._ZN4mbed17AT_CellularDevice12open_networkEPNS_10FileHandleE) refers to .\build\at_cellulardevice.o(i._ZN4mbed17AT_CellularDevice18release_at_handlerEPNS_9ATHandlerE) for mbed::AT_CellularDevice::release_at_handler(mbed::ATHandler*)
    .\build\at_cellulardevice.o(i._ZN4mbed17AT_CellularDevice13close_networkEv) refers to .\build\at_cellularbase.o(i._ZN4mbed15AT_CellularBase14get_at_handlerEv) for mbed::AT_CellularBase::get_at_handler()
    .\build\at_cellulardevice.o(i._ZN4mbed17AT_CellularDevice13close_networkEv) refers to .\build\at_cellulardevice.o(i._ZN4mbed17AT_CellularDevice18release_at_handlerEPNS_9ATHandlerE) for mbed::AT_CellularDevice::release_at_handler(mbed::ATHandler*)
    .\build\at_cellulardevice.o(i._ZN4mbed17AT_CellularDevice14get_at_handlerEPNS_10FileHandleE) refers to .\build\athandler.o(i._ZN4mbed9ATHandler15get_file_handleEv) for mbed::ATHandler::get_file_handle()
    .\build\at_cellulardevice.o(i._ZN4mbed17AT_CellularDevice14get_at_handlerEPNS_10FileHandleE) refers to .\build\athandler.o(i._ZN4mbed9ATHandler13inc_ref_countEv) for mbed::ATHandler::inc_ref_count()
    .\build\at_cellulardevice.o(i._ZN4mbed17AT_CellularDevice14get_at_handlerEPNS_10FileHandleE) refers to .\build\mbed_retarget.o(i._Znwj) for operator new(unsigned)
    .\build\at_cellulardevice.o(i._ZN4mbed17AT_CellularDevice14get_at_handlerEPNS_10FileHandleE) refers to .\build\athandler.o(i._ZN4mbed9ATHandlerC1EPNS_10FileHandleERN6events10EventQueueEiPKct) for mbed::ATHandler::ATHandler(mbed::FileHandle*, events::EventQueue&, int, const char*, unsigned short)
    .\build\at_cellulardevice.o(i._ZN4mbed17AT_CellularDevice14get_at_handlerEPNS_10FileHandleE) refers to .\build\athandler.o(i._ZN4mbed9ATHandler12enable_debugEb) for mbed::ATHandler::enable_debug(bool)
    .\build\at_cellulardevice.o(i._ZN4mbed17AT_CellularDevice14modem_debug_onEb) refers to .\build\athandler.o(i._ZN4mbed9ATHandler12enable_debugEb) for mbed::ATHandler::enable_debug(bool)
    .\build\at_cellulardevice.o(i._ZN4mbed17AT_CellularDevice16open_informationEPNS_10FileHandleE) refers to .\build\at_cellulardevice.o(i._ZN4mbed17AT_CellularDevice14get_at_handlerEPNS_10FileHandleE) for mbed::AT_CellularDevice::get_at_handler(mbed::FileHandle*)
    .\build\at_cellulardevice.o(i._ZN4mbed17AT_CellularDevice16open_informationEPNS_10FileHandleE) refers to .\build\mbed_retarget.o(i._Znwj) for operator new(unsigned)
    .\build\at_cellulardevice.o(i._ZN4mbed17AT_CellularDevice16open_informationEPNS_10FileHandleE) refers to .\build\at_cellularinformation.o(i._ZN4mbed22AT_CellularInformationC1ERNS_9ATHandlerE) for mbed::AT_CellularInformation::AT_CellularInformation(mbed::ATHandler&)
    .\build\at_cellulardevice.o(i._ZN4mbed17AT_CellularDevice16open_informationEPNS_10FileHandleE) refers to .\build\at_cellulardevice.o(i._ZN4mbed17AT_CellularDevice18release_at_handlerEPNS_9ATHandlerE) for mbed::AT_CellularDevice::release_at_handler(mbed::ATHandler*)
    .\build\at_cellulardevice.o(i._ZN4mbed17AT_CellularDevice17close_informationEv) refers to .\build\at_cellularbase.o(i._ZN4mbed15AT_CellularBase14get_at_handlerEv) for mbed::AT_CellularBase::get_at_handler()
    .\build\at_cellulardevice.o(i._ZN4mbed17AT_CellularDevice17close_informationEv) refers to .\build\at_cellulardevice.o(i._ZN4mbed17AT_CellularDevice18release_at_handlerEPNS_9ATHandlerE) for mbed::AT_CellularDevice::release_at_handler(mbed::ATHandler*)
    .\build\at_cellulardevice.o(i._ZN4mbed17AT_CellularDevice18release_at_handlerEPNS_9ATHandlerE) refers to .\build\athandler.o(i._ZN4mbed9ATHandler13dec_ref_countEv) for mbed::ATHandler::dec_ref_count()
    .\build\at_cellulardevice.o(i._ZN4mbed17AT_CellularDevice18release_at_handlerEPNS_9ATHandlerE) refers to .\build\athandler.o(i._ZN4mbed9ATHandler13get_ref_countEv) for mbed::ATHandler::get_ref_count()
    .\build\at_cellulardevice.o(i._ZN4mbed17AT_CellularDevice18release_at_handlerEPNS_9ATHandlerE) refers to .\build\athandler.o(i._ZN4mbed9ATHandlerD1Ev) for mbed::ATHandler::~ATHandler()
    .\build\at_cellulardevice.o(i._ZN4mbed17AT_CellularDevice18release_at_handlerEPNS_9ATHandlerE) refers to .\build\mbed_retarget.o(i._ZdlPv) for operator delete (void*)
    .\build\at_cellulardevice.o(i._ZN4mbed17AT_CellularDevice8open_simEPNS_10FileHandleE) refers to .\build\at_cellulardevice.o(i._ZN4mbed17AT_CellularDevice14get_at_handlerEPNS_10FileHandleE) for mbed::AT_CellularDevice::get_at_handler(mbed::FileHandle*)
    .\build\at_cellulardevice.o(i._ZN4mbed17AT_CellularDevice8open_simEPNS_10FileHandleE) refers to .\build\mbed_retarget.o(i._Znwj) for operator new(unsigned)
    .\build\at_cellulardevice.o(i._ZN4mbed17AT_CellularDevice8open_simEPNS_10FileHandleE) refers to .\build\at_cellularsim.o(i._ZN4mbed14AT_CellularSIMC1ERNS_9ATHandlerE) for mbed::AT_CellularSIM::AT_CellularSIM(mbed::ATHandler&)
    .\build\at_cellulardevice.o(i._ZN4mbed17AT_CellularDevice8open_simEPNS_10FileHandleE) refers to .\build\at_cellulardevice.o(i._ZN4mbed17AT_CellularDevice18release_at_handlerEPNS_9ATHandlerE) for mbed::AT_CellularDevice::release_at_handler(mbed::ATHandler*)
    .\build\at_cellulardevice.o(i._ZN4mbed17AT_CellularDevice8open_smsEPNS_10FileHandleE) refers to .\build\at_cellulardevice.o(i._ZN4mbed17AT_CellularDevice14get_at_handlerEPNS_10FileHandleE) for mbed::AT_CellularDevice::get_at_handler(mbed::FileHandle*)
    .\build\at_cellulardevice.o(i._ZN4mbed17AT_CellularDevice8open_smsEPNS_10FileHandleE) refers to .\build\mbed_retarget.o(i._Znwj) for operator new(unsigned)
    .\build\at_cellulardevice.o(i._ZN4mbed17AT_CellularDevice8open_smsEPNS_10FileHandleE) refers to .\build\at_cellularsms.o(i._ZN4mbed14AT_CellularSMSC1ERNS_9ATHandlerE) for mbed::AT_CellularSMS::AT_CellularSMS(mbed::ATHandler&)
    .\build\at_cellulardevice.o(i._ZN4mbed17AT_CellularDevice8open_smsEPNS_10FileHandleE) refers to .\build\at_cellulardevice.o(i._ZN4mbed17AT_CellularDevice18release_at_handlerEPNS_9ATHandlerE) for mbed::AT_CellularDevice::release_at_handler(mbed::ATHandler*)
    .\build\at_cellulardevice.o(i._ZN4mbed17AT_CellularDevice9close_simEv) refers to .\build\at_cellularbase.o(i._ZN4mbed15AT_CellularBase14get_at_handlerEv) for mbed::AT_CellularBase::get_at_handler()
    .\build\at_cellulardevice.o(i._ZN4mbed17AT_CellularDevice9close_simEv) refers to .\build\at_cellulardevice.o(i._ZN4mbed17AT_CellularDevice18release_at_handlerEPNS_9ATHandlerE) for mbed::AT_CellularDevice::release_at_handler(mbed::ATHandler*)
    .\build\at_cellulardevice.o(i._ZN4mbed17AT_CellularDevice9close_smsEv) refers to .\build\at_cellularbase.o(i._ZN4mbed15AT_CellularBase14get_at_handlerEv) for mbed::AT_CellularBase::get_at_handler()
    .\build\at_cellulardevice.o(i._ZN4mbed17AT_CellularDevice9close_smsEv) refers to .\build\at_cellulardevice.o(i._ZN4mbed17AT_CellularDevice18release_at_handlerEPNS_9ATHandlerE) for mbed::AT_CellularDevice::release_at_handler(mbed::ATHandler*)
    .\build\at_cellulardevice.o(i._ZN4mbed17AT_CellularDeviceC1ERN6events10EventQueueE) refers to .\build\at_cellulardevice.o(.constdata__ZTVN4mbed17AT_CellularDeviceE) for vtable for mbed::AT_CellularDevice
    .\build\at_cellulardevice.o(i._ZN4mbed17AT_CellularDeviceD0Ev) refers to .\build\at_cellulardevice.o(i._ZN4mbed17AT_CellularDeviceD1Ev) for mbed::AT_CellularDevice::~AT_CellularDevice()
    .\build\at_cellulardevice.o(i._ZN4mbed17AT_CellularDeviceD0Ev) refers to .\build\mbed_retarget.o(i._ZdlPv) for operator delete (void*)
    .\build\at_cellulardevice.o(i._ZN4mbed17AT_CellularDeviceD1Ev) refers to .\build\at_cellulardevice.o(i._ZN4mbed17AT_CellularDevice13close_networkEv) for mbed::AT_CellularDevice::close_network()
    .\build\at_cellulardevice.o(i._ZN4mbed17AT_CellularDeviceD1Ev) refers to .\build\at_cellulardevice.o(i._ZN4mbed17AT_CellularDevice9close_smsEv) for mbed::AT_CellularDevice::close_sms()
    .\build\at_cellulardevice.o(i._ZN4mbed17AT_CellularDeviceD1Ev) refers to .\build\at_cellulardevice.o(i._ZN4mbed17AT_CellularDevice11close_powerEv) for mbed::AT_CellularDevice::close_power()
    .\build\at_cellulardevice.o(i._ZN4mbed17AT_CellularDeviceD1Ev) refers to .\build\at_cellulardevice.o(i._ZN4mbed17AT_CellularDevice9close_simEv) for mbed::AT_CellularDevice::close_sim()
    .\build\at_cellulardevice.o(i._ZN4mbed17AT_CellularDeviceD1Ev) refers to .\build\at_cellulardevice.o(i._ZN4mbed17AT_CellularDevice17close_informationEv) for mbed::AT_CellularDevice::close_information()
    .\build\at_cellulardevice.o(i._ZN4mbed17AT_CellularDeviceD1Ev) refers to .\build\athandler.o(i._ZN4mbed9ATHandlerD1Ev) for mbed::ATHandler::~ATHandler()
    .\build\at_cellulardevice.o(i._ZN4mbed17AT_CellularDeviceD1Ev) refers to .\build\mbed_retarget.o(i._ZdlPv) for operator delete (void*)
    .\build\at_cellulardevice.o(i._ZN4mbed17AT_CellularDeviceD1Ev) refers to .\build\at_cellulardevice.o(.constdata__ZTVN4mbed17AT_CellularDeviceE) for vtable for mbed::AT_CellularDevice
    .\build\at_cellulardevice.o(.ARM.exidx) refers to .\build\at_cellulardevice.o(i._ZN4mbed17AT_CellularDeviceC1ERN6events10EventQueueE) for i._ZN4mbed17AT_CellularDeviceC1ERN6events10EventQueueE
    .\build\at_cellulardevice.o(.ARM.exidx) refers to .\build\at_cellulardevice.o(i._ZN4mbed17AT_CellularDevice18release_at_handlerEPNS_9ATHandlerE) for i._ZN4mbed17AT_CellularDevice18release_at_handlerEPNS_9ATHandlerE
    .\build\at_cellulardevice.o(.ARM.exidx) refers to .\build\at_cellulardevice.o(i._ZN4mbed17AT_CellularDevice17close_informationEv) for i._ZN4mbed17AT_CellularDevice17close_informationEv
    .\build\at_cellulardevice.o(.ARM.exidx) refers to .\build\at_cellulardevice.o(i._ZN4mbed17AT_CellularDevice9close_simEv) for i._ZN4mbed17AT_CellularDevice9close_simEv
    .\build\at_cellulardevice.o(.ARM.exidx) refers to .\build\at_cellulardevice.o(i._ZN4mbed17AT_CellularDevice11close_powerEv) for i._ZN4mbed17AT_CellularDevice11close_powerEv
    .\build\at_cellulardevice.o(.ARM.exidx) refers to .\build\at_cellulardevice.o(i._ZN4mbed17AT_CellularDevice9close_smsEv) for i._ZN4mbed17AT_CellularDevice9close_smsEv
    .\build\at_cellulardevice.o(.ARM.exidx) refers to .\build\at_cellulardevice.o(i._ZN4mbed17AT_CellularDevice13close_networkEv) for i._ZN4mbed17AT_CellularDevice13close_networkEv
    .\build\at_cellulardevice.o(.ARM.exidx) refers to .\build\at_cellulardevice.o(i._ZN4mbed17AT_CellularDeviceD1Ev) for i._ZN4mbed17AT_CellularDeviceD1Ev
    .\build\at_cellulardevice.o(.ARM.exidx) refers to .\build\at_cellulardevice.o(i._ZN4mbed17AT_CellularDeviceD0Ev) for i._ZN4mbed17AT_CellularDeviceD0Ev
    .\build\at_cellulardevice.o(.ARM.exidx) refers to .\build\at_cellulardevice.o(i._ZN4mbed17AT_CellularDevice14get_at_handlerEPNS_10FileHandleE) for i._ZN4mbed17AT_CellularDevice14get_at_handlerEPNS_10FileHandleE
    .\build\at_cellulardevice.o(.ARM.exidx) refers to .\build\at_cellulardevice.o(i._ZN4mbed17AT_CellularDevice12open_networkEPNS_10FileHandleE) for i._ZN4mbed17AT_CellularDevice12open_networkEPNS_10FileHandleE
    .\build\at_cellulardevice.o(.ARM.exidx) refers to .\build\at_cellulardevice.o(i._ZN4mbed17AT_CellularDevice8open_smsEPNS_10FileHandleE) for i._ZN4mbed17AT_CellularDevice8open_smsEPNS_10FileHandleE
    .\build\at_cellulardevice.o(.ARM.exidx) refers to .\build\at_cellulardevice.o(i._ZN4mbed17AT_CellularDevice10open_powerEPNS_10FileHandleE) for i._ZN4mbed17AT_CellularDevice10open_powerEPNS_10FileHandleE
    .\build\at_cellulardevice.o(.ARM.exidx) refers to .\build\at_cellulardevice.o(i._ZN4mbed17AT_CellularDevice8open_simEPNS_10FileHandleE) for i._ZN4mbed17AT_CellularDevice8open_simEPNS_10FileHandleE
    .\build\at_cellulardevice.o(.ARM.exidx) refers to .\build\at_cellulardevice.o(i._ZN4mbed17AT_CellularDevice16open_informationEPNS_10FileHandleE) for i._ZN4mbed17AT_CellularDevice16open_informationEPNS_10FileHandleE
    .\build\at_cellulardevice.o(.ARM.exidx) refers to .\build\at_cellulardevice.o(i._ZN4mbed17AT_CellularDevice11set_timeoutEi) for i._ZN4mbed17AT_CellularDevice11set_timeoutEi
    .\build\at_cellulardevice.o(.ARM.exidx) refers to .\build\at_cellulardevice.o(i._ZN4mbed17AT_CellularDevice14get_send_delayEv) for i._ZN4mbed17AT_CellularDevice14get_send_delayEv
    .\build\at_cellulardevice.o(.ARM.exidx) refers to .\build\at_cellulardevice.o(i._ZN4mbed17AT_CellularDevice14modem_debug_onEb) for i._ZN4mbed17AT_CellularDevice14modem_debug_onEb
    .\build\at_cellulardevice.o(.ARM.exidx) refers to .\build\at_cellulardevice.o(i._ZN4mbed17AT_CellularDevice9get_stackEv) for i._ZN4mbed17AT_CellularDevice9get_stackEv
    .\build\at_cellularinformation.o(i._ZN4mbed22AT_CellularInformation12get_revisionEPcj) refers to .\build\at_cellularinformation.o(i._ZN4mbed22AT_CellularInformation8get_infoEPKcPcj) for mbed::AT_CellularInformation::get_info(const char*, char*, unsigned)
    .\build\at_cellularinformation.o(i._ZN4mbed22AT_CellularInformation16get_manufacturerEPcj) refers to .\build\at_cellularinformation.o(i._ZN4mbed22AT_CellularInformation8get_infoEPKcPcj) for mbed::AT_CellularInformation::get_info(const char*, char*, unsigned)
    .\build\at_cellularinformation.o(i._ZN4mbed22AT_CellularInformation8get_infoEPKcPcj) refers to .\build\athandler.o(i._ZN4mbed9ATHandler4lockEv) for mbed::ATHandler::lock()
    .\build\at_cellularinformation.o(i._ZN4mbed22AT_CellularInformation8get_infoEPKcPcj) refers to .\build\athandler.o(i._ZN4mbed9ATHandler9cmd_startEPKc) for mbed::ATHandler::cmd_start(const char*)
    .\build\at_cellularinformation.o(i._ZN4mbed22AT_CellularInformation8get_infoEPKcPcj) refers to .\build\athandler.o(i._ZN4mbed9ATHandler8cmd_stopEv) for mbed::ATHandler::cmd_stop()
    .\build\at_cellularinformation.o(i._ZN4mbed22AT_CellularInformation8get_infoEPKcPcj) refers to .\build\athandler.o(i._ZN4mbed9ATHandler13set_delimiterEc) for mbed::ATHandler::set_delimiter(char)
    .\build\at_cellularinformation.o(i._ZN4mbed22AT_CellularInformation8get_infoEPKcPcj) refers to .\build\athandler.o(i._ZN4mbed9ATHandler10resp_startEPKcb) for mbed::ATHandler::resp_start(const char*, bool)
    .\build\at_cellularinformation.o(i._ZN4mbed22AT_CellularInformation8get_infoEPKcPcj) refers to .\build\athandler.o(i._ZN4mbed9ATHandler11read_stringEPcjb) for mbed::ATHandler::read_string(char*, unsigned, bool)
    .\build\at_cellularinformation.o(i._ZN4mbed22AT_CellularInformation8get_infoEPKcPcj) refers to .\build\athandler.o(i._ZN4mbed9ATHandler9resp_stopEv) for mbed::ATHandler::resp_stop()
    .\build\at_cellularinformation.o(i._ZN4mbed22AT_CellularInformation8get_infoEPKcPcj) refers to .\build\athandler.o(i._ZN4mbed9ATHandler21set_default_delimiterEv) for mbed::ATHandler::set_default_delimiter()
    .\build\at_cellularinformation.o(i._ZN4mbed22AT_CellularInformation8get_infoEPKcPcj) refers to .\build\athandler.o(i._ZN4mbed9ATHandler19unlock_return_errorEv) for mbed::ATHandler::unlock_return_error()
    .\build\at_cellularinformation.o(i._ZN4mbed22AT_CellularInformation9get_modelEPcj) refers to .\build\at_cellularinformation.o(i._ZN4mbed22AT_CellularInformation8get_infoEPKcPcj) for mbed::AT_CellularInformation::get_info(const char*, char*, unsigned)
    .\build\at_cellularinformation.o(i._ZN4mbed22AT_CellularInformationC1ERNS_9ATHandlerE) refers to .\build\at_cellularbase.o(i._ZN4mbed15AT_CellularBaseC1ERNS_9ATHandlerE) for mbed::AT_CellularBase::AT_CellularBase(mbed::ATHandler&)
    .\build\at_cellularinformation.o(i._ZN4mbed22AT_CellularInformationC1ERNS_9ATHandlerE) refers to .\build\at_cellularinformation.o(.constdata__ZTVN4mbed19CellularInformationE) for vtable for mbed::CellularInformation
    .\build\at_cellularinformation.o(i._ZN4mbed22AT_CellularInformationC1ERNS_9ATHandlerE) refers to .\build\at_cellularinformation.o(.constdata__ZTVN4mbed22AT_CellularInformationE) for vtable for mbed::AT_CellularInformation
    .\build\at_cellularinformation.o(i._ZN4mbed22AT_CellularInformationD0Ev) refers to .\build\at_cellularinformation.o(i._ZN4mbed22AT_CellularInformationD1Ev) for mbed::AT_CellularInformation::~AT_CellularInformation()
    .\build\at_cellularinformation.o(i._ZN4mbed22AT_CellularInformationD0Ev) refers to .\build\mbed_retarget.o(i._ZdlPv) for operator delete (void*)
    .\build\at_cellularinformation.o(.ARM.exidx) refers to .\build\at_cellularinformation.o(i._ZN4mbed22AT_CellularInformationC1ERNS_9ATHandlerE) for i._ZN4mbed22AT_CellularInformationC1ERNS_9ATHandlerE
    .\build\at_cellularinformation.o(.ARM.exidx) refers to .\build\at_cellularinformation.o(i._ZN4mbed22AT_CellularInformationD1Ev) for i._ZN4mbed22AT_CellularInformationD1Ev
    .\build\at_cellularinformation.o(.ARM.exidx) refers to .\build\at_cellularinformation.o(i._ZN4mbed22AT_CellularInformationD0Ev) for i._ZN4mbed22AT_CellularInformationD0Ev
    .\build\at_cellularinformation.o(.ARM.exidx) refers to .\build\at_cellularinformation.o(i._ZN4mbed22AT_CellularInformation8get_infoEPKcPcj) for i._ZN4mbed22AT_CellularInformation8get_infoEPKcPcj
    .\build\at_cellularinformation.o(.ARM.exidx) refers to .\build\at_cellularinformation.o(i._ZN4mbed22AT_CellularInformation16get_manufacturerEPcj) for i._ZN4mbed22AT_CellularInformation16get_manufacturerEPcj
    .\build\at_cellularinformation.o(.ARM.exidx) refers to .\build\at_cellularinformation.o(i._ZN4mbed22AT_CellularInformation9get_modelEPcj) for i._ZN4mbed22AT_CellularInformation9get_modelEPcj
    .\build\at_cellularinformation.o(.ARM.exidx) refers to .\build\at_cellularinformation.o(i._ZN4mbed22AT_CellularInformation12get_revisionEPcj) for i._ZN4mbed22AT_CellularInformation12get_revisionEPcj
    .\build\at_cellularnetwork.o(i._ZN4mbed18AT_CellularNetwork10disconnectEv) refers to .\build\athandler.o(i._ZN4mbed9ATHandler4lockEv) for mbed::ATHandler::lock()
    .\build\at_cellularnetwork.o(i._ZN4mbed18AT_CellularNetwork10disconnectEv) refers to .\build\athandler.o(i._ZN4mbed9ATHandler9cmd_startEPKc) for mbed::ATHandler::cmd_start(const char*)
    .\build\at_cellularnetwork.o(i._ZN4mbed18AT_CellularNetwork10disconnectEv) refers to .\build\athandler.o(i._ZN4mbed9ATHandler9write_intEi) for mbed::ATHandler::write_int(int)
    .\build\at_cellularnetwork.o(i._ZN4mbed18AT_CellularNetwork10disconnectEv) refers to .\build\athandler.o(i._ZN4mbed9ATHandler8cmd_stopEv) for mbed::ATHandler::cmd_stop()
    .\build\at_cellularnetwork.o(i._ZN4mbed18AT_CellularNetwork10disconnectEv) refers to .\build\athandler.o(i._ZN4mbed9ATHandler10resp_startEPKcb) for mbed::ATHandler::resp_start(const char*, bool)
    .\build\at_cellularnetwork.o(i._ZN4mbed18AT_CellularNetwork10disconnectEv) refers to .\build\athandler.o(i._ZN4mbed9ATHandler9resp_stopEv) for mbed::ATHandler::resp_stop()
    .\build\at_cellularnetwork.o(i._ZN4mbed18AT_CellularNetwork10disconnectEv) refers to .\build\athandler.o(i._ZN4mbed9ATHandler18restore_at_timeoutEv) for mbed::ATHandler::restore_at_timeout()
    .\build\at_cellularnetwork.o(i._ZN4mbed18AT_CellularNetwork10disconnectEv) refers to .\build\at_cellularnetwork.o(t._ZNK4mbed8CallbackIFv11nsapi_eventiEEcvbEv) for mbed::Callback<void(nsapi_event, int)>::operator bool() const
    .\build\at_cellularnetwork.o(i._ZN4mbed18AT_CellularNetwork10disconnectEv) refers to .\build\at_cellularnetwork.o(t._ZNK4mbed8CallbackIFv11nsapi_eventiEEclES1_i) for mbed::Callback<void(nsapi_event, int)>::operator ()(nsapi_event, int) const
    .\build\at_cellularnetwork.o(i._ZN4mbed18AT_CellularNetwork10disconnectEv) refers to .\build\athandler.o(i._ZN4mbed9ATHandler19unlock_return_errorEv) for mbed::ATHandler::unlock_return_error()
    .\build\at_cellularnetwork.o(i._ZN4mbed18AT_CellularNetwork10get_attachERNS_15CellularNetwork12AttachStatusE) refers to .\build\athandler.o(i._ZN4mbed9ATHandler4lockEv) for mbed::ATHandler::lock()
    .\build\at_cellularnetwork.o(i._ZN4mbed18AT_CellularNetwork10get_attachERNS_15CellularNetwork12AttachStatusE) refers to .\build\athandler.o(i._ZN4mbed9ATHandler9cmd_startEPKc) for mbed::ATHandler::cmd_start(const char*)
    .\build\at_cellularnetwork.o(i._ZN4mbed18AT_CellularNetwork10get_attachERNS_15CellularNetwork12AttachStatusE) refers to .\build\athandler.o(i._ZN4mbed9ATHandler8cmd_stopEv) for mbed::ATHandler::cmd_stop()
    .\build\at_cellularnetwork.o(i._ZN4mbed18AT_CellularNetwork10get_attachERNS_15CellularNetwork12AttachStatusE) refers to .\build\athandler.o(i._ZN4mbed9ATHandler10resp_startEPKcb) for mbed::ATHandler::resp_start(const char*, bool)
    .\build\at_cellularnetwork.o(i._ZN4mbed18AT_CellularNetwork10get_attachERNS_15CellularNetwork12AttachStatusE) refers to .\build\athandler.o(i._ZN4mbed9ATHandler9info_respEv) for mbed::ATHandler::info_resp()
    .\build\at_cellularnetwork.o(i._ZN4mbed18AT_CellularNetwork10get_attachERNS_15CellularNetwork12AttachStatusE) refers to .\build\athandler.o(i._ZN4mbed9ATHandler8read_intEv) for mbed::ATHandler::read_int()
    .\build\at_cellularnetwork.o(i._ZN4mbed18AT_CellularNetwork10get_attachERNS_15CellularNetwork12AttachStatusE) refers to .\build\athandler.o(i._ZN4mbed9ATHandler9resp_stopEv) for mbed::ATHandler::resp_stop()
    .\build\at_cellularnetwork.o(i._ZN4mbed18AT_CellularNetwork10get_attachERNS_15CellularNetwork12AttachStatusE) refers to .\build\athandler.o(i._ZN4mbed9ATHandler19unlock_return_errorEv) for mbed::ATHandler::unlock_return_error()
    .\build\at_cellularnetwork.o(i._ZN4mbed18AT_CellularNetwork10set_attachEi) refers to .\build\athandler.o(i._ZN4mbed9ATHandler4lockEv) for mbed::ATHandler::lock()
    .\build\at_cellularnetwork.o(i._ZN4mbed18AT_CellularNetwork10set_attachEi) refers to .\build\athandler.o(i._ZN4mbed9ATHandler9cmd_startEPKc) for mbed::ATHandler::cmd_start(const char*)
    .\build\at_cellularnetwork.o(i._ZN4mbed18AT_CellularNetwork10set_attachEi) refers to .\build\athandler.o(i._ZN4mbed9ATHandler8cmd_stopEv) for mbed::ATHandler::cmd_stop()
    .\build\at_cellularnetwork.o(i._ZN4mbed18AT_CellularNetwork10set_attachEi) refers to .\build\athandler.o(i._ZN4mbed9ATHandler10resp_startEPKcb) for mbed::ATHandler::resp_start(const char*, bool)
    .\build\at_cellularnetwork.o(i._ZN4mbed18AT_CellularNetwork10set_attachEi) refers to .\build\athandler.o(i._ZN4mbed9ATHandler8read_intEv) for mbed::ATHandler::read_int()
    .\build\at_cellularnetwork.o(i._ZN4mbed18AT_CellularNetwork10set_attachEi) refers to .\build\athandler.o(i._ZN4mbed9ATHandler9resp_stopEv) for mbed::ATHandler::resp_stop()
    .\build\at_cellularnetwork.o(i._ZN4mbed18AT_CellularNetwork10set_attachEi) refers to .\build\athandler.o(i._ZN4mbed9ATHandler19unlock_return_errorEv) for mbed::ATHandler::unlock_return_error()
    .\build\at_cellularnetwork.o(i._ZN4mbed18AT_CellularNetwork11get_contextEv) refers to .\build\athandler.o(i._ZN4mbed9ATHandler9cmd_startEPKc) for mbed::ATHandler::cmd_start(const char*)
    .\build\at_cellularnetwork.o(i._ZN4mbed18AT_CellularNetwork11get_contextEv) refers to .\build\athandler.o(i._ZN4mbed9ATHandler8cmd_stopEv) for mbed::ATHandler::cmd_stop()
    .\build\at_cellularnetwork.o(i._ZN4mbed18AT_CellularNetwork11get_contextEv) refers to .\build\athandler.o(i._ZN4mbed9ATHandler10resp_startEPKcb) for mbed::ATHandler::resp_start(const char*, bool)
    .\build\at_cellularnetwork.o(i._ZN4mbed18AT_CellularNetwork11get_contextEv) refers to .\build\athandler.o(i._ZN4mbed9ATHandler8read_intEv) for mbed::ATHandler::read_int()
    .\build\at_cellularnetwork.o(i._ZN4mbed18AT_CellularNetwork11get_contextEv) refers to .\build\athandler.o(i._ZN4mbed9ATHandler11read_stringEPcjb) for mbed::ATHandler::read_string(char*, unsigned, bool)
    .\build\at_cellularnetwork.o(i._ZN4mbed18AT_CellularNetwork11get_contextEv) refers to D:\Keil_v5\ARM\ARMCC\Bin\..\lib\armlib\c_w.l(strcmpv7m.o)(.text) for strcmp
    .\build\at_cellularnetwork.o(i._ZN4mbed18AT_CellularNetwork11get_contextEv) refers to .\build\at_cellularnetwork.o(i._ZN4mbed18AT_CellularNetwork20string_to_stack_typeEPKc) for mbed::AT_CellularNetwork::string_to_stack_type(const char*)
    .\build\at_cellularnetwork.o(i._ZN4mbed18AT_CellularNetwork11get_contextEv) refers to .\build\athandler.o(i._ZN4mbed9ATHandler9info_respEv) for mbed::ATHandler::info_resp()
    .\build\at_cellularnetwork.o(i._ZN4mbed18AT_CellularNetwork11get_contextEv) refers to .\build\athandler.o(i._ZN4mbed9ATHandler9resp_stopEv) for mbed::ATHandler::resp_stop()
    .\build\at_cellularnetwork.o(i._ZN4mbed18AT_CellularNetwork11get_contextEv) refers to .\build\at_cellularnetwork.o(i._ZN4mbed18AT_CellularNetwork15set_new_contextEi) for mbed::AT_CellularNetwork::set_new_context(int)
    .\build\at_cellularnetwork.o(i._ZN4mbed18AT_CellularNetwork11get_contextEv) refers to D:\Keil_v5\ARM\ARMCC\Bin\..\lib\armlib\c_w.l(h1_alloc_mt.o)(.text) for malloc
    .\build\at_cellularnetwork.o(i._ZN4mbed18AT_CellularNetwork11get_contextEv) refers to D:\Keil_v5\ARM\ARMCC\Bin\..\lib\armlib\c_w.l(rt_memcpy_v6.o)(.text) for __aeabi_memcpy
    .\build\at_cellularnetwork.o(i._ZN4mbed18AT_CellularNetwork14get_3gpp_errorEv) refers to .\build\athandler.o(i._ZN4mbed9ATHandler14get_3gpp_errorEv) for mbed::ATHandler::get_3gpp_error()
    .\build\at_cellularnetwork.o(i._ZN4mbed18AT_CellularNetwork14urc_no_carrierEv) refers to .\build\at_cellularnetwork.o(t._ZNK4mbed8CallbackIFv11nsapi_eventiEEcvbEv) for mbed::Callback<void(nsapi_event, int)>::operator bool() const
    .\build\at_cellularnetwork.o(i._ZN4mbed18AT_CellularNetwork14urc_no_carrierEv) refers to .\build\at_cellularnetwork.o(t._ZNK4mbed8CallbackIFv11nsapi_eventiEEclES1_i) for mbed::Callback<void(nsapi_event, int)>::operator ()(nsapi_event, int) const
    .\build\at_cellularnetwork.o(i._ZN4mbed18AT_CellularNetwork15set_credentialsEPKcS2_S2_) refers to D:\Keil_v5\ARM\ARMCC\Bin\..\lib\armlib\c_w.l(strlen.o)(.text) for strlen
    .\build\at_cellularnetwork.o(i._ZN4mbed18AT_CellularNetwork15set_credentialsEPKcS2_S2_) refers to D:\Keil_v5\ARM\ARMCC\Bin\..\lib\armlib\c_w.l(h1_alloc_mt.o)(.text) for malloc
    .\build\at_cellularnetwork.o(i._ZN4mbed18AT_CellularNetwork15set_credentialsEPKcS2_S2_) refers to D:\Keil_v5\ARM\ARMCC\Bin\..\lib\armlib\c_w.l(rt_memcpy_v6.o)(.text) for __aeabi_memcpy
    .\build\at_cellularnetwork.o(i._ZN4mbed18AT_CellularNetwork15set_new_contextEi) refers to D:\Keil_v5\ARM\ARMCC\Bin\..\lib\armlib\c_w.l(strncpy.o)(.text) for strncpy
    .\build\at_cellularnetwork.o(i._ZN4mbed18AT_CellularNetwork15set_new_contextEi) refers to .\build\athandler.o(i._ZN4mbed9ATHandler9cmd_startEPKc) for mbed::ATHandler::cmd_start(const char*)
    .\build\at_cellularnetwork.o(i._ZN4mbed18AT_CellularNetwork15set_new_contextEi) refers to .\build\athandler.o(i._ZN4mbed9ATHandler9write_intEi) for mbed::ATHandler::write_int(int)
    .\build\at_cellularnetwork.o(i._ZN4mbed18AT_CellularNetwork15set_new_contextEi) refers to .\build\athandler.o(i._ZN4mbed9ATHandler12write_stringEPKcb) for mbed::ATHandler::write_string(const char*, bool)
    .\build\at_cellularnetwork.o(i._ZN4mbed18AT_CellularNetwork15set_new_contextEi) refers to .\build\athandler.o(i._ZN4mbed9ATHandler8cmd_stopEv) for mbed::ATHandler::cmd_stop()
    .\build\at_cellularnetwork.o(i._ZN4mbed18AT_CellularNetwork15set_new_contextEi) refers to .\build\athandler.o(i._ZN4mbed9ATHandler10resp_startEPKcb) for mbed::ATHandler::resp_start(const char*, bool)
    .\build\at_cellularnetwork.o(i._ZN4mbed18AT_CellularNetwork15set_new_contextEi) refers to .\build\athandler.o(i._ZN4mbed9ATHandler9resp_stopEv) for mbed::ATHandler::resp_stop()
    .\build\at_cellularnetwork.o(i._ZN4mbed18AT_CellularNetwork15set_new_contextEi) refers to .\build\athandler.o(i._ZNK4mbed9ATHandler14get_last_errorEv) for mbed::ATHandler::get_last_error() const
    .\build\at_cellularnetwork.o(i._ZN4mbed18AT_CellularNetwork16free_credentialsEv) refers to D:\Keil_v5\ARM\ARMCC\Bin\..\lib\armlib\c_w.l(h1_free_mt.o)(.text) for free
    .\build\at_cellularnetwork.o(i._ZN4mbed18AT_CellularNetwork16get_rate_controlERNS_15CellularNetwork27RateControlExceptionReportsERNS1_25RateControlUplinkTimeUnitERi) refers to .\build\athandler.o(i._ZN4mbed9ATHandler4lockEv) for mbed::ATHandler::lock()
    .\build\at_cellularnetwork.o(i._ZN4mbed18AT_CellularNetwork16get_rate_controlERNS_15CellularNetwork27RateControlExceptionReportsERNS1_25RateControlUplinkTimeUnitERi) refers to .\build\athandler.o(i._ZN4mbed9ATHandler9cmd_startEPKc) for mbed::ATHandler::cmd_start(const char*)
    .\build\at_cellularnetwork.o(i._ZN4mbed18AT_CellularNetwork16get_rate_controlERNS_15CellularNetwork27RateControlExceptionReportsERNS1_25RateControlUplinkTimeUnitERi) refers to .\build\athandler.o(i._ZN4mbed9ATHandler9write_intEi) for mbed::ATHandler::write_int(int)
    .\build\at_cellularnetwork.o(i._ZN4mbed18AT_CellularNetwork16get_rate_controlERNS_15CellularNetwork27RateControlExceptionReportsERNS1_25RateControlUplinkTimeUnitERi) refers to .\build\athandler.o(i._ZN4mbed9ATHandler8cmd_stopEv) for mbed::ATHandler::cmd_stop()
    .\build\at_cellularnetwork.o(i._ZN4mbed18AT_CellularNetwork16get_rate_controlERNS_15CellularNetwork27RateControlExceptionReportsERNS1_25RateControlUplinkTimeUnitERi) refers to .\build\athandler.o(i._ZN4mbed9ATHandler10resp_startEPKcb) for mbed::ATHandler::resp_start(const char*, bool)
    .\build\at_cellularnetwork.o(i._ZN4mbed18AT_CellularNetwork16get_rate_controlERNS_15CellularNetwork27RateControlExceptionReportsERNS1_25RateControlUplinkTimeUnitERi) refers to .\build\athandler.o(i._ZN4mbed9ATHandler8read_intEv) for mbed::ATHandler::read_int()
    .\build\at_cellularnetwork.o(i._ZN4mbed18AT_CellularNetwork16get_rate_controlERNS_15CellularNetwork27RateControlExceptionReportsERNS1_25RateControlUplinkTimeUnitERi) refers to .\build\athandler.o(i._ZNK4mbed9ATHandler14get_last_errorEv) for mbed::ATHandler::get_last_error() const
    .\build\at_cellularnetwork.o(i._ZN4mbed18AT_CellularNetwork16get_rate_controlERNS_15CellularNetwork27RateControlExceptionReportsERNS1_25RateControlUplinkTimeUnitERi) refers to .\build\athandler.o(i._ZN4mbed9ATHandler9resp_stopEv) for mbed::ATHandler::resp_stop()
    .\build\at_cellularnetwork.o(i._ZN4mbed18AT_CellularNetwork16get_rate_controlERNS_15CellularNetwork27RateControlExceptionReportsERNS1_25RateControlUplinkTimeUnitERi) refers to .\build\athandler.o(i._ZN4mbed9ATHandler6unlockEv) for mbed::ATHandler::unlock()
    .\build\at_cellularnetwork.o(i._ZN4mbed18AT_CellularNetwork16set_registrationEPKc) refers to .\build\athandler.o(i._ZN4mbed9ATHandler4lockEv) for mbed::ATHandler::lock()
    .\build\at_cellularnetwork.o(i._ZN4mbed18AT_CellularNetwork16set_registrationEPKc) refers to .\build\at_cellularnetwork.o(i._ZN4mbed18AT_CellularNetwork20set_registration_urcEb) for mbed::AT_CellularNetwork::set_registration_urc(bool)
    .\build\at_cellularnetwork.o(i._ZN4mbed18AT_CellularNetwork16set_registrationEPKc) refers to .\build\athandler.o(i._ZN4mbed9ATHandler11clear_errorEv) for mbed::ATHandler::clear_error()
    .\build\at_cellularnetwork.o(i._ZN4mbed18AT_CellularNetwork16set_registrationEPKc) refers to .\build\athandler.o(i._ZN4mbed9ATHandler9cmd_startEPKc) for mbed::ATHandler::cmd_start(const char*)
    .\build\at_cellularnetwork.o(i._ZN4mbed18AT_CellularNetwork16set_registrationEPKc) refers to .\build\athandler.o(i._ZN4mbed9ATHandler12write_stringEPKcb) for mbed::ATHandler::write_string(const char*, bool)
    .\build\at_cellularnetwork.o(i._ZN4mbed18AT_CellularNetwork16set_registrationEPKc) refers to .\build\athandler.o(i._ZN4mbed9ATHandler8cmd_stopEv) for mbed::ATHandler::cmd_stop()
    .\build\at_cellularnetwork.o(i._ZN4mbed18AT_CellularNetwork16set_registrationEPKc) refers to .\build\athandler.o(i._ZN4mbed9ATHandler10resp_startEPKcb) for mbed::ATHandler::resp_start(const char*, bool)
    .\build\at_cellularnetwork.o(i._ZN4mbed18AT_CellularNetwork16set_registrationEPKc) refers to .\build\athandler.o(i._ZN4mbed9ATHandler9resp_stopEv) for mbed::ATHandler::resp_stop()
    .\build\at_cellularnetwork.o(i._ZN4mbed18AT_CellularNetwork16set_registrationEPKc) refers to .\build\athandler.o(i._ZN4mbed9ATHandler19unlock_return_errorEv) for mbed::ATHandler::unlock_return_error()
    .\build\at_cellularnetwork.o(i._ZN4mbed18AT_CellularNetwork16set_registrationEPKc) refers to .\build\athandler.o(i._ZN4mbed9ATHandler8read_intEv) for mbed::ATHandler::read_int()
    .\build\at_cellularnetwork.o(i._ZN4mbed18AT_CellularNetwork17open_data_channelEv) refers to .\build\athandler.o(i._ZN4mbed9ATHandler9cmd_startEPKc) for mbed::ATHandler::cmd_start(const char*)
    .\build\at_cellularnetwork.o(i._ZN4mbed18AT_CellularNetwork17open_data_channelEv) refers to .\build\athandler.o(i._ZN4mbed9ATHandler8cmd_stopEv) for mbed::ATHandler::cmd_stop()
    .\build\at_cellularnetwork.o(i._ZN4mbed18AT_CellularNetwork17open_data_channelEv) refers to .\build\athandler.o(i._ZN4mbed9ATHandler10resp_startEPKcb) for mbed::ATHandler::resp_start(const char*, bool)
    .\build\at_cellularnetwork.o(i._ZN4mbed18AT_CellularNetwork17open_data_channelEv) refers to .\build\athandler.o(i._ZN4mbed9ATHandler8read_intEv) for mbed::ATHandler::read_int()
    .\build\at_cellularnetwork.o(i._ZN4mbed18AT_CellularNetwork17open_data_channelEv) refers to .\build\athandler.o(i._ZN4mbed9ATHandler9info_respEv) for mbed::ATHandler::info_resp()
    .\build\at_cellularnetwork.o(i._ZN4mbed18AT_CellularNetwork17open_data_channelEv) refers to .\build\athandler.o(i._ZN4mbed9ATHandler9resp_stopEv) for mbed::ATHandler::resp_stop()
    .\build\at_cellularnetwork.o(i._ZN4mbed18AT_CellularNetwork17open_data_channelEv) refers to .\build\athandler.o(i._ZN4mbed9ATHandler9write_intEi) for mbed::ATHandler::write_int(int)
    .\build\at_cellularnetwork.o(i._ZN4mbed18AT_CellularNetwork17open_data_channelEv) refers to .\build\athandler.o(i._ZNK4mbed9ATHandler14get_last_errorEv) for mbed::ATHandler::get_last_error() const
    .\build\at_cellularnetwork.o(i._ZN4mbed18AT_CellularNetwork18get_signal_qualityERiS1_) refers to .\build\athandler.o(i._ZN4mbed9ATHandler4lockEv) for mbed::ATHandler::lock()
    .\build\at_cellularnetwork.o(i._ZN4mbed18AT_CellularNetwork18get_signal_qualityERiS1_) refers to .\build\athandler.o(i._ZN4mbed9ATHandler9cmd_startEPKc) for mbed::ATHandler::cmd_start(const char*)
    .\build\at_cellularnetwork.o(i._ZN4mbed18AT_CellularNetwork18get_signal_qualityERiS1_) refers to .\build\athandler.o(i._ZN4mbed9ATHandler8cmd_stopEv) for mbed::ATHandler::cmd_stop()
    .\build\at_cellularnetwork.o(i._ZN4mbed18AT_CellularNetwork18get_signal_qualityERiS1_) refers to .\build\athandler.o(i._ZN4mbed9ATHandler10resp_startEPKcb) for mbed::ATHandler::resp_start(const char*, bool)
    .\build\at_cellularnetwork.o(i._ZN4mbed18AT_CellularNetwork18get_signal_qualityERiS1_) refers to .\build\athandler.o(i._ZN4mbed9ATHandler8read_intEv) for mbed::ATHandler::read_int()
    .\build\at_cellularnetwork.o(i._ZN4mbed18AT_CellularNetwork18get_signal_qualityERiS1_) refers to .\build\athandler.o(i._ZN4mbed9ATHandler9resp_stopEv) for mbed::ATHandler::resp_stop()
    .\build\at_cellularnetwork.o(i._ZN4mbed18AT_CellularNetwork18get_signal_qualityERiS1_) refers to .\build\athandler.o(i._ZN4mbed9ATHandler6unlockEv) for mbed::ATHandler::unlock()
    .\build\at_cellularnetwork.o(i._ZN4mbed18AT_CellularNetwork18get_signal_qualityERiS1_) refers to .\build\athandler.o(i._ZN4mbed9ATHandler19unlock_return_errorEv) for mbed::ATHandler::unlock_return_error()
    .\build\at_cellularnetwork.o(i._ZN4mbed18AT_CellularNetwork19get_operator_paramsERiRNS_15CellularNetwork10operator_tE) refers to .\build\athandler.o(i._ZN4mbed9ATHandler4lockEv) for mbed::ATHandler::lock()
    .\build\at_cellularnetwork.o(i._ZN4mbed18AT_CellularNetwork19get_operator_paramsERiRNS_15CellularNetwork10operator_tE) refers to .\build\athandler.o(i._ZN4mbed9ATHandler9cmd_startEPKc) for mbed::ATHandler::cmd_start(const char*)
    .\build\at_cellularnetwork.o(i._ZN4mbed18AT_CellularNetwork19get_operator_paramsERiRNS_15CellularNetwork10operator_tE) refers to .\build\athandler.o(i._ZN4mbed9ATHandler8cmd_stopEv) for mbed::ATHandler::cmd_stop()
    .\build\at_cellularnetwork.o(i._ZN4mbed18AT_CellularNetwork19get_operator_paramsERiRNS_15CellularNetwork10operator_tE) refers to .\build\athandler.o(i._ZN4mbed9ATHandler10resp_startEPKcb) for mbed::ATHandler::resp_start(const char*, bool)
    .\build\at_cellularnetwork.o(i._ZN4mbed18AT_CellularNetwork19get_operator_paramsERiRNS_15CellularNetwork10operator_tE) refers to .\build\athandler.o(i._ZN4mbed9ATHandler8read_intEv) for mbed::ATHandler::read_int()
    .\build\at_cellularnetwork.o(i._ZN4mbed18AT_CellularNetwork19get_operator_paramsERiRNS_15CellularNetwork10operator_tE) refers to .\build\athandler.o(i._ZNK4mbed9ATHandler14get_last_errorEv) for mbed::ATHandler::get_last_error() const
    .\build\at_cellularnetwork.o(i._ZN4mbed18AT_CellularNetwork19get_operator_paramsERiRNS_15CellularNetwork10operator_tE) refers to .\build\athandler.o(i._ZN4mbed9ATHandler11read_stringEPcjb) for mbed::ATHandler::read_string(char*, unsigned, bool)
    .\build\at_cellularnetwork.o(i._ZN4mbed18AT_CellularNetwork19get_operator_paramsERiRNS_15CellularNetwork10operator_tE) refers to .\build\athandler.o(i._ZN4mbed9ATHandler9resp_stopEv) for mbed::ATHandler::resp_stop()
    .\build\at_cellularnetwork.o(i._ZN4mbed18AT_CellularNetwork19get_operator_paramsERiRNS_15CellularNetwork10operator_tE) refers to .\build\athandler.o(i._ZN4mbed9ATHandler19unlock_return_errorEv) for mbed::ATHandler::unlock_return_error()
    .\build\at_cellularnetwork.o(i._ZN4mbed18AT_CellularNetwork20set_registration_urcEb) refers to .\build\athandler.o(i._ZN4mbed9ATHandler9cmd_startEPKc) for mbed::ATHandler::cmd_start(const char*)
    .\build\at_cellularnetwork.o(i._ZN4mbed18AT_CellularNetwork20set_registration_urcEb) refers to .\build\athandler.o(i._ZN4mbed9ATHandler12write_stringEPKcb) for mbed::ATHandler::write_string(const char*, bool)
    .\build\at_cellularnetwork.o(i._ZN4mbed18AT_CellularNetwork20set_registration_urcEb) refers to .\build\athandler.o(i._ZN4mbed9ATHandler8cmd_stopEv) for mbed::ATHandler::cmd_stop()
    .\build\at_cellularnetwork.o(i._ZN4mbed18AT_CellularNetwork20set_registration_urcEb) refers to .\build\athandler.o(i._ZN4mbed9ATHandler10resp_startEPKcb) for mbed::ATHandler::resp_start(const char*, bool)
    .\build\at_cellularnetwork.o(i._ZN4mbed18AT_CellularNetwork20set_registration_urcEb) refers to .\build\athandler.o(i._ZN4mbed9ATHandler9resp_stopEv) for mbed::ATHandler::resp_stop()
    .\build\at_cellularnetwork.o(i._ZN4mbed18AT_CellularNetwork20set_registration_urcEb) refers to .\build\athandler.o(i._ZNK4mbed9ATHandler14get_last_errorEv) for mbed::ATHandler::get_last_error() const
    .\build\at_cellularnetwork.o(i._ZN4mbed18AT_CellularNetwork20set_registration_urcEb) refers to .\build\at_cellularnetwork.o(.constdata) for .constdata
    .\build\at_cellularnetwork.o(i._ZN4mbed18AT_CellularNetwork20string_to_stack_typeEPKc) refers to D:\Keil_v5\ARM\ARMCC\Bin\..\lib\armlib\c_w.l(strlen.o)(.text) for strlen
    .\build\at_cellularnetwork.o(i._ZN4mbed18AT_CellularNetwork20string_to_stack_typeEPKc) refers to D:\Keil_v5\ARM\ARMCC\Bin\..\lib\armlib\c_w.l(memcmp.o)(.text) for memcmp
    .\build\at_cellularnetwork.o(i._ZN4mbed18AT_CellularNetwork21get_apn_backoff_timerERi) refers to .\build\athandler.o(i._ZN4mbed9ATHandler4lockEv) for mbed::ATHandler::lock()
    .\build\at_cellularnetwork.o(i._ZN4mbed18AT_CellularNetwork21get_apn_backoff_timerERi) refers to .\build\athandler.o(i._ZN4mbed9ATHandler9cmd_startEPKc) for mbed::ATHandler::cmd_start(const char*)
    .\build\at_cellularnetwork.o(i._ZN4mbed18AT_CellularNetwork21get_apn_backoff_timerERi) refers to .\build\athandler.o(i._ZN4mbed9ATHandler12write_stringEPKcb) for mbed::ATHandler::write_string(const char*, bool)
    .\build\at_cellularnetwork.o(i._ZN4mbed18AT_CellularNetwork21get_apn_backoff_timerERi) refers to .\build\athandler.o(i._ZN4mbed9ATHandler8cmd_stopEv) for mbed::ATHandler::cmd_stop()
    .\build\at_cellularnetwork.o(i._ZN4mbed18AT_CellularNetwork21get_apn_backoff_timerERi) refers to .\build\athandler.o(i._ZN4mbed9ATHandler10resp_startEPKcb) for mbed::ATHandler::resp_start(const char*, bool)
    .\build\at_cellularnetwork.o(i._ZN4mbed18AT_CellularNetwork21get_apn_backoff_timerERi) refers to .\build\athandler.o(i._ZN4mbed9ATHandler9info_respEv) for mbed::ATHandler::info_resp()
    .\build\at_cellularnetwork.o(i._ZN4mbed18AT_CellularNetwork21get_apn_backoff_timerERi) refers to .\build\athandler.o(i._ZN4mbed9ATHandler10skip_paramEj) for mbed::ATHandler::skip_param(unsigned)
    .\build\at_cellularnetwork.o(i._ZN4mbed18AT_CellularNetwork21get_apn_backoff_timerERi) refers to .\build\athandler.o(i._ZN4mbed9ATHandler8read_intEv) for mbed::ATHandler::read_int()
    .\build\at_cellularnetwork.o(i._ZN4mbed18AT_CellularNetwork21get_apn_backoff_timerERi) refers to .\build\athandler.o(i._ZN4mbed9ATHandler9resp_stopEv) for mbed::ATHandler::resp_stop()
    .\build\at_cellularnetwork.o(i._ZN4mbed18AT_CellularNetwork21get_apn_backoff_timerERi) refers to .\build\athandler.o(i._ZN4mbed9ATHandler19unlock_return_errorEv) for mbed::ATHandler::unlock_return_error()
    .\build\at_cellularnetwork.o(i._ZN4mbed18AT_CellularNetwork21get_pdpcontext_paramsERNS_12CellularListINS_15CellularNetwork19pdpcontext_params_tEEE) refers to D:\Keil_v5\ARM\ARMCC\Bin\..\lib\armlib\c_w.l(h1_alloc_mt.o)(.text) for malloc
    .\build\at_cellularnetwork.o(i._ZN4mbed18AT_CellularNetwork21get_pdpcontext_paramsERNS_12CellularListINS_15CellularNetwork19pdpcontext_params_tEEE) refers to .\build\athandler.o(i._ZN4mbed9ATHandler4lockEv) for mbed::ATHandler::lock()
    .\build\at_cellularnetwork.o(i._ZN4mbed18AT_CellularNetwork21get_pdpcontext_paramsERNS_12CellularListINS_15CellularNetwork19pdpcontext_params_tEEE) refers to .\build\athandler.o(i._ZN4mbed9ATHandler9cmd_startEPKc) for mbed::ATHandler::cmd_start(const char*)
    .\build\at_cellularnetwork.o(i._ZN4mbed18AT_CellularNetwork21get_pdpcontext_paramsERNS_12CellularListINS_15CellularNetwork19pdpcontext_params_tEEE) refers to .\build\athandler.o(i._ZN4mbed9ATHandler9write_intEi) for mbed::ATHandler::write_int(int)
    .\build\at_cellularnetwork.o(i._ZN4mbed18AT_CellularNetwork21get_pdpcontext_paramsERNS_12CellularListINS_15CellularNetwork19pdpcontext_params_tEEE) refers to .\build\athandler.o(i._ZN4mbed9ATHandler8cmd_stopEv) for mbed::ATHandler::cmd_stop()
    .\build\at_cellularnetwork.o(i._ZN4mbed18AT_CellularNetwork21get_pdpcontext_paramsERNS_12CellularListINS_15CellularNetwork19pdpcontext_params_tEEE) refers to .\build\athandler.o(i._ZN4mbed9ATHandler10resp_startEPKcb) for mbed::ATHandler::resp_start(const char*, bool)
    .\build\at_cellularnetwork.o(i._ZN4mbed18AT_CellularNetwork21get_pdpcontext_paramsERNS_12CellularListINS_15CellularNetwork19pdpcontext_params_tEEE) refers to D:\Keil_v5\ARM\ARMCC\Bin\..\lib\armlib\c_w.l(h1_free_mt.o)(.text) for free
    .\build\at_cellularnetwork.o(i._ZN4mbed18AT_CellularNetwork21get_pdpcontext_paramsERNS_12CellularListINS_15CellularNetwork19pdpcontext_params_tEEE) refers to .\build\mbed_retarget.o(i._Znwj) for operator new(unsigned)
    .\build\at_cellularnetwork.o(i._ZN4mbed18AT_CellularNetwork21get_pdpcontext_paramsERNS_12CellularListINS_15CellularNetwork19pdpcontext_params_tEEE) refers to .\build\athandler.o(i._ZN4mbed9ATHandler8read_intEv) for mbed::ATHandler::read_int()
    .\build\at_cellularnetwork.o(i._ZN4mbed18AT_CellularNetwork21get_pdpcontext_paramsERNS_12CellularListINS_15CellularNetwork19pdpcontext_params_tEEE) refers to .\build\athandler.o(i._ZN4mbed9ATHandler11read_stringEPcjb) for mbed::ATHandler::read_string(char*, unsigned, bool)
    .\build\at_cellularnetwork.o(i._ZN4mbed18AT_CellularNetwork21get_pdpcontext_paramsERNS_12CellularListINS_15CellularNetwork19pdpcontext_params_tEEE) refers to .\build\cellularutil.o(i._ZN18mbed_cellular_util21separate_ip_addressesEPcS0_jS0_j) for mbed_cellular_util::separate_ip_addresses(char*, char*, unsigned, char*, unsigned)
    .\build\at_cellularnetwork.o(i._ZN4mbed18AT_CellularNetwork21get_pdpcontext_paramsERNS_12CellularListINS_15CellularNetwork19pdpcontext_params_tEEE) refers to .\build\cellularutil.o(i._ZN18mbed_cellular_util11prefer_ipv6EPcjS0_j) for mbed_cellular_util::prefer_ipv6(char*, unsigned, char*, unsigned)
    .\build\at_cellularnetwork.o(i._ZN4mbed18AT_CellularNetwork21get_pdpcontext_paramsERNS_12CellularListINS_15CellularNetwork19pdpcontext_params_tEEE) refers to .\build\athandler.o(i._ZN4mbed9ATHandler9info_respEv) for mbed::ATHandler::info_resp()
    .\build\at_cellularnetwork.o(i._ZN4mbed18AT_CellularNetwork21get_pdpcontext_paramsERNS_12CellularListINS_15CellularNetwork19pdpcontext_params_tEEE) refers to .\build\athandler.o(i._ZN4mbed9ATHandler9resp_stopEv) for mbed::ATHandler::resp_stop()
    .\build\at_cellularnetwork.o(i._ZN4mbed18AT_CellularNetwork21get_pdpcontext_paramsERNS_12CellularListINS_15CellularNetwork19pdpcontext_params_tEEE) refers to .\build\athandler.o(i._ZN4mbed9ATHandler19unlock_return_errorEv) for mbed::ATHandler::unlock_return_error()
    .\build\at_cellularnetwork.o(i._ZN4mbed18AT_CellularNetwork21get_pdpcontext_paramsERNS_12CellularListINS_15CellularNetwork19pdpcontext_params_tEEE) refers to .\build\mbed_retarget.o(i._ZdlPv) for operator delete (void*)
    .\build\at_cellularnetwork.o(i._ZN4mbed18AT_CellularNetwork22delete_current_contextEv) refers to .\build\athandler.o(i._ZN4mbed9ATHandler11clear_errorEv) for mbed::ATHandler::clear_error()
    .\build\at_cellularnetwork.o(i._ZN4mbed18AT_CellularNetwork22delete_current_contextEv) refers to .\build\athandler.o(i._ZN4mbed9ATHandler9cmd_startEPKc) for mbed::ATHandler::cmd_start(const char*)
    .\build\at_cellularnetwork.o(i._ZN4mbed18AT_CellularNetwork22delete_current_contextEv) refers to .\build\athandler.o(i._ZN4mbed9ATHandler9write_intEi) for mbed::ATHandler::write_int(int)
    .\build\at_cellularnetwork.o(i._ZN4mbed18AT_CellularNetwork22delete_current_contextEv) refers to .\build\athandler.o(i._ZN4mbed9ATHandler8cmd_stopEv) for mbed::ATHandler::cmd_stop()
    .\build\at_cellularnetwork.o(i._ZN4mbed18AT_CellularNetwork22delete_current_contextEv) refers to .\build\athandler.o(i._ZN4mbed9ATHandler10resp_startEPKcb) for mbed::ATHandler::resp_start(const char*, bool)
    .\build\at_cellularnetwork.o(i._ZN4mbed18AT_CellularNetwork22delete_current_contextEv) refers to .\build\athandler.o(i._ZN4mbed9ATHandler9resp_stopEv) for mbed::ATHandler::resp_stop()
    .\build\at_cellularnetwork.o(i._ZN4mbed18AT_CellularNetwork22delete_current_contextEv) refers to .\build\athandler.o(i._ZNK4mbed9ATHandler14get_last_errorEv) for mbed::ATHandler::get_last_error() const
    .\build\at_cellularnetwork.o(i._ZN4mbed18AT_CellularNetwork23get_registration_statusENS_15CellularNetwork16RegistrationTypeERNS1_18RegistrationStatusE) refers to .\build\mbed_assert.o(i.mbed_assert_internal) for mbed_assert_internal
    .\build\at_cellularnetwork.o(i._ZN4mbed18AT_CellularNetwork23get_registration_statusENS_15CellularNetwork16RegistrationTypeERNS1_18RegistrationStatusE) refers to .\build\athandler.o(i._ZN4mbed9ATHandler4lockEv) for mbed::ATHandler::lock()
    .\build\at_cellularnetwork.o(i._ZN4mbed18AT_CellularNetwork23get_registration_statusENS_15CellularNetwork16RegistrationTypeERNS1_18RegistrationStatusE) refers to .\build\athandler.o(i._ZN4mbed9ATHandler9cmd_startEPKc) for mbed::ATHandler::cmd_start(const char*)
    .\build\at_cellularnetwork.o(i._ZN4mbed18AT_CellularNetwork23get_registration_statusENS_15CellularNetwork16RegistrationTypeERNS1_18RegistrationStatusE) refers to .\build\athandler.o(i._ZN4mbed9ATHandler12write_stringEPKcb) for mbed::ATHandler::write_string(const char*, bool)
    .\build\at_cellularnetwork.o(i._ZN4mbed18AT_CellularNetwork23get_registration_statusENS_15CellularNetwork16RegistrationTypeERNS1_18RegistrationStatusE) refers to .\build\athandler.o(i._ZN4mbed9ATHandler8cmd_stopEv) for mbed::ATHandler::cmd_stop()
    .\build\at_cellularnetwork.o(i._ZN4mbed18AT_CellularNetwork23get_registration_statusENS_15CellularNetwork16RegistrationTypeERNS1_18RegistrationStatusE) refers to .\build\athandler.o(i._ZN4mbed9ATHandler10resp_startEPKcb) for mbed::ATHandler::resp_start(const char*, bool)
    .\build\at_cellularnetwork.o(i._ZN4mbed18AT_CellularNetwork23get_registration_statusENS_15CellularNetwork16RegistrationTypeERNS1_18RegistrationStatusE) refers to .\build\athandler.o(i._ZN4mbed9ATHandler9resp_stopEv) for mbed::ATHandler::resp_stop()
    .\build\at_cellularnetwork.o(i._ZN4mbed18AT_CellularNetwork23get_registration_statusENS_15CellularNetwork16RegistrationTypeERNS1_18RegistrationStatusE) refers to .\build\athandler.o(i._ZN4mbed9ATHandler8read_intEv) for mbed::ATHandler::read_int()
    .\build\at_cellularnetwork.o(i._ZN4mbed18AT_CellularNetwork23get_registration_statusENS_15CellularNetwork16RegistrationTypeERNS1_18RegistrationStatusE) refers to .\build\athandler.o(i._ZN4mbed9ATHandler11read_stringEPcjb) for mbed::ATHandler::read_string(char*, unsigned, bool)
    .\build\at_cellularnetwork.o(i._ZN4mbed18AT_CellularNetwork23get_registration_statusENS_15CellularNetwork16RegistrationTypeERNS1_18RegistrationStatusE) refers to D:\Keil_v5\ARM\ARMCC\Bin\..\lib\armlib\c_w.l(memcmp.o)(.text) for memcmp
    .\build\at_cellularnetwork.o(i._ZN4mbed18AT_CellularNetwork23get_registration_statusENS_15CellularNetwork16RegistrationTypeERNS1_18RegistrationStatusE) refers to .\build\athandler.o(i._ZNK4mbed9ATHandler14get_last_errorEv) for mbed::ATHandler::get_last_error() const
    .\build\at_cellularnetwork.o(i._ZN4mbed18AT_CellularNetwork23get_registration_statusENS_15CellularNetwork16RegistrationTypeERNS1_18RegistrationStatusE) refers to .\build\athandler.o(i._ZN4mbed9ATHandler6unlockEv) for mbed::ATHandler::unlock()
    .\build\at_cellularnetwork.o(i._ZN4mbed18AT_CellularNetwork23get_registration_statusENS_15CellularNetwork16RegistrationTypeERNS1_18RegistrationStatusE) refers to .\build\cellularutil.o(i._ZN18mbed_cellular_util14hex_str_to_intEPKci) for mbed_cellular_util::hex_str_to_int(const char*, int)
    .\build\at_cellularnetwork.o(i._ZN4mbed18AT_CellularNetwork23get_registration_statusENS_15CellularNetwork16RegistrationTypeERNS1_18RegistrationStatusE) refers to .\build\at_cellularnetwork.o(.constdata) for .constdata
    .\build\at_cellularnetwork.o(i._ZN4mbed18AT_CellularNetwork27get_extended_signal_qualityERiS1_S1_S1_S1_S1_) refers to .\build\athandler.o(i._ZN4mbed9ATHandler4lockEv) for mbed::ATHandler::lock()
    .\build\at_cellularnetwork.o(i._ZN4mbed18AT_CellularNetwork27get_extended_signal_qualityERiS1_S1_S1_S1_S1_) refers to .\build\athandler.o(i._ZN4mbed9ATHandler9cmd_startEPKc) for mbed::ATHandler::cmd_start(const char*)
    .\build\at_cellularnetwork.o(i._ZN4mbed18AT_CellularNetwork27get_extended_signal_qualityERiS1_S1_S1_S1_S1_) refers to .\build\athandler.o(i._ZN4mbed9ATHandler8cmd_stopEv) for mbed::ATHandler::cmd_stop()
    .\build\at_cellularnetwork.o(i._ZN4mbed18AT_CellularNetwork27get_extended_signal_qualityERiS1_S1_S1_S1_S1_) refers to .\build\athandler.o(i._ZN4mbed9ATHandler10resp_startEPKcb) for mbed::ATHandler::resp_start(const char*, bool)
    .\build\at_cellularnetwork.o(i._ZN4mbed18AT_CellularNetwork27get_extended_signal_qualityERiS1_S1_S1_S1_S1_) refers to .\build\athandler.o(i._ZN4mbed9ATHandler8read_intEv) for mbed::ATHandler::read_int()
    .\build\at_cellularnetwork.o(i._ZN4mbed18AT_CellularNetwork27get_extended_signal_qualityERiS1_S1_S1_S1_S1_) refers to .\build\athandler.o(i._ZN4mbed9ATHandler9resp_stopEv) for mbed::ATHandler::resp_stop()
    .\build\at_cellularnetwork.o(i._ZN4mbed18AT_CellularNetwork27get_extended_signal_qualityERiS1_S1_S1_S1_S1_) refers to .\build\athandler.o(i._ZN4mbed9ATHandler6unlockEv) for mbed::ATHandler::unlock()
    .\build\at_cellularnetwork.o(i._ZN4mbed18AT_CellularNetwork27get_extended_signal_qualityERiS1_S1_S1_S1_S1_) refers to .\build\athandler.o(i._ZN4mbed9ATHandler19unlock_return_errorEv) for mbed::ATHandler::unlock_return_error()
    .\build\at_cellularnetwork.o(i._ZN4mbed18AT_CellularNetwork27set_context_to_be_activatedEv) refers to .\build\at_cellularnetwork.o(i._ZN4mbed18AT_CellularNetwork11get_contextEv) for mbed::AT_CellularNetwork::get_context()
    .\build\at_cellularnetwork.o(i._ZN4mbed18AT_CellularNetwork27set_context_to_be_activatedEv) refers to .\build\athandler.o(i._ZN4mbed9ATHandler9cmd_startEPKc) for mbed::ATHandler::cmd_start(const char*)
    .\build\at_cellularnetwork.o(i._ZN4mbed18AT_CellularNetwork27set_context_to_be_activatedEv) refers to .\build\athandler.o(i._ZN4mbed9ATHandler9write_intEi) for mbed::ATHandler::write_int(int)
    .\build\at_cellularnetwork.o(i._ZN4mbed18AT_CellularNetwork27set_context_to_be_activatedEv) refers to .\build\athandler.o(i._ZN4mbed9ATHandler12write_stringEPKcb) for mbed::ATHandler::write_string(const char*, bool)
    .\build\at_cellularnetwork.o(i._ZN4mbed18AT_CellularNetwork27set_context_to_be_activatedEv) refers to .\build\athandler.o(i._ZN4mbed9ATHandler8cmd_stopEv) for mbed::ATHandler::cmd_stop()
    .\build\at_cellularnetwork.o(i._ZN4mbed18AT_CellularNetwork27set_context_to_be_activatedEv) refers to .\build\athandler.o(i._ZN4mbed9ATHandler10resp_startEPKcb) for mbed::ATHandler::resp_start(const char*, bool)
    .\build\at_cellularnetwork.o(i._ZN4mbed18AT_CellularNetwork27set_context_to_be_activatedEv) refers to .\build\athandler.o(i._ZN4mbed9ATHandler9resp_stopEv) for mbed::ATHandler::resp_stop()
    .\build\at_cellularnetwork.o(i._ZN4mbed18AT_CellularNetwork27set_context_to_be_activatedEv) refers to .\build\athandler.o(i._ZNK4mbed9ATHandler14get_last_errorEv) for mbed::ATHandler::get_last_error() const
    .\build\at_cellularnetwork.o(i._ZN4mbed18AT_CellularNetwork28get_ciot_optimization_configERNS_15CellularNetwork16Supported_UE_OptERNS1_16Preferred_UE_OptE) refers to .\build\athandler.o(i._ZN4mbed9ATHandler4lockEv) for mbed::ATHandler::lock()
    .\build\at_cellularnetwork.o(i._ZN4mbed18AT_CellularNetwork28get_ciot_optimization_configERNS_15CellularNetwork16Supported_UE_OptERNS1_16Preferred_UE_OptE) refers to .\build\athandler.o(i._ZN4mbed9ATHandler9cmd_startEPKc) for mbed::ATHandler::cmd_start(const char*)
    .\build\at_cellularnetwork.o(i._ZN4mbed18AT_CellularNetwork28get_ciot_optimization_configERNS_15CellularNetwork16Supported_UE_OptERNS1_16Preferred_UE_OptE) refers to .\build\athandler.o(i._ZN4mbed9ATHandler8cmd_stopEv) for mbed::ATHandler::cmd_stop()
    .\build\at_cellularnetwork.o(i._ZN4mbed18AT_CellularNetwork28get_ciot_optimization_configERNS_15CellularNetwork16Supported_UE_OptERNS1_16Preferred_UE_OptE) refers to .\build\athandler.o(i._ZN4mbed9ATHandler10resp_startEPKcb) for mbed::ATHandler::resp_start(const char*, bool)
    .\build\at_cellularnetwork.o(i._ZN4mbed18AT_CellularNetwork28get_ciot_optimization_configERNS_15CellularNetwork16Supported_UE_OptERNS1_16Preferred_UE_OptE) refers to .\build\athandler.o(i._ZN4mbed9ATHandler8read_intEv) for mbed::ATHandler::read_int()
    .\build\at_cellularnetwork.o(i._ZN4mbed18AT_CellularNetwork28get_ciot_optimization_configERNS_15CellularNetwork16Supported_UE_OptERNS1_16Preferred_UE_OptE) refers to .\build\athandler.o(i._ZNK4mbed9ATHandler14get_last_errorEv) for mbed::ATHandler::get_last_error() const
    .\build\at_cellularnetwork.o(i._ZN4mbed18AT_CellularNetwork28get_ciot_optimization_configERNS_15CellularNetwork16Supported_UE_OptERNS1_16Preferred_UE_OptE) refers to .\build\athandler.o(i._ZN4mbed9ATHandler9resp_stopEv) for mbed::ATHandler::resp_stop()
    .\build\at_cellularnetwork.o(i._ZN4mbed18AT_CellularNetwork28get_ciot_optimization_configERNS_15CellularNetwork16Supported_UE_OptERNS1_16Preferred_UE_OptE) refers to .\build\athandler.o(i._ZN4mbed9ATHandler19unlock_return_errorEv) for mbed::ATHandler::unlock_return_error()
    .\build\at_cellularnetwork.o(i._ZN4mbed18AT_CellularNetwork28set_ciot_optimization_configENS_15CellularNetwork16Supported_UE_OptENS1_16Preferred_UE_OptE) refers to .\build\athandler.o(i._ZN4mbed9ATHandler4lockEv) for mbed::ATHandler::lock()
    .\build\at_cellularnetwork.o(i._ZN4mbed18AT_CellularNetwork28set_ciot_optimization_configENS_15CellularNetwork16Supported_UE_OptENS1_16Preferred_UE_OptE) refers to .\build\athandler.o(i._ZN4mbed9ATHandler9cmd_startEPKc) for mbed::ATHandler::cmd_start(const char*)
    .\build\at_cellularnetwork.o(i._ZN4mbed18AT_CellularNetwork28set_ciot_optimization_configENS_15CellularNetwork16Supported_UE_OptENS1_16Preferred_UE_OptE) refers to .\build\athandler.o(i._ZN4mbed9ATHandler9write_intEi) for mbed::ATHandler::write_int(int)
    .\build\at_cellularnetwork.o(i._ZN4mbed18AT_CellularNetwork28set_ciot_optimization_configENS_15CellularNetwork16Supported_UE_OptENS1_16Preferred_UE_OptE) refers to .\build\athandler.o(i._ZN4mbed9ATHandler8cmd_stopEv) for mbed::ATHandler::cmd_stop()
    .\build\at_cellularnetwork.o(i._ZN4mbed18AT_CellularNetwork28set_ciot_optimization_configENS_15CellularNetwork16Supported_UE_OptENS1_16Preferred_UE_OptE) refers to .\build\athandler.o(i._ZN4mbed9ATHandler10resp_startEPKcb) for mbed::ATHandler::resp_start(const char*, bool)
    .\build\at_cellularnetwork.o(i._ZN4mbed18AT_CellularNetwork28set_ciot_optimization_configENS_15CellularNetwork16Supported_UE_OptENS1_16Preferred_UE_OptE) refers to .\build\athandler.o(i._ZN4mbed9ATHandler9resp_stopEv) for mbed::ATHandler::resp_stop()
    .\build\at_cellularnetwork.o(i._ZN4mbed18AT_CellularNetwork28set_ciot_optimization_configENS_15CellularNetwork16Supported_UE_OptENS1_16Preferred_UE_OptE) refers to .\build\athandler.o(i._ZN4mbed9ATHandler19unlock_return_errorEv) for mbed::ATHandler::unlock_return_error()
    .\build\at_cellularnetwork.o(i._ZN4mbed18AT_CellularNetwork6attachENS_8CallbackIFv11nsapi_eventiEEE) refers to .\build\at_cellularnetwork.o(t._ZN4mbed8CallbackIFv11nsapi_eventiEED1Ev) for mbed::Callback<void(nsapi_event, int)>::~Callback()
    .\build\at_cellularnetwork.o(i._ZN4mbed18AT_CellularNetwork7connectEv) refers to .\build\athandler.o(i._ZN4mbed9ATHandler4lockEv) for mbed::ATHandler::lock()
    .\build\at_cellularnetwork.o(i._ZN4mbed18AT_CellularNetwork7connectEv) refers to .\build\at_cellularnetwork.o(t._ZNK4mbed8CallbackIFv11nsapi_eventiEEcvbEv) for mbed::Callback<void(nsapi_event, int)>::operator bool() const
    .\build\at_cellularnetwork.o(i._ZN4mbed18AT_CellularNetwork7connectEv) refers to .\build\at_cellularnetwork.o(t._ZNK4mbed8CallbackIFv11nsapi_eventiEEclES1_i) for mbed::Callback<void(nsapi_event, int)>::operator ()(nsapi_event, int) const
    .\build\at_cellularnetwork.o(i._ZN4mbed18AT_CellularNetwork7connectEv) refers to .\build\at_cellularnetwork.o(i._ZN4mbed18AT_CellularNetwork27set_context_to_be_activatedEv) for mbed::AT_CellularNetwork::set_context_to_be_activated()
    .\build\at_cellularnetwork.o(i._ZN4mbed18AT_CellularNetwork7connectEv) refers to .\build\athandler.o(i._ZN4mbed9ATHandler6unlockEv) for mbed::ATHandler::unlock()
    .\build\at_cellularnetwork.o(i._ZN4mbed18AT_CellularNetwork7connectEv) refers to .\build\at_cellularnetwork.o(i._ZN4mbed18AT_CellularNetwork17open_data_channelEv) for mbed::AT_CellularNetwork::open_data_channel()
    .\build\at_cellularnetwork.o(i._ZN4mbed18AT_CellularNetwork7connectEv) refers to .\build\at_cellularnetwork.o(i._ZN4mbed18AT_CellularNetwork22delete_current_contextEv) for mbed::AT_CellularNetwork::delete_current_context()
    .\build\at_cellularnetwork.o(i._ZN4mbed18AT_CellularNetwork9scan_plmnERNS_12CellularListINS_15CellularNetwork10operator_tEEERi) refers to .\build\athandler.o(i._ZN4mbed9ATHandler4lockEv) for mbed::ATHandler::lock()
    .\build\at_cellularnetwork.o(i._ZN4mbed18AT_CellularNetwork9scan_plmnERNS_12CellularListINS_15CellularNetwork10operator_tEEERi) refers to .\build\athandler.o(i._ZN4mbed9ATHandler9cmd_startEPKc) for mbed::ATHandler::cmd_start(const char*)
    .\build\at_cellularnetwork.o(i._ZN4mbed18AT_CellularNetwork9scan_plmnERNS_12CellularListINS_15CellularNetwork10operator_tEEERi) refers to .\build\athandler.o(i._ZN4mbed9ATHandler8cmd_stopEv) for mbed::ATHandler::cmd_stop()
    .\build\at_cellularnetwork.o(i._ZN4mbed18AT_CellularNetwork9scan_plmnERNS_12CellularListINS_15CellularNetwork10operator_tEEERi) refers to .\build\athandler.o(i._ZN4mbed9ATHandler10resp_startEPKcb) for mbed::ATHandler::resp_start(const char*, bool)
    .\build\at_cellularnetwork.o(i._ZN4mbed18AT_CellularNetwork9scan_plmnERNS_12CellularListINS_15CellularNetwork10operator_tEEERi) refers to .\build\mbed_retarget.o(i._Znwj) for operator new(unsigned)
    .\build\at_cellularnetwork.o(i._ZN4mbed18AT_CellularNetwork9scan_plmnERNS_12CellularListINS_15CellularNetwork10operator_tEEERi) refers to .\build\athandler.o(i._ZN4mbed9ATHandler8read_intEv) for mbed::ATHandler::read_int()
    .\build\at_cellularnetwork.o(i._ZN4mbed18AT_CellularNetwork9scan_plmnERNS_12CellularListINS_15CellularNetwork10operator_tEEERi) refers to .\build\athandler.o(i._ZN4mbed9ATHandler11read_stringEPcjb) for mbed::ATHandler::read_string(char*, unsigned, bool)
    .\build\at_cellularnetwork.o(i._ZN4mbed18AT_CellularNetwork9scan_plmnERNS_12CellularListINS_15CellularNetwork10operator_tEEERi) refers to .\build\mbed_retarget.o(i._ZdlPv) for operator delete (void*)
    .\build\at_cellularnetwork.o(i._ZN4mbed18AT_CellularNetwork9scan_plmnERNS_12CellularListINS_15CellularNetwork10operator_tEEERi) refers to .\build\athandler.o(i._ZN4mbed9ATHandler9info_elemEc) for mbed::ATHandler::info_elem(char)
    .\build\at_cellularnetwork.o(i._ZN4mbed18AT_CellularNetwork9scan_plmnERNS_12CellularListINS_15CellularNetwork10operator_tEEERi) refers to .\build\athandler.o(i._ZN4mbed9ATHandler9resp_stopEv) for mbed::ATHandler::resp_stop()
    .\build\at_cellularnetwork.o(i._ZN4mbed18AT_CellularNetwork9scan_plmnERNS_12CellularListINS_15CellularNetwork10operator_tEEERi) refers to .\build\athandler.o(i._ZN4mbed9ATHandler19unlock_return_errorEv) for mbed::ATHandler::unlock_return_error()
    .\build\at_cellularnetwork.o(i._ZN4mbed18AT_CellularNetworkC1ERNS_9ATHandlerE) refers to .\build\at_cellularbase.o(i._ZN4mbed15AT_CellularBaseC1ERNS_9ATHandlerE) for mbed::AT_CellularBase::AT_CellularBase(mbed::ATHandler&)
    .\build\at_cellularnetwork.o(i._ZN4mbed18AT_CellularNetworkC1ERNS_9ATHandlerE) refers to .\build\at_cellularnetwork.o(t._ZN4mbed8callbackINS_18AT_CellularNetworkES1_vEENS_8CallbackIFT1_vEEEPT0_MT_FS3_vE) for mbed::Callback<T3()> mbed::callback<mbed::AT_CellularNetwork, mbed::AT_CellularNetwork, void>(T2*, T3(T1::*)())
    .\build\at_cellularnetwork.o(i._ZN4mbed18AT_CellularNetworkC1ERNS_9ATHandlerE) refers to .\build\athandler.o(i._ZN4mbed9ATHandler15set_urc_handlerEPKcNS_8CallbackIFvvEEE) for mbed::ATHandler::set_urc_handler(const char*, mbed::Callback<void()>)
    .\build\at_cellularnetwork.o(i._ZN4mbed18AT_CellularNetworkC1ERNS_9ATHandlerE) refers to .\build\at_cellularnetwork.o(.constdata__ZTVN4mbed15CellularNetworkE) for vtable for mbed::CellularNetwork
    .\build\at_cellularnetwork.o(i._ZN4mbed18AT_CellularNetworkC1ERNS_9ATHandlerE) refers to .\build\at_cellularnetwork.o(.constdata__ZTVN4mbed18AT_CellularNetworkE) for vtable for mbed::AT_CellularNetwork
    .\build\at_cellularnetwork.o(i._ZN4mbed18AT_CellularNetworkC1ERNS_9ATHandlerE) refers to .\build\at_cellularnetwork.o(.constdata) for .constdata
    .\build\at_cellularnetwork.o(i._ZN4mbed18AT_CellularNetworkD0Ev) refers to .\build\at_cellularnetwork.o(i._ZN4mbed18AT_CellularNetworkD1Ev) for mbed::AT_CellularNetwork::~AT_CellularNetwork()
    .\build\at_cellularnetwork.o(i._ZN4mbed18AT_CellularNetworkD0Ev) refers to .\build\mbed_retarget.o(i._ZdlPv) for operator delete (void*)
    .\build\at_cellularnetwork.o(i._ZN4mbed18AT_CellularNetworkD1Ev) refers to .\build\at_cellularnetwork.o(i._ZN4mbed18AT_CellularNetwork16free_credentialsEv) for mbed::AT_CellularNetwork::free_credentials()
    .\build\at_cellularnetwork.o(i._ZN4mbed18AT_CellularNetworkD1Ev) refers to .\build\at_cellularnetwork.o(t._ZN4mbed8CallbackIFv11nsapi_eventiEED1Ev) for mbed::Callback<void(nsapi_event, int)>::~Callback()
    .\build\at_cellularnetwork.o(i._ZN4mbed18AT_CellularNetworkD1Ev) refers to .\build\at_cellularnetwork.o(.constdata__ZTVN4mbed18AT_CellularNetworkE) for vtable for mbed::AT_CellularNetwork
    .\build\at_cellularnetwork.o(.ARM.exidx) refers to .\build\at_cellularnetwork.o(i._ZN4mbed18AT_CellularNetworkC1ERNS_9ATHandlerE) for i._ZN4mbed18AT_CellularNetworkC1ERNS_9ATHandlerE
    .\build\at_cellularnetwork.o(.ARM.exidx) refers to .\build\at_cellularnetwork.o(i._ZN4mbed18AT_CellularNetwork16free_credentialsEv) for i._ZN4mbed18AT_CellularNetwork16free_credentialsEv
    .\build\at_cellularnetwork.o(.ARM.exidx) refers to .\build\at_cellularnetwork.o(i._ZN4mbed18AT_CellularNetworkD1Ev) for i._ZN4mbed18AT_CellularNetworkD1Ev
    .\build\at_cellularnetwork.o(.ARM.exidx) refers to .\build\at_cellularnetwork.o(i._ZN4mbed18AT_CellularNetworkD0Ev) for i._ZN4mbed18AT_CellularNetworkD0Ev
    .\build\at_cellularnetwork.o(.ARM.exidx) refers to .\build\at_cellularnetwork.o(i._ZN4mbed18AT_CellularNetwork15set_credentialsEPKcS2_S2_) for i._ZN4mbed18AT_CellularNetwork15set_credentialsEPKcS2_S2_
    .\build\at_cellularnetwork.o(.ARM.exidx) refers to .\build\at_cellularnetwork.o(i._ZN4mbed18AT_CellularNetwork15set_credentialsEPKcNS_15CellularNetwork18AuthenticationTypeES2_S2_) for i._ZN4mbed18AT_CellularNetwork15set_credentialsEPKcNS_15CellularNetwork18AuthenticationTypeES2_S2_
    .\build\at_cellularnetwork.o(.ARM.exidx) refers to .\build\at_cellularnetwork.o(i._ZN4mbed18AT_CellularNetwork7connectEPKcS2_S2_) for i._ZN4mbed18AT_CellularNetwork7connectEPKcS2_S2_
    .\build\at_cellularnetwork.o(.ARM.exidx) refers to .\build\at_cellularnetwork.o(i._ZN4mbed18AT_CellularNetwork22delete_current_contextEv) for i._ZN4mbed18AT_CellularNetwork22delete_current_contextEv
    .\build\at_cellularnetwork.o(.ARM.exidx) refers to .\build\at_cellularnetwork.o(i._ZN4mbed18AT_CellularNetwork17open_data_channelEv) for i._ZN4mbed18AT_CellularNetwork17open_data_channelEv
    .\build\at_cellularnetwork.o(.ARM.exidx) refers to .\build\at_cellularnetwork.o(i._ZN4mbed18AT_CellularNetwork15set_new_contextEi) for i._ZN4mbed18AT_CellularNetwork15set_new_contextEi
    .\build\at_cellularnetwork.o(.ARM.exidx) refers to .\build\at_cellularnetwork.o(i._ZN4mbed18AT_CellularNetwork20string_to_stack_typeEPKc) for i._ZN4mbed18AT_CellularNetwork20string_to_stack_typeEPKc
    .\build\at_cellularnetwork.o(.ARM.exidx) refers to .\build\at_cellularnetwork.o(i._ZN4mbed18AT_CellularNetwork11get_contextEv) for i._ZN4mbed18AT_CellularNetwork11get_contextEv
    .\build\at_cellularnetwork.o(.ARM.exidx) refers to .\build\at_cellularnetwork.o(i._ZN4mbed18AT_CellularNetwork27set_context_to_be_activatedEv) for i._ZN4mbed18AT_CellularNetwork27set_context_to_be_activatedEv
    .\build\at_cellularnetwork.o(.ARM.exidx) refers to .\build\at_cellularnetwork.o(i._ZN4mbed18AT_CellularNetwork7connectEv) for i._ZN4mbed18AT_CellularNetwork7connectEv
    .\build\at_cellularnetwork.o(.ARM.exidx) refers to .\build\at_cellularnetwork.o(i._ZN4mbed18AT_CellularNetwork10disconnectEv) for i._ZN4mbed18AT_CellularNetwork10disconnectEv
    .\build\at_cellularnetwork.o(.ARM.exidx) refers to .\build\at_cellularnetwork.o(i._ZN4mbed18AT_CellularNetwork9get_stackEv) for i._ZN4mbed18AT_CellularNetwork9get_stackEv
    .\build\at_cellularnetwork.o(.ARM.exidx) refers to .\build\at_cellularnetwork.o(i._ZN4mbed18AT_CellularNetwork20set_registration_urcEb) for i._ZN4mbed18AT_CellularNetwork20set_registration_urcEb
    .\build\at_cellularnetwork.o(.ARM.exidx) refers to .\build\at_cellularnetwork.o(i._ZN4mbed18AT_CellularNetwork16set_registrationEPKc) for i._ZN4mbed18AT_CellularNetwork16set_registrationEPKc
    .\build\at_cellularnetwork.o(.ARM.exidx) refers to .\build\at_cellularnetwork.o(i._ZN4mbed18AT_CellularNetwork23get_registration_statusENS_15CellularNetwork16RegistrationTypeERNS1_18RegistrationStatusE) for i._ZN4mbed18AT_CellularNetwork23get_registration_statusENS_15CellularNetwork16RegistrationTypeERNS1_18RegistrationStatusE
    .\build\at_cellularnetwork.o(.ARM.exidx) refers to .\build\at_cellularnetwork.o(i._ZN4mbed18AT_CellularNetwork10set_attachEi) for i._ZN4mbed18AT_CellularNetwork10set_attachEi
    .\build\at_cellularnetwork.o(.ARM.exidx) refers to .\build\at_cellularnetwork.o(i._ZN4mbed18AT_CellularNetwork10get_attachERNS_15CellularNetwork12AttachStatusE) for i._ZN4mbed18AT_CellularNetwork10get_attachERNS_15CellularNetwork12AttachStatusE
    .\build\at_cellularnetwork.o(.ARM.exidx) refers to .\build\at_cellularnetwork.o(i._ZN4mbed18AT_CellularNetwork16get_rate_controlERNS_15CellularNetwork27RateControlExceptionReportsERNS1_25RateControlUplinkTimeUnitERi) for i._ZN4mbed18AT_CellularNetwork16get_rate_controlERNS_15CellularNetwork27RateControlExceptionReportsERNS1_25RateControlUplinkTimeUnitERi
    .\build\at_cellularnetwork.o(.ARM.exidx) refers to .\build\at_cellularnetwork.o(i._ZN4mbed18AT_CellularNetwork21get_apn_backoff_timerERi) for i._ZN4mbed18AT_CellularNetwork21get_apn_backoff_timerERi
    .\build\at_cellularnetwork.o(.ARM.exidx) refers to .\build\at_cellularnetwork.o(i._ZN4mbed18AT_CellularNetwork6attachENS_8CallbackIFv11nsapi_eventiEEE) for i._ZN4mbed18AT_CellularNetwork6attachENS_8CallbackIFv11nsapi_eventiEEE
    .\build\at_cellularnetwork.o(.ARM.exidx) refers to .\build\at_cellularnetwork.o(i._ZNK4mbed18AT_CellularNetwork21get_connection_statusEv) for i._ZNK4mbed18AT_CellularNetwork21get_connection_statusEv
    .\build\at_cellularnetwork.o(.ARM.exidx) refers to .\build\at_cellularnetwork.o(i._ZN4mbed18AT_CellularNetwork12set_blockingEb) for i._ZN4mbed18AT_CellularNetwork12set_blockingEb
    .\build\at_cellularnetwork.o(.ARM.exidx) refers to .\build\at_cellularnetwork.o(i._ZN4mbed18AT_CellularNetwork14get_ip_addressEv) for i._ZN4mbed18AT_CellularNetwork14get_ip_addressEv
    .\build\at_cellularnetwork.o(.ARM.exidx) refers to .\build\at_cellularnetwork.o(i._ZN4mbed18AT_CellularNetwork21set_access_technologyENS_15CellularNetwork10operator_t21RadioAccessTechnologyE) for i._ZN4mbed18AT_CellularNetwork21set_access_technologyENS_15CellularNetwork10operator_t21RadioAccessTechnologyE
    .\build\at_cellularnetwork.o(.ARM.exidx) refers to .\build\at_cellularnetwork.o(i._ZN4mbed18AT_CellularNetwork9scan_plmnERNS_12CellularListINS_15CellularNetwork10operator_tEEERi) for i._ZN4mbed18AT_CellularNetwork9scan_plmnERNS_12CellularListINS_15CellularNetwork10operator_tEEERi
    .\build\at_cellularnetwork.o(.ARM.exidx) refers to .\build\at_cellularnetwork.o(i._ZN4mbed18AT_CellularNetwork28set_ciot_optimization_configENS_15CellularNetwork16Supported_UE_OptENS1_16Preferred_UE_OptE) for i._ZN4mbed18AT_CellularNetwork28set_ciot_optimization_configENS_15CellularNetwork16Supported_UE_OptENS1_16Preferred_UE_OptE
    .\build\at_cellularnetwork.o(.ARM.exidx) refers to .\build\at_cellularnetwork.o(i._ZN4mbed18AT_CellularNetwork28get_ciot_optimization_configERNS_15CellularNetwork16Supported_UE_OptERNS1_16Preferred_UE_OptE) for i._ZN4mbed18AT_CellularNetwork28get_ciot_optimization_configERNS_15CellularNetwork16Supported_UE_OptERNS1_16Preferred_UE_OptE
    .\build\at_cellularnetwork.o(.ARM.exidx) refers to .\build\at_cellularnetwork.o(i._ZN4mbed18AT_CellularNetwork14set_stack_typeE14nsapi_ip_stack) for i._ZN4mbed18AT_CellularNetwork14set_stack_typeE14nsapi_ip_stack
    .\build\at_cellularnetwork.o(.ARM.exidx) refers to .\build\at_cellularnetwork.o(i._ZN4mbed18AT_CellularNetwork14get_stack_typeEv) for i._ZN4mbed18AT_CellularNetwork14get_stack_typeEv
    .\build\at_cellularnetwork.o(.ARM.exidx) refers to .\build\at_cellularnetwork.o(i._ZN4mbed18AT_CellularNetwork21get_pdpcontext_paramsERNS_12CellularListINS_15CellularNetwork19pdpcontext_params_tEEE) for i._ZN4mbed18AT_CellularNetwork21get_pdpcontext_paramsERNS_12CellularListINS_15CellularNetwork19pdpcontext_params_tEEE
    .\build\at_cellularnetwork.o(.ARM.exidx) refers to .\build\at_cellularnetwork.o(i._ZN4mbed18AT_CellularNetwork27get_extended_signal_qualityERiS1_S1_S1_S1_S1_) for i._ZN4mbed18AT_CellularNetwork27get_extended_signal_qualityERiS1_S1_S1_S1_S1_
    .\build\at_cellularnetwork.o(.ARM.exidx) refers to .\build\at_cellularnetwork.o(i._ZN4mbed18AT_CellularNetwork18get_signal_qualityERiS1_) for i._ZN4mbed18AT_CellularNetwork18get_signal_qualityERiS1_
    .\build\at_cellularnetwork.o(.ARM.exidx) refers to .\build\at_cellularnetwork.o(i._ZN4mbed18AT_CellularNetwork11get_cell_idERi) for i._ZN4mbed18AT_CellularNetwork11get_cell_idERi
    .\build\at_cellularnetwork.o(.ARM.exidx) refers to .\build\at_cellularnetwork.o(i._ZN4mbed18AT_CellularNetwork14get_3gpp_errorEv) for i._ZN4mbed18AT_CellularNetwork14get_3gpp_errorEv
    .\build\at_cellularnetwork.o(.ARM.exidx) refers to .\build\at_cellularnetwork.o(i._ZN4mbed18AT_CellularNetwork19get_operator_paramsERiRNS_15CellularNetwork10operator_tE) for i._ZN4mbed18AT_CellularNetwork19get_operator_paramsERiRNS_15CellularNetwork10operator_tE
    .\build\at_cellularnetwork.o(.ARM.exidx) refers to .\build\at_cellularnetwork.o(i._ZN4mbed18AT_CellularNetwork20get_modem_stack_typeE14nsapi_ip_stack) for i._ZN4mbed18AT_CellularNetwork20get_modem_stack_typeE14nsapi_ip_stack
    .\build\at_cellularnetwork.o(.ARM.exidx) refers to .\build\at_cellularnetwork.o(i._ZN4mbed18AT_CellularNetwork16has_registrationENS_15CellularNetwork16RegistrationTypeE) for i._ZN4mbed18AT_CellularNetwork16has_registrationENS_15CellularNetwork16RegistrationTypeE
    .\build\at_cellularnetwork.o(.ARM.exidx) refers to .\build\at_cellularnetwork.o(i._ZN4mbed18AT_CellularNetwork26set_access_technology_implENS_15CellularNetwork10operator_t21RadioAccessTechnologyE) for i._ZN4mbed18AT_CellularNetwork26set_access_technology_implENS_15CellularNetwork10operator_t21RadioAccessTechnologyE
    .\build\at_cellularnetwork.o(.ARM.exidx) refers to .\build\at_cellularnetwork.o(i._ZN4mbed18AT_CellularNetwork14urc_no_carrierEv) for i._ZN4mbed18AT_CellularNetwork14urc_no_carrierEv
    .\build\at_cellularnetwork.o(.constdata) refers to .\build\at_cellularnetwork.o(i._ZN4mbed18AT_CellularNetwork14urc_no_carrierEv) for mbed::AT_CellularNetwork::urc_no_carrier()
    .\build\at_cellularnetwork.o(.constdata) refers to .\build\at_cellularnetwork.o(.conststring) for .conststring
    .\build\at_cellularpower.o(i._ZN4mbed16AT_CellularPower11set_at_modeEv) refers to .\build\athandler.o(i._ZN4mbed9ATHandler4lockEv) for mbed::ATHandler::lock()
    .\build\at_cellularpower.o(i._ZN4mbed16AT_CellularPower11set_at_modeEv) refers to .\build\athandler.o(i._ZN4mbed9ATHandler5flushEv) for mbed::ATHandler::flush()
    .\build\at_cellularpower.o(i._ZN4mbed16AT_CellularPower11set_at_modeEv) refers to .\build\athandler.o(i._ZN4mbed9ATHandler9cmd_startEPKc) for mbed::ATHandler::cmd_start(const char*)
    .\build\at_cellularpower.o(i._ZN4mbed16AT_CellularPower11set_at_modeEv) refers to .\build\athandler.o(i._ZN4mbed9ATHandler8cmd_stopEv) for mbed::ATHandler::cmd_stop()
    .\build\at_cellularpower.o(i._ZN4mbed16AT_CellularPower11set_at_modeEv) refers to .\build\athandler.o(i._ZN4mbed9ATHandler10resp_startEPKcb) for mbed::ATHandler::resp_start(const char*, bool)
    .\build\at_cellularpower.o(i._ZN4mbed16AT_CellularPower11set_at_modeEv) refers to .\build\athandler.o(i._ZN4mbed9ATHandler9resp_stopEv) for mbed::ATHandler::resp_stop()
    .\build\at_cellularpower.o(i._ZN4mbed16AT_CellularPower11set_at_modeEv) refers to .\build\athandler.o(i._ZN4mbed9ATHandler19unlock_return_errorEv) for mbed::ATHandler::unlock_return_error()
    .\build\at_cellularpower.o(i._ZN4mbed16AT_CellularPower15set_power_levelEi) refers to .\build\athandler.o(i._ZN4mbed9ATHandler4lockEv) for mbed::ATHandler::lock()
    .\build\at_cellularpower.o(i._ZN4mbed16AT_CellularPower15set_power_levelEi) refers to .\build\athandler.o(i._ZN4mbed9ATHandler9cmd_startEPKc) for mbed::ATHandler::cmd_start(const char*)
    .\build\at_cellularpower.o(i._ZN4mbed16AT_CellularPower15set_power_levelEi) refers to .\build\athandler.o(i._ZN4mbed9ATHandler9write_intEi) for mbed::ATHandler::write_int(int)
    .\build\at_cellularpower.o(i._ZN4mbed16AT_CellularPower15set_power_levelEi) refers to .\build\athandler.o(i._ZN4mbed9ATHandler8cmd_stopEv) for mbed::ATHandler::cmd_stop()
    .\build\at_cellularpower.o(i._ZN4mbed16AT_CellularPower15set_power_levelEi) refers to .\build\athandler.o(i._ZN4mbed9ATHandler10resp_startEPKcb) for mbed::ATHandler::resp_start(const char*, bool)
    .\build\at_cellularpower.o(i._ZN4mbed16AT_CellularPower15set_power_levelEi) refers to .\build\athandler.o(i._ZN4mbed9ATHandler9resp_stopEv) for mbed::ATHandler::resp_stop()
    .\build\at_cellularpower.o(i._ZN4mbed16AT_CellularPower15set_power_levelEi) refers to .\build\athandler.o(i._ZN4mbed9ATHandler19unlock_return_errorEv) for mbed::ATHandler::unlock_return_error()
    .\build\at_cellularpower.o(i._ZN4mbed16AT_CellularPower18opt_receive_periodEiNS_13CellularPower20EDRXAccessTechnologyEh) refers to .\build\cellularutil.o(i._ZN18mbed_cellular_util18uint_to_binary_strEjPcii) for mbed_cellular_util::uint_to_binary_str(unsigned, char*, int, int)
    .\build\at_cellularpower.o(i._ZN4mbed16AT_CellularPower18opt_receive_periodEiNS_13CellularPower20EDRXAccessTechnologyEh) refers to .\build\athandler.o(i._ZN4mbed9ATHandler4lockEv) for mbed::ATHandler::lock()
    .\build\at_cellularpower.o(i._ZN4mbed16AT_CellularPower18opt_receive_periodEiNS_13CellularPower20EDRXAccessTechnologyEh) refers to .\build\athandler.o(i._ZN4mbed9ATHandler9cmd_startEPKc) for mbed::ATHandler::cmd_start(const char*)
    .\build\at_cellularpower.o(i._ZN4mbed16AT_CellularPower18opt_receive_periodEiNS_13CellularPower20EDRXAccessTechnologyEh) refers to .\build\athandler.o(i._ZN4mbed9ATHandler9write_intEi) for mbed::ATHandler::write_int(int)
    .\build\at_cellularpower.o(i._ZN4mbed16AT_CellularPower18opt_receive_periodEiNS_13CellularPower20EDRXAccessTechnologyEh) refers to .\build\athandler.o(i._ZN4mbed9ATHandler12write_stringEPKcb) for mbed::ATHandler::write_string(const char*, bool)
    .\build\at_cellularpower.o(i._ZN4mbed16AT_CellularPower18opt_receive_periodEiNS_13CellularPower20EDRXAccessTechnologyEh) refers to .\build\athandler.o(i._ZN4mbed9ATHandler8cmd_stopEv) for mbed::ATHandler::cmd_stop()
    .\build\at_cellularpower.o(i._ZN4mbed16AT_CellularPower18opt_receive_periodEiNS_13CellularPower20EDRXAccessTechnologyEh) refers to .\build\athandler.o(i._ZN4mbed9ATHandler10resp_startEPKcb) for mbed::ATHandler::resp_start(const char*, bool)
    .\build\at_cellularpower.o(i._ZN4mbed16AT_CellularPower18opt_receive_periodEiNS_13CellularPower20EDRXAccessTechnologyEh) refers to .\build\athandler.o(i._ZN4mbed9ATHandler9resp_stopEv) for mbed::ATHandler::resp_stop()
    .\build\at_cellularpower.o(i._ZN4mbed16AT_CellularPower18opt_receive_periodEiNS_13CellularPower20EDRXAccessTechnologyEh) refers to .\build\athandler.o(i._ZN4mbed9ATHandler19unlock_return_errorEv) for mbed::ATHandler::unlock_return_error()
    .\build\at_cellularpower.o(i._ZN4mbed16AT_CellularPower19opt_power_save_modeEii) refers to .\build\athandler.o(i._ZN4mbed9ATHandler4lockEv) for mbed::ATHandler::lock()
    .\build\at_cellularpower.o(i._ZN4mbed16AT_CellularPower19opt_power_save_modeEii) refers to D:\Keil_v5\ARM\ARMCC\Bin\..\lib\armlib\c_w.l(strcpy.o)(.text) for strcpy
    .\build\at_cellularpower.o(i._ZN4mbed16AT_CellularPower19opt_power_save_modeEii) refers to .\build\athandler.o(i._ZN4mbed9ATHandler9cmd_startEPKc) for mbed::ATHandler::cmd_start(const char*)
    .\build\at_cellularpower.o(i._ZN4mbed16AT_CellularPower19opt_power_save_modeEii) refers to .\build\athandler.o(i._ZN4mbed9ATHandler9write_intEi) for mbed::ATHandler::write_int(int)
    .\build\at_cellularpower.o(i._ZN4mbed16AT_CellularPower19opt_power_save_modeEii) refers to .\build\athandler.o(i._ZN4mbed9ATHandler8cmd_stopEv) for mbed::ATHandler::cmd_stop()
    .\build\at_cellularpower.o(i._ZN4mbed16AT_CellularPower19opt_power_save_modeEii) refers to .\build\athandler.o(i._ZN4mbed9ATHandler10resp_startEPKcb) for mbed::ATHandler::resp_start(const char*, bool)
    .\build\at_cellularpower.o(i._ZN4mbed16AT_CellularPower19opt_power_save_modeEii) refers to .\build\athandler.o(i._ZN4mbed9ATHandler9resp_stopEv) for mbed::ATHandler::resp_stop()
    .\build\at_cellularpower.o(i._ZN4mbed16AT_CellularPower19opt_power_save_modeEii) refers to .\build\cellularutil.o(i._ZN18mbed_cellular_util18uint_to_binary_strEjPcii) for mbed_cellular_util::uint_to_binary_str(unsigned, char*, int, int)
    .\build\at_cellularpower.o(i._ZN4mbed16AT_CellularPower19opt_power_save_modeEii) refers to .\build\athandler.o(i._ZN4mbed9ATHandler12write_stringEPKcb) for mbed::ATHandler::write_string(const char*, bool)
    .\build\at_cellularpower.o(i._ZN4mbed16AT_CellularPower19opt_power_save_modeEii) refers to .\build\athandler.o(i._ZNK4mbed9ATHandler14get_last_errorEv) for mbed::ATHandler::get_last_error() const
    .\build\at_cellularpower.o(i._ZN4mbed16AT_CellularPower19opt_power_save_modeEii) refers to .\build\athandler.o(i._ZN4mbed9ATHandler19unlock_return_errorEv) for mbed::ATHandler::unlock_return_error()
    .\build\at_cellularpower.o(i._ZN4mbed16AT_CellularPower5resetEv) refers to .\build\athandler.o(i._ZN4mbed9ATHandler4lockEv) for mbed::ATHandler::lock()
    .\build\at_cellularpower.o(i._ZN4mbed16AT_CellularPower5resetEv) refers to .\build\athandler.o(i._ZN4mbed9ATHandler9cmd_startEPKc) for mbed::ATHandler::cmd_start(const char*)
    .\build\at_cellularpower.o(i._ZN4mbed16AT_CellularPower5resetEv) refers to .\build\athandler.o(i._ZN4mbed9ATHandler9write_intEi) for mbed::ATHandler::write_int(int)
    .\build\at_cellularpower.o(i._ZN4mbed16AT_CellularPower5resetEv) refers to .\build\athandler.o(i._ZN4mbed9ATHandler8cmd_stopEv) for mbed::ATHandler::cmd_stop()
    .\build\at_cellularpower.o(i._ZN4mbed16AT_CellularPower5resetEv) refers to .\build\athandler.o(i._ZN4mbed9ATHandler10resp_startEPKcb) for mbed::ATHandler::resp_start(const char*, bool)
    .\build\at_cellularpower.o(i._ZN4mbed16AT_CellularPower5resetEv) refers to .\build\athandler.o(i._ZN4mbed9ATHandler9resp_stopEv) for mbed::ATHandler::resp_stop()
    .\build\at_cellularpower.o(i._ZN4mbed16AT_CellularPower5resetEv) refers to .\build\athandler.o(i._ZN4mbed9ATHandler19unlock_return_errorEv) for mbed::ATHandler::unlock_return_error()
    .\build\at_cellularpower.o(i._ZN4mbed16AT_CellularPowerC1ERNS_9ATHandlerE) refers to .\build\at_cellularbase.o(i._ZN4mbed15AT_CellularBaseC1ERNS_9ATHandlerE) for mbed::AT_CellularBase::AT_CellularBase(mbed::ATHandler&)
    .\build\at_cellularpower.o(i._ZN4mbed16AT_CellularPowerC1ERNS_9ATHandlerE) refers to .\build\at_cellularpower.o(.constdata__ZTVN4mbed13CellularPowerE) for vtable for mbed::CellularPower
    .\build\at_cellularpower.o(i._ZN4mbed16AT_CellularPowerC1ERNS_9ATHandlerE) refers to .\build\at_cellularpower.o(.constdata__ZTVN4mbed16AT_CellularPowerE) for vtable for mbed::AT_CellularPower
    .\build\at_cellularpower.o(i._ZN4mbed16AT_CellularPowerD0Ev) refers to .\build\at_cellularpower.o(i._ZN4mbed16AT_CellularPowerD1Ev) for mbed::AT_CellularPower::~AT_CellularPower()
    .\build\at_cellularpower.o(i._ZN4mbed16AT_CellularPowerD0Ev) refers to .\build\mbed_retarget.o(i._ZdlPv) for operator delete (void*)
    .\build\at_cellularpower.o(.ARM.exidx) refers to .\build\at_cellularpower.o(i._ZN4mbed16AT_CellularPowerC1ERNS_9ATHandlerE) for i._ZN4mbed16AT_CellularPowerC1ERNS_9ATHandlerE
    .\build\at_cellularpower.o(.ARM.exidx) refers to .\build\at_cellularpower.o(i._ZN4mbed16AT_CellularPowerD1Ev) for i._ZN4mbed16AT_CellularPowerD1Ev
    .\build\at_cellularpower.o(.ARM.exidx) refers to .\build\at_cellularpower.o(i._ZN4mbed16AT_CellularPowerD0Ev) for i._ZN4mbed16AT_CellularPowerD0Ev
    .\build\at_cellularpower.o(.ARM.exidx) refers to .\build\at_cellularpower.o(i._ZN4mbed16AT_CellularPower2onEv) for i._ZN4mbed16AT_CellularPower2onEv
    .\build\at_cellularpower.o(.ARM.exidx) refers to .\build\at_cellularpower.o(i._ZN4mbed16AT_CellularPower3offEv) for i._ZN4mbed16AT_CellularPower3offEv
    .\build\at_cellularpower.o(.ARM.exidx) refers to .\build\at_cellularpower.o(i._ZN4mbed16AT_CellularPower11set_at_modeEv) for i._ZN4mbed16AT_CellularPower11set_at_modeEv
    .\build\at_cellularpower.o(.ARM.exidx) refers to .\build\at_cellularpower.o(i._ZN4mbed16AT_CellularPower15set_power_levelEi) for i._ZN4mbed16AT_CellularPower15set_power_levelEi
    .\build\at_cellularpower.o(.ARM.exidx) refers to .\build\at_cellularpower.o(i._ZN4mbed16AT_CellularPower5resetEv) for i._ZN4mbed16AT_CellularPower5resetEv
    .\build\at_cellularpower.o(.ARM.exidx) refers to .\build\at_cellularpower.o(i._ZN4mbed16AT_CellularPower19opt_power_save_modeEii) for i._ZN4mbed16AT_CellularPower19opt_power_save_modeEii
    .\build\at_cellularpower.o(.ARM.exidx) refers to .\build\at_cellularpower.o(i._ZN4mbed16AT_CellularPower18opt_receive_periodEiNS_13CellularPower20EDRXAccessTechnologyEh) for i._ZN4mbed16AT_CellularPower18opt_receive_periodEiNS_13CellularPower20EDRXAccessTechnologyEh
    .\build\at_cellularsim.o(i._ZN4mbed14AT_CellularSIM10change_pinEPKcS2_) refers to .\build\athandler.o(i._ZN4mbed9ATHandler4lockEv) for mbed::ATHandler::lock()
    .\build\at_cellularsim.o(i._ZN4mbed14AT_CellularSIM10change_pinEPKcS2_) refers to .\build\athandler.o(i._ZN4mbed9ATHandler9cmd_startEPKc) for mbed::ATHandler::cmd_start(const char*)
    .\build\at_cellularsim.o(i._ZN4mbed14AT_CellularSIM10change_pinEPKcS2_) refers to .\build\athandler.o(i._ZN4mbed9ATHandler12write_stringEPKcb) for mbed::ATHandler::write_string(const char*, bool)
    .\build\at_cellularsim.o(i._ZN4mbed14AT_CellularSIM10change_pinEPKcS2_) refers to .\build\athandler.o(i._ZN4mbed9ATHandler8cmd_stopEv) for mbed::ATHandler::cmd_stop()
    .\build\at_cellularsim.o(i._ZN4mbed14AT_CellularSIM10change_pinEPKcS2_) refers to .\build\athandler.o(i._ZN4mbed9ATHandler10resp_startEPKcb) for mbed::ATHandler::resp_start(const char*, bool)
    .\build\at_cellularsim.o(i._ZN4mbed14AT_CellularSIM10change_pinEPKcS2_) refers to .\build\athandler.o(i._ZN4mbed9ATHandler9resp_stopEv) for mbed::ATHandler::resp_stop()
    .\build\at_cellularsim.o(i._ZN4mbed14AT_CellularSIM10change_pinEPKcS2_) refers to .\build\athandler.o(i._ZN4mbed9ATHandler19unlock_return_errorEv) for mbed::ATHandler::unlock_return_error()
    .\build\at_cellularsim.o(i._ZN4mbed14AT_CellularSIM13get_sim_stateERNS_11CellularSIM8SimStateE) refers to .\build\athandler.o(i._ZN4mbed9ATHandler4lockEv) for mbed::ATHandler::lock()
    .\build\at_cellularsim.o(i._ZN4mbed14AT_CellularSIM13get_sim_stateERNS_11CellularSIM8SimStateE) refers to .\build\athandler.o(i._ZN4mbed9ATHandler5flushEv) for mbed::ATHandler::flush()
    .\build\at_cellularsim.o(i._ZN4mbed14AT_CellularSIM13get_sim_stateERNS_11CellularSIM8SimStateE) refers to .\build\athandler.o(i._ZN4mbed9ATHandler9cmd_startEPKc) for mbed::ATHandler::cmd_start(const char*)
    .\build\at_cellularsim.o(i._ZN4mbed14AT_CellularSIM13get_sim_stateERNS_11CellularSIM8SimStateE) refers to .\build\athandler.o(i._ZN4mbed9ATHandler8cmd_stopEv) for mbed::ATHandler::cmd_stop()
    .\build\at_cellularsim.o(i._ZN4mbed14AT_CellularSIM13get_sim_stateERNS_11CellularSIM8SimStateE) refers to .\build\athandler.o(i._ZN4mbed9ATHandler10resp_startEPKcb) for mbed::ATHandler::resp_start(const char*, bool)
    .\build\at_cellularsim.o(i._ZN4mbed14AT_CellularSIM13get_sim_stateERNS_11CellularSIM8SimStateE) refers to .\build\athandler.o(i._ZN4mbed9ATHandler11read_stringEPcjb) for mbed::ATHandler::read_string(char*, unsigned, bool)
    .\build\at_cellularsim.o(i._ZN4mbed14AT_CellularSIM13get_sim_stateERNS_11CellularSIM8SimStateE) refers to D:\Keil_v5\ARM\ARMCC\Bin\..\lib\armlib\c_w.l(memcmp.o)(.text) for memcmp
    .\build\at_cellularsim.o(i._ZN4mbed14AT_CellularSIM13get_sim_stateERNS_11CellularSIM8SimStateE) refers to .\build\athandler.o(i._ZN4mbed9ATHandler9resp_stopEv) for mbed::ATHandler::resp_stop()
    .\build\at_cellularsim.o(i._ZN4mbed14AT_CellularSIM13get_sim_stateERNS_11CellularSIM8SimStateE) refers to .\build\athandler.o(i._ZN4mbed9ATHandler19unlock_return_errorEv) for mbed::ATHandler::unlock_return_error()
    .\build\at_cellularsim.o(i._ZN4mbed14AT_CellularSIM13set_pin_queryEPKcb) refers to .\build\athandler.o(i._ZN4mbed9ATHandler4lockEv) for mbed::ATHandler::lock()
    .\build\at_cellularsim.o(i._ZN4mbed14AT_CellularSIM13set_pin_queryEPKcb) refers to .\build\athandler.o(i._ZN4mbed9ATHandler9cmd_startEPKc) for mbed::ATHandler::cmd_start(const char*)
    .\build\at_cellularsim.o(i._ZN4mbed14AT_CellularSIM13set_pin_queryEPKcb) refers to .\build\athandler.o(i._ZN4mbed9ATHandler12write_stringEPKcb) for mbed::ATHandler::write_string(const char*, bool)
    .\build\at_cellularsim.o(i._ZN4mbed14AT_CellularSIM13set_pin_queryEPKcb) refers to .\build\athandler.o(i._ZN4mbed9ATHandler9write_intEi) for mbed::ATHandler::write_int(int)
    .\build\at_cellularsim.o(i._ZN4mbed14AT_CellularSIM13set_pin_queryEPKcb) refers to .\build\athandler.o(i._ZN4mbed9ATHandler8cmd_stopEv) for mbed::ATHandler::cmd_stop()
    .\build\at_cellularsim.o(i._ZN4mbed14AT_CellularSIM13set_pin_queryEPKcb) refers to .\build\athandler.o(i._ZN4mbed9ATHandler10resp_startEPKcb) for mbed::ATHandler::resp_start(const char*, bool)
    .\build\at_cellularsim.o(i._ZN4mbed14AT_CellularSIM13set_pin_queryEPKcb) refers to .\build\athandler.o(i._ZN4mbed9ATHandler9resp_stopEv) for mbed::ATHandler::resp_stop()
    .\build\at_cellularsim.o(i._ZN4mbed14AT_CellularSIM13set_pin_queryEPKcb) refers to .\build\athandler.o(i._ZN4mbed9ATHandler19unlock_return_errorEv) for mbed::ATHandler::unlock_return_error()
    .\build\at_cellularsim.o(i._ZN4mbed14AT_CellularSIM7set_pinEPKc) refers to .\build\athandler.o(i._ZN4mbed9ATHandler4lockEv) for mbed::ATHandler::lock()
    .\build\at_cellularsim.o(i._ZN4mbed14AT_CellularSIM7set_pinEPKc) refers to .\build\athandler.o(i._ZN4mbed9ATHandler9cmd_startEPKc) for mbed::ATHandler::cmd_start(const char*)
    .\build\at_cellularsim.o(i._ZN4mbed14AT_CellularSIM7set_pinEPKc) refers to .\build\athandler.o(i._ZN4mbed9ATHandler12write_stringEPKcb) for mbed::ATHandler::write_string(const char*, bool)
    .\build\at_cellularsim.o(i._ZN4mbed14AT_CellularSIM7set_pinEPKc) refers to .\build\athandler.o(i._ZN4mbed9ATHandler8cmd_stopEv) for mbed::ATHandler::cmd_stop()
    .\build\at_cellularsim.o(i._ZN4mbed14AT_CellularSIM7set_pinEPKc) refers to .\build\athandler.o(i._ZN4mbed9ATHandler10resp_startEPKcb) for mbed::ATHandler::resp_start(const char*, bool)
    .\build\at_cellularsim.o(i._ZN4mbed14AT_CellularSIM7set_pinEPKc) refers to .\build\athandler.o(i._ZN4mbed9ATHandler9resp_stopEv) for mbed::ATHandler::resp_stop()
    .\build\at_cellularsim.o(i._ZN4mbed14AT_CellularSIM7set_pinEPKc) refers to .\build\athandler.o(i._ZN4mbed9ATHandler19unlock_return_errorEv) for mbed::ATHandler::unlock_return_error()
    .\build\at_cellularsim.o(i._ZN4mbed14AT_CellularSIM8get_imsiEPc) refers to .\build\athandler.o(i._ZN4mbed9ATHandler4lockEv) for mbed::ATHandler::lock()
    .\build\at_cellularsim.o(i._ZN4mbed14AT_CellularSIM8get_imsiEPc) refers to .\build\athandler.o(i._ZN4mbed9ATHandler9cmd_startEPKc) for mbed::ATHandler::cmd_start(const char*)
    .\build\at_cellularsim.o(i._ZN4mbed14AT_CellularSIM8get_imsiEPc) refers to .\build\athandler.o(i._ZN4mbed9ATHandler8cmd_stopEv) for mbed::ATHandler::cmd_stop()
    .\build\at_cellularsim.o(i._ZN4mbed14AT_CellularSIM8get_imsiEPc) refers to .\build\athandler.o(i._ZN4mbed9ATHandler10resp_startEPKcb) for mbed::ATHandler::resp_start(const char*, bool)
    .\build\at_cellularsim.o(i._ZN4mbed14AT_CellularSIM8get_imsiEPc) refers to .\build\athandler.o(i._ZN4mbed9ATHandler11read_stringEPcjb) for mbed::ATHandler::read_string(char*, unsigned, bool)
    .\build\at_cellularsim.o(i._ZN4mbed14AT_CellularSIM8get_imsiEPc) refers to .\build\athandler.o(i._ZN4mbed9ATHandler9resp_stopEv) for mbed::ATHandler::resp_stop()
    .\build\at_cellularsim.o(i._ZN4mbed14AT_CellularSIM8get_imsiEPc) refers to .\build\athandler.o(i._ZN4mbed9ATHandler19unlock_return_errorEv) for mbed::ATHandler::unlock_return_error()
    .\build\at_cellularsim.o(i._ZN4mbed14AT_CellularSIMC1ERNS_9ATHandlerE) refers to .\build\at_cellularbase.o(i._ZN4mbed15AT_CellularBaseC1ERNS_9ATHandlerE) for mbed::AT_CellularBase::AT_CellularBase(mbed::ATHandler&)
    .\build\at_cellularsim.o(i._ZN4mbed14AT_CellularSIMC1ERNS_9ATHandlerE) refers to .\build\at_cellularsim.o(.constdata__ZTVN4mbed11CellularSIME) for vtable for mbed::CellularSIM
    .\build\at_cellularsim.o(i._ZN4mbed14AT_CellularSIMC1ERNS_9ATHandlerE) refers to .\build\at_cellularsim.o(.constdata__ZTVN4mbed14AT_CellularSIME) for vtable for mbed::AT_CellularSIM
    .\build\at_cellularsim.o(i._ZN4mbed14AT_CellularSIMD0Ev) refers to .\build\at_cellularsim.o(i._ZN4mbed14AT_CellularSIMD1Ev) for mbed::AT_CellularSIM::~AT_CellularSIM()
    .\build\at_cellularsim.o(i._ZN4mbed14AT_CellularSIMD0Ev) refers to .\build\mbed_retarget.o(i._ZdlPv) for operator delete (void*)
    .\build\at_cellularsim.o(.ARM.exidx) refers to .\build\at_cellularsim.o(i._ZN4mbed14AT_CellularSIMC1ERNS_9ATHandlerE) for i._ZN4mbed14AT_CellularSIMC1ERNS_9ATHandlerE
    .\build\at_cellularsim.o(.ARM.exidx) refers to .\build\at_cellularsim.o(i._ZN4mbed14AT_CellularSIMD1Ev) for i._ZN4mbed14AT_CellularSIMD1Ev
    .\build\at_cellularsim.o(.ARM.exidx) refers to .\build\at_cellularsim.o(i._ZN4mbed14AT_CellularSIMD0Ev) for i._ZN4mbed14AT_CellularSIMD0Ev
    .\build\at_cellularsim.o(.ARM.exidx) refers to .\build\at_cellularsim.o(i._ZN4mbed14AT_CellularSIM7set_pinEPKc) for i._ZN4mbed14AT_CellularSIM7set_pinEPKc
    .\build\at_cellularsim.o(.ARM.exidx) refers to .\build\at_cellularsim.o(i._ZN4mbed14AT_CellularSIM10change_pinEPKcS2_) for i._ZN4mbed14AT_CellularSIM10change_pinEPKcS2_
    .\build\at_cellularsim.o(.ARM.exidx) refers to .\build\at_cellularsim.o(i._ZN4mbed14AT_CellularSIM13set_pin_queryEPKcb) for i._ZN4mbed14AT_CellularSIM13set_pin_queryEPKcb
    .\build\at_cellularsim.o(.ARM.exidx) refers to .\build\at_cellularsim.o(i._ZN4mbed14AT_CellularSIM13get_sim_stateERNS_11CellularSIM8SimStateE) for i._ZN4mbed14AT_CellularSIM13get_sim_stateERNS_11CellularSIM8SimStateE
    .\build\at_cellularsim.o(.ARM.exidx) refers to .\build\at_cellularsim.o(i._ZN4mbed14AT_CellularSIM8get_imsiEPc) for i._ZN4mbed14AT_CellularSIM8get_imsiEPc
    .\build\at_cellularsms.o(i._ZN4mbed14AT_CellularSMS10create_pduEPKcS2_hhhRh) refers to D:\Keil_v5\ARM\ARMCC\Bin\..\lib\armlib\c_w.l(strlen.o)(.text) for strlen
    .\build\at_cellularsms.o(i._ZN4mbed14AT_CellularSMS10create_pduEPKcS2_hhhRh) refers to D:\Keil_v5\ARM\ARMCC\Bin\..\lib\armlib\c_w.l(calloc.o)(.text) for calloc
    .\build\at_cellularsms.o(i._ZN4mbed14AT_CellularSMS10create_pduEPKcS2_hhhRh) refers to .\build\cellularutil.o(i._ZN18mbed_cellular_util14int_to_hex_strEhPc) for mbed_cellular_util::int_to_hex_str(unsigned char, char*)
    .\build\at_cellularsms.o(i._ZN4mbed14AT_CellularSMS10create_pduEPKcS2_hhhRh) refers to .\build\cellularutil.o(i._ZN18mbed_cellular_util19char_str_to_hex_strEPKctPcb) for mbed_cellular_util::char_str_to_hex_str(const char*, unsigned short, char*, bool)
    .\build\at_cellularsms.o(i._ZN4mbed14AT_CellularSMS10create_pduEPKcS2_hhhRh) refers to .\build\at_cellularsms.o(i._ZN4mbed14AT_CellularSMS22pack_7_bit_gsm_and_hexEPKctPci) for mbed::AT_CellularSMS::pack_7_bit_gsm_and_hex(const char*, unsigned short, char*, int)
    .\build\at_cellularsms.o(i._ZN4mbed14AT_CellularSMS10create_pduEPKcS2_hhhRh) refers to D:\Keil_v5\ARM\ARMCC\Bin\..\lib\armlib\c_w.l(h1_free_mt.o)(.text) for free
    .\build\at_cellularsms.o(i._ZN4mbed14AT_CellularSMS10delete_smsEPNS0_10sms_info_tE) refers to .\build\athandler.o(i._ZN4mbed9ATHandler4lockEv) for mbed::ATHandler::lock()
    .\build\at_cellularsms.o(i._ZN4mbed14AT_CellularSMS10delete_smsEPNS0_10sms_info_tE) refers to .\build\athandler.o(i._ZN4mbed9ATHandler9cmd_startEPKc) for mbed::ATHandler::cmd_start(const char*)
    .\build\at_cellularsms.o(i._ZN4mbed14AT_CellularSMS10delete_smsEPNS0_10sms_info_tE) refers to .\build\athandler.o(i._ZN4mbed9ATHandler9write_intEi) for mbed::ATHandler::write_int(int)
    .\build\at_cellularsms.o(i._ZN4mbed14AT_CellularSMS10delete_smsEPNS0_10sms_info_tE) refers to .\build\athandler.o(i._ZN4mbed9ATHandler8cmd_stopEv) for mbed::ATHandler::cmd_stop()
    .\build\at_cellularsms.o(i._ZN4mbed14AT_CellularSMS10delete_smsEPNS0_10sms_info_tE) refers to .\build\athandler.o(i._ZN4mbed9ATHandler10resp_startEPKcb) for mbed::ATHandler::resp_start(const char*, bool)
    .\build\at_cellularsms.o(i._ZN4mbed14AT_CellularSMS10delete_smsEPNS0_10sms_info_tE) refers to .\build\athandler.o(i._ZN4mbed9ATHandler9resp_stopEv) for mbed::ATHandler::resp_stop()
    .\build\at_cellularsms.o(i._ZN4mbed14AT_CellularSMS10delete_smsEPNS0_10sms_info_tE) refers to .\build\athandler.o(i._ZN4mbed9ATHandler19unlock_return_errorEv) for mbed::ATHandler::unlock_return_error()
    .\build\at_cellularsms.o(i._ZN4mbed14AT_CellularSMS10initializeENS_11CellularSMS16CellularSMSMmodeE) refers to .\build\athandler.o(i._ZN4mbed9ATHandler4lockEv) for mbed::ATHandler::lock()
    .\build\at_cellularsms.o(i._ZN4mbed14AT_CellularSMS10initializeENS_11CellularSMS16CellularSMSMmodeE) refers to .\build\at_cellularsms.o(i._ZN4mbed14AT_CellularSMS8set_cnmiEv) for mbed::AT_CellularSMS::set_cnmi()
    .\build\at_cellularsms.o(i._ZN4mbed14AT_CellularSMS10initializeENS_11CellularSMS16CellularSMSMmodeE) refers to .\build\at_cellularsms.o(i._ZN4mbed14AT_CellularSMS8set_cmgfEi) for mbed::AT_CellularSMS::set_cmgf(int)
    .\build\at_cellularsms.o(i._ZN4mbed14AT_CellularSMS10initializeENS_11CellularSMS16CellularSMSMmodeE) refers to .\build\at_cellularsms.o(i._ZN4mbed14AT_CellularSMS8set_csmpEiiii) for mbed::AT_CellularSMS::set_csmp(int, int, int, int)
    .\build\at_cellularsms.o(i._ZN4mbed14AT_CellularSMS10initializeENS_11CellularSMS16CellularSMSMmodeE) refers to .\build\at_cellularsms.o(i._ZN4mbed14AT_CellularSMS8set_csdhEi) for mbed::AT_CellularSMS::set_csdh(int)
    .\build\at_cellularsms.o(i._ZN4mbed14AT_CellularSMS10initializeENS_11CellularSMS16CellularSMSMmodeE) refers to .\build\athandler.o(i._ZN4mbed9ATHandler19unlock_return_errorEv) for mbed::ATHandler::unlock_return_error()
    .\build\at_cellularsms.o(i._ZN4mbed14AT_CellularSMS11create_timeEPKcPj) refers to D:\Keil_v5\ARM\ARMCC\Bin\..\lib\armlib\c_w.l(_scanf_int.o)(.text) for _scanf_int
    .\build\at_cellularsms.o(i._ZN4mbed14AT_CellularSMS11create_timeEPKcPj) refers to D:\Keil_v5\ARM\ARMCC\Bin\..\lib\armlib\c_w.l(_scanf_str.o)(.text) for _scanf_string
    .\build\at_cellularsms.o(i._ZN4mbed14AT_CellularSMS11create_timeEPKcPj) refers to D:\Keil_v5\ARM\ARMCC\Bin\..\lib\armlib\c_w.l(rt_memclr_w.o)(.text) for __aeabi_memclr4
    .\build\at_cellularsms.o(i._ZN4mbed14AT_CellularSMS11create_timeEPKcPj) refers to D:\Keil_v5\ARM\ARMCC\Bin\..\lib\armlib\c_w.l(__0sscanf.o)(.text) for __0sscanf
    .\build\at_cellularsms.o(i._ZN4mbed14AT_CellularSMS11create_timeEPKcPj) refers to D:\Keil_v5\ARM\ARMCC\Bin\..\lib\armlib\c_w.l(mktime.o)(.text) for mktime
    .\build\at_cellularsms.o(i._ZN4mbed14AT_CellularSMS11create_timeEPKcPj) refers to D:\Keil_v5\ARM\ARMCC\Bin\..\lib\armlib\fz_ws.l(dflt_clz.o)(x$fpl$dflt) for __aeabi_i2d
    .\build\at_cellularsms.o(i._ZN4mbed14AT_CellularSMS11create_timeEPKcPj) refers to D:\Keil_v5\ARM\ARMCC\Bin\..\lib\armlib\fz_ws.l(scalbn.o)(x$fpl$scalbn) for __ARM_scalbn
    .\build\at_cellularsms.o(i._ZN4mbed14AT_CellularSMS11create_timeEPKcPj) refers to D:\Keil_v5\ARM\ARMCC\Bin\..\lib\armlib\fz_ws.l(dfix.o)(x$fpl$dfix) for __aeabi_d2iz
    .\build\at_cellularsms.o(i._ZN4mbed14AT_CellularSMS13list_messagesEv) refers to .\build\athandler.o(i._ZN4mbed9ATHandler9cmd_startEPKc) for mbed::ATHandler::cmd_start(const char*)
    .\build\at_cellularsms.o(i._ZN4mbed14AT_CellularSMS13list_messagesEv) refers to .\build\athandler.o(i._ZN4mbed9ATHandler8cmd_stopEv) for mbed::ATHandler::cmd_stop()
    .\build\at_cellularsms.o(i._ZN4mbed14AT_CellularSMS13list_messagesEv) refers to .\build\athandler.o(i._ZN4mbed9ATHandler10resp_startEPKcb) for mbed::ATHandler::resp_start(const char*, bool)
    .\build\at_cellularsms.o(i._ZN4mbed14AT_CellularSMS13list_messagesEv) refers to .\build\mbed_retarget.o(i._Znwj) for operator new(unsigned)
    .\build\at_cellularsms.o(i._ZN4mbed14AT_CellularSMS13list_messagesEv) refers to .\build\athandler.o(i._ZN4mbed9ATHandler8read_intEv) for mbed::ATHandler::read_int()
    .\build\at_cellularsms.o(i._ZN4mbed14AT_CellularSMS13list_messagesEv) refers to .\build\athandler.o(i._ZN4mbed9ATHandler19consume_to_stop_tagEv) for mbed::ATHandler::consume_to_stop_tag()
    .\build\at_cellularsms.o(i._ZN4mbed14AT_CellularSMS13list_messagesEv) refers to .\build\at_cellularsms.o(i._ZN4mbed14AT_CellularSMS8add_infoEPNS0_10sms_info_tEii) for mbed::AT_CellularSMS::add_info(mbed::AT_CellularSMS::sms_info_t*, int, int)
    .\build\at_cellularsms.o(i._ZN4mbed14AT_CellularSMS13list_messagesEv) refers to .\build\athandler.o(i._ZN4mbed9ATHandler9resp_stopEv) for mbed::ATHandler::resp_stop()
    .\build\at_cellularsms.o(i._ZN4mbed14AT_CellularSMS13list_messagesEv) refers to .\build\athandler.o(i._ZN4mbed9ATHandler10skip_paramEj) for mbed::ATHandler::skip_param(unsigned)
    .\build\at_cellularsms.o(i._ZN4mbed14AT_CellularSMS13list_messagesEv) refers to D:\Keil_v5\ARM\ARMCC\Bin\..\lib\armlib\c_w.l(calloc.o)(.text) for calloc
    .\build\at_cellularsms.o(i._ZN4mbed14AT_CellularSMS13list_messagesEv) refers to .\build\athandler.o(i._ZN4mbed9ATHandler11read_stringEPcjb) for mbed::ATHandler::read_string(char*, unsigned, bool)
    .\build\at_cellularsms.o(i._ZN4mbed14AT_CellularSMS13list_messagesEv) refers to .\build\athandler.o(i._ZNK4mbed9ATHandler14get_last_errorEv) for mbed::ATHandler::get_last_error() const
    .\build\at_cellularsms.o(i._ZN4mbed14AT_CellularSMS13list_messagesEv) refers to .\build\at_cellularsms.o(i._ZN4mbed14AT_CellularSMS17get_data_from_pduEPKcPNS0_10sms_info_tEPiPcS6_) for mbed::AT_CellularSMS::get_data_from_pdu(const char*, mbed::AT_CellularSMS::sms_info_t*, int*, char*, char*)
    .\build\at_cellularsms.o(i._ZN4mbed14AT_CellularSMS13list_messagesEv) refers to .\build\mbed_retarget.o(i._ZdlPv) for operator delete (void*)
    .\build\at_cellularsms.o(i._ZN4mbed14AT_CellularSMS13list_messagesEv) refers to D:\Keil_v5\ARM\ARMCC\Bin\..\lib\armlib\c_w.l(h1_free_mt.o)(.text) for free
    .\build\at_cellularsms.o(i._ZN4mbed14AT_CellularSMS13list_messagesEv) refers to .\build\athandler.o(i._ZN4mbed9ATHandler9info_respEv) for mbed::ATHandler::info_resp()
    .\build\at_cellularsms.o(i._ZN4mbed14AT_CellularSMS16free_linked_listEv) refers to .\build\mbed_retarget.o(i._ZdlPv) for operator delete (void*)
    .\build\at_cellularsms.o(i._ZN4mbed14AT_CellularSMS16read_pdu_payloadEPKciiPci) refers to D:\Keil_v5\ARM\ARMCC\Bin\..\lib\armlib\c_w.l(strlen.o)(.text) for strlen
    .\build\at_cellularsms.o(i._ZN4mbed14AT_CellularSMS16read_pdu_payloadEPKciiPci) refers to .\build\at_cellularsms.o(i._ZN4mbed14AT_CellularSMS23unpack_7_bit_gsm_to_strEPKciPcii) for mbed::AT_CellularSMS::unpack_7_bit_gsm_to_str(const char*, int, char*, int, int)
    .\build\at_cellularsms.o(i._ZN4mbed14AT_CellularSMS16read_pdu_payloadEPKciiPci) refers to .\build\cellularutil.o(i._ZN18mbed_cellular_util19hex_str_to_char_strEPKctPc) for mbed_cellular_util::hex_str_to_char_str(const char*, unsigned short, char*)
    .\build\at_cellularsms.o(i._ZN4mbed14AT_CellularSMS16set_sms_callbackENS_8CallbackIFvvEEE) refers to .\build\at_cellularsms.o(t._ZN4mbed8CallbackIFvvEED1Ev) for mbed::Callback<void()>::~Callback()
    .\build\at_cellularsms.o(i._ZN4mbed14AT_CellularSMS17get_data_from_pduEPKcPNS0_10sms_info_tEPiPcS6_) refers to .\build\cellularutil.o(i._ZN18mbed_cellular_util14hex_str_to_intEPKci) for mbed_cellular_util::hex_str_to_int(const char*, int)
    .\build\at_cellularsms.o(i._ZN4mbed14AT_CellularSMS17get_data_from_pduEPKcPNS0_10sms_info_tEPiPcS6_) refers to .\build\at_cellularsms.o(i._ZN4mbed14AT_CellularSMS17read_udh_from_pduEPKcPNS0_10sms_info_tERiS5_) for mbed::AT_CellularSMS::read_udh_from_pdu(const char*, mbed::AT_CellularSMS::sms_info_t*, int&, int&)
    .\build\at_cellularsms.o(i._ZN4mbed14AT_CellularSMS17get_data_from_pduEPKcPNS0_10sms_info_tEPiPcS6_) refers to .\build\at_cellularsms.o(i._ZN4mbed14AT_CellularSMS16read_pdu_payloadEPKciiPci) for mbed::AT_CellularSMS::read_pdu_payload(const char*, int, int, char*, int)
    .\build\at_cellularsms.o(i._ZN4mbed14AT_CellularSMS17get_data_from_pduEPKcPNS0_10sms_info_tEPiPcS6_) refers to D:\Keil_v5\ARM\ARMCC\Bin\..\lib\armlib\c_w.l(strlen.o)(.text) for strlen
    .\build\at_cellularsms.o(i._ZN4mbed14AT_CellularSMS17read_udh_from_pduEPKcPNS0_10sms_info_tERiS5_) refers to .\build\cellularutil.o(i._ZN18mbed_cellular_util14hex_str_to_intEPKci) for mbed_cellular_util::hex_str_to_int(const char*, int)
    .\build\at_cellularsms.o(i._ZN4mbed14AT_CellularSMS19delete_all_messagesEv) refers to .\build\athandler.o(i._ZN4mbed9ATHandler4lockEv) for mbed::ATHandler::lock()
    .\build\at_cellularsms.o(i._ZN4mbed14AT_CellularSMS19delete_all_messagesEv) refers to .\build\athandler.o(i._ZN4mbed9ATHandler9cmd_startEPKc) for mbed::ATHandler::cmd_start(const char*)
    .\build\at_cellularsms.o(i._ZN4mbed14AT_CellularSMS19delete_all_messagesEv) refers to .\build\athandler.o(i._ZN4mbed9ATHandler8cmd_stopEv) for mbed::ATHandler::cmd_stop()
    .\build\at_cellularsms.o(i._ZN4mbed14AT_CellularSMS19delete_all_messagesEv) refers to .\build\athandler.o(i._ZN4mbed9ATHandler10resp_startEPKcb) for mbed::ATHandler::resp_start(const char*, bool)
    .\build\at_cellularsms.o(i._ZN4mbed14AT_CellularSMS19delete_all_messagesEv) refers to .\build\athandler.o(i._ZN4mbed9ATHandler9resp_stopEv) for mbed::ATHandler::resp_stop()
    .\build\at_cellularsms.o(i._ZN4mbed14AT_CellularSMS19delete_all_messagesEv) refers to .\build\athandler.o(i._ZN4mbed9ATHandler19unlock_return_errorEv) for mbed::ATHandler::unlock_return_error()
    .\build\at_cellularsms.o(i._ZN4mbed14AT_CellularSMS19read_sms_from_indexEiPctS1_S1_) refers to .\build\mbed_wait_api_rtos.o(i.wait_ms) for wait_ms
    .\build\at_cellularsms.o(i._ZN4mbed14AT_CellularSMS19read_sms_from_indexEiPctS1_S1_) refers to .\build\athandler.o(i._ZN4mbed9ATHandler9cmd_startEPKc) for mbed::ATHandler::cmd_start(const char*)
    .\build\at_cellularsms.o(i._ZN4mbed14AT_CellularSMS19read_sms_from_indexEiPctS1_S1_) refers to .\build\athandler.o(i._ZN4mbed9ATHandler9write_intEi) for mbed::ATHandler::write_int(int)
    .\build\at_cellularsms.o(i._ZN4mbed14AT_CellularSMS19read_sms_from_indexEiPctS1_S1_) refers to .\build\athandler.o(i._ZN4mbed9ATHandler8cmd_stopEv) for mbed::ATHandler::cmd_stop()
    .\build\at_cellularsms.o(i._ZN4mbed14AT_CellularSMS19read_sms_from_indexEiPctS1_S1_) refers to .\build\athandler.o(i._ZNK4mbed9ATHandler14get_last_errorEv) for mbed::ATHandler::get_last_error() const
    .\build\at_cellularsms.o(i._ZN4mbed14AT_CellularSMS19read_sms_from_indexEiPctS1_S1_) refers to .\build\athandler.o(i._ZN4mbed9ATHandler10resp_startEPKcb) for mbed::ATHandler::resp_start(const char*, bool)
    .\build\at_cellularsms.o(i._ZN4mbed14AT_CellularSMS19read_sms_from_indexEiPctS1_S1_) refers to .\build\athandler.o(i._ZN4mbed9ATHandler9info_respEv) for mbed::ATHandler::info_resp()
    .\build\at_cellularsms.o(i._ZN4mbed14AT_CellularSMS19read_sms_from_indexEiPctS1_S1_) refers to .\build\athandler.o(i._ZN4mbed9ATHandler11read_stringEPcjb) for mbed::ATHandler::read_string(char*, unsigned, bool)
    .\build\at_cellularsms.o(i._ZN4mbed14AT_CellularSMS19read_sms_from_indexEiPctS1_S1_) refers to D:\Keil_v5\ARM\ARMCC\Bin\..\lib\armlib\c_w.l(strlen.o)(.text) for strlen
    .\build\at_cellularsms.o(i._ZN4mbed14AT_CellularSMS19read_sms_from_indexEiPctS1_S1_) refers to D:\Keil_v5\ARM\ARMCC\Bin\..\lib\armlib\c_w.l(memcmp.o)(.text) for memcmp
    .\build\at_cellularsms.o(i._ZN4mbed14AT_CellularSMS19read_sms_from_indexEiPctS1_S1_) refers to .\build\athandler.o(i._ZN4mbed9ATHandler10skip_paramEj) for mbed::ATHandler::skip_param(unsigned)
    .\build\at_cellularsms.o(i._ZN4mbed14AT_CellularSMS19read_sms_from_indexEiPctS1_S1_) refers to .\build\athandler.o(i._ZN4mbed9ATHandler19consume_to_stop_tagEv) for mbed::ATHandler::consume_to_stop_tag()
    .\build\at_cellularsms.o(i._ZN4mbed14AT_CellularSMS19read_sms_from_indexEiPctS1_S1_) refers to .\build\athandler.o(i._ZN4mbed9ATHandler9resp_stopEv) for mbed::ATHandler::resp_stop()
    .\build\at_cellularsms.o(i._ZN4mbed14AT_CellularSMS20compare_time_stringsEPKcS2_) refers to .\build\at_cellularsms.o(i._ZN4mbed14AT_CellularSMS11create_timeEPKcPj) for mbed::AT_CellularSMS::create_time(const char*, unsigned*)
    .\build\at_cellularsms.o(i._ZN4mbed14AT_CellularSMS20compare_time_stringsEPKcS2_) refers to D:\Keil_v5\ARM\ARMCC\Bin\..\lib\armlib\m_ws.l(difftime.o)(i.difftime) for difftime
    .\build\at_cellularsms.o(i._ZN4mbed14AT_CellularSMS20compare_time_stringsEPKcS2_) refers to D:\Keil_v5\ARM\ARMCC\Bin\..\lib\armlib\fz_ws.l(drleqf.o)(x$fpl$drleqf) for __aeabi_cdrcmple
    .\build\at_cellularsms.o(i._ZN4mbed14AT_CellularSMS20compare_time_stringsEPKcS2_) refers to D:\Keil_v5\ARM\ARMCC\Bin\..\lib\armlib\fz_ws.l(deqf.o)(x$fpl$deqf) for __aeabi_cdcmpeq
    .\build\at_cellularsms.o(i._ZN4mbed14AT_CellularSMS20get_oldest_sms_indexEv) refers to .\build\mbed_wait_api_rtos.o(i.wait_ms) for wait_ms
    .\build\at_cellularsms.o(i._ZN4mbed14AT_CellularSMS20get_oldest_sms_indexEv) refers to .\build\at_cellularsms.o(i._ZN4mbed14AT_CellularSMS19read_sms_from_indexEiPctS1_S1_) for mbed::AT_CellularSMS::read_sms_from_index(int, char*, unsigned short, char*, char*)
    .\build\at_cellularsms.o(i._ZN4mbed14AT_CellularSMS20get_oldest_sms_indexEv) refers to .\build\at_cellularsms.o(i._ZN4mbed14AT_CellularSMS20compare_time_stringsEPKcS2_) for mbed::AT_CellularSMS::compare_time_strings(const char*, const char*)
    .\build\at_cellularsms.o(i._ZN4mbed14AT_CellularSMS22pack_7_bit_gsm_and_hexEPKctPci) refers to D:\Keil_v5\ARM\ARMCC\Bin\..\lib\armlib\c_w.l(h1_alloc_mt.o)(.text) for malloc
    .\build\at_cellularsms.o(i._ZN4mbed14AT_CellularSMS22pack_7_bit_gsm_and_hexEPKctPci) refers to .\build\cellularutil.o(i._ZN18mbed_cellular_util19char_str_to_hex_strEPKctPcb) for mbed_cellular_util::char_str_to_hex_str(const char*, unsigned short, char*, bool)
    .\build\at_cellularsms.o(i._ZN4mbed14AT_CellularSMS22pack_7_bit_gsm_and_hexEPKctPci) refers to D:\Keil_v5\ARM\ARMCC\Bin\..\lib\armlib\c_w.l(h1_free_mt.o)(.text) for free
    .\build\at_cellularsms.o(i._ZN4mbed14AT_CellularSMS22pack_7_bit_gsm_and_hexEPKctPci) refers to .\build\at_cellularsms.o(.constdata) for .constdata
    .\build\at_cellularsms.o(i._ZN4mbed14AT_CellularSMS23unpack_7_bit_gsm_to_strEPKciPcii) refers to .\build\cellularutil.o(i._ZN18mbed_cellular_util19hex_str_to_char_strEPKctPc) for mbed_cellular_util::hex_str_to_char_str(const char*, unsigned short, char*)
    .\build\at_cellularsms.o(i._ZN4mbed14AT_CellularSMS23unpack_7_bit_gsm_to_strEPKciPcii) refers to .\build\at_cellularsms.o(.constdata) for .constdata
    .\build\at_cellularsms.o(i._ZN4mbed14AT_CellularSMS7cmt_urcEv) refers to .\build\athandler.o(i._ZN4mbed9ATHandler19consume_to_stop_tagEv) for mbed::ATHandler::consume_to_stop_tag()
    .\build\at_cellularsms.o(i._ZN4mbed14AT_CellularSMS7cmt_urcEv) refers to .\build\at_cellularsms.o(t._ZNK4mbed8CallbackIFvvEEcvbEv) for mbed::Callback<void()>::operator bool() const
    .\build\at_cellularsms.o(i._ZN4mbed14AT_CellularSMS7cmt_urcEv) refers to .\build\at_cellularsms.o(t._ZNK4mbed8CallbackIFvvEEclEv) for mbed::Callback<void()>::operator ()() const
    .\build\at_cellularsms.o(i._ZN4mbed14AT_CellularSMS7get_smsEPctS1_tS1_tPi) refers to .\build\athandler.o(i._ZN4mbed9ATHandler4lockEv) for mbed::ATHandler::lock()
    .\build\at_cellularsms.o(i._ZN4mbed14AT_CellularSMS7get_smsEPctS1_tS1_tPi) refers to .\build\at_cellularsms.o(i._ZN4mbed14AT_CellularSMS13list_messagesEv) for mbed::AT_CellularSMS::list_messages()
    .\build\at_cellularsms.o(i._ZN4mbed14AT_CellularSMS7get_smsEPctS1_tS1_tPi) refers to .\build\at_cellularsms.o(i._ZN4mbed14AT_CellularSMS20get_oldest_sms_indexEv) for mbed::AT_CellularSMS::get_oldest_sms_index()
    .\build\at_cellularsms.o(i._ZN4mbed14AT_CellularSMS7get_smsEPctS1_tS1_tPi) refers to .\build\at_cellularsms.o(i._ZN4mbed14AT_CellularSMS16free_linked_listEv) for mbed::AT_CellularSMS::free_linked_list()
    .\build\at_cellularsms.o(i._ZN4mbed14AT_CellularSMS7get_smsEPctS1_tS1_tPi) refers to .\build\athandler.o(i._ZN4mbed9ATHandler6unlockEv) for mbed::ATHandler::unlock()
    .\build\at_cellularsms.o(i._ZN4mbed14AT_CellularSMS7get_smsEPctS1_tS1_tPi) refers to .\build\at_cellularsms.o(i._ZN4mbed14AT_CellularSMS19read_sms_from_indexEiPctS1_S1_) for mbed::AT_CellularSMS::read_sms_from_index(int, char*, unsigned short, char*, char*)
    .\build\at_cellularsms.o(i._ZN4mbed14AT_CellularSMS7get_smsEPctS1_tS1_tPi) refers to .\build\at_cellularsms.o(i._ZN4mbed14AT_CellularSMS10delete_smsEPNS0_10sms_info_tE) for mbed::AT_CellularSMS::delete_sms(mbed::AT_CellularSMS::sms_info_t*)
    .\build\at_cellularsms.o(i._ZN4mbed14AT_CellularSMS7get_smsEPctS1_tS1_tPi) refers to .\build\at_cellularsms.o(i._ZN4mbed14AT_CellularSMS8read_smsEPNS0_10sms_info_tEPcS3_S3_) for mbed::AT_CellularSMS::read_sms(mbed::AT_CellularSMS::sms_info_t*, char*, char*, char*)
    .\build\at_cellularsms.o(i._ZN4mbed14AT_CellularSMS7get_smsEPctS1_tS1_tPi) refers to .\build\athandler.o(i._ZNK4mbed9ATHandler14get_last_errorEv) for mbed::ATHandler::get_last_error() const
    .\build\at_cellularsms.o(i._ZN4mbed14AT_CellularSMS8add_infoEPNS0_10sms_info_tEii) refers to .\build\at_cellularsms.o(i._ZN4mbed14AT_CellularSMS20compare_time_stringsEPKcS2_) for mbed::AT_CellularSMS::compare_time_strings(const char*, const char*)
    .\build\at_cellularsms.o(i._ZN4mbed14AT_CellularSMS8add_infoEPNS0_10sms_info_tEii) refers to D:\Keil_v5\ARM\ARMCC\Bin\..\lib\armlib\c_w.l(strcpy.o)(.text) for strcpy
    .\build\at_cellularsms.o(i._ZN4mbed14AT_CellularSMS8add_infoEPNS0_10sms_info_tEii) refers to .\build\mbed_retarget.o(i._ZdlPv) for operator delete (void*)
    .\build\at_cellularsms.o(i._ZN4mbed14AT_CellularSMS8cmti_urcEv) refers to .\build\at_cellularsms.o(t._ZNK4mbed8CallbackIFvvEEcvbEv) for mbed::Callback<void()>::operator bool() const
    .\build\at_cellularsms.o(i._ZN4mbed14AT_CellularSMS8cmti_urcEv) refers to .\build\at_cellularsms.o(t._ZNK4mbed8CallbackIFvvEEclEv) for mbed::Callback<void()>::operator ()() const
    .\build\at_cellularsms.o(i._ZN4mbed14AT_CellularSMS8read_smsEPNS0_10sms_info_tEPcS3_S3_) refers to .\build\mbed_wait_api_rtos.o(i.wait_ms) for wait_ms
    .\build\at_cellularsms.o(i._ZN4mbed14AT_CellularSMS8read_smsEPNS0_10sms_info_tEPcS3_S3_) refers to .\build\athandler.o(i._ZN4mbed9ATHandler9cmd_startEPKc) for mbed::ATHandler::cmd_start(const char*)
    .\build\at_cellularsms.o(i._ZN4mbed14AT_CellularSMS8read_smsEPNS0_10sms_info_tEPcS3_S3_) refers to .\build\athandler.o(i._ZN4mbed9ATHandler9write_intEi) for mbed::ATHandler::write_int(int)
    .\build\at_cellularsms.o(i._ZN4mbed14AT_CellularSMS8read_smsEPNS0_10sms_info_tEPcS3_S3_) refers to .\build\athandler.o(i._ZN4mbed9ATHandler8cmd_stopEv) for mbed::ATHandler::cmd_stop()
    .\build\at_cellularsms.o(i._ZN4mbed14AT_CellularSMS8read_smsEPNS0_10sms_info_tEPcS3_S3_) refers to .\build\athandler.o(i._ZN4mbed9ATHandler10resp_startEPKcb) for mbed::ATHandler::resp_start(const char*, bool)
    .\build\at_cellularsms.o(i._ZN4mbed14AT_CellularSMS8read_smsEPNS0_10sms_info_tEPcS3_S3_) refers to .\build\athandler.o(i._ZN4mbed9ATHandler9info_respEv) for mbed::ATHandler::info_resp()
    .\build\at_cellularsms.o(i._ZN4mbed14AT_CellularSMS8read_smsEPNS0_10sms_info_tEPcS3_S3_) refers to .\build\athandler.o(i._ZN4mbed9ATHandler8read_intEv) for mbed::ATHandler::read_int()
    .\build\at_cellularsms.o(i._ZN4mbed14AT_CellularSMS8read_smsEPNS0_10sms_info_tEPcS3_S3_) refers to .\build\athandler.o(i._ZN4mbed9ATHandler10skip_paramEj) for mbed::ATHandler::skip_param(unsigned)
    .\build\at_cellularsms.o(i._ZN4mbed14AT_CellularSMS8read_smsEPNS0_10sms_info_tEPcS3_S3_) refers to .\build\athandler.o(i._ZNK4mbed9ATHandler14get_last_errorEv) for mbed::ATHandler::get_last_error() const
    .\build\at_cellularsms.o(i._ZN4mbed14AT_CellularSMS8read_smsEPNS0_10sms_info_tEPcS3_S3_) refers to D:\Keil_v5\ARM\ARMCC\Bin\..\lib\armlib\c_w.l(calloc.o)(.text) for calloc
    .\build\at_cellularsms.o(i._ZN4mbed14AT_CellularSMS8read_smsEPNS0_10sms_info_tEPcS3_S3_) refers to .\build\athandler.o(i._ZN4mbed9ATHandler11read_stringEPcjb) for mbed::ATHandler::read_string(char*, unsigned, bool)
    .\build\at_cellularsms.o(i._ZN4mbed14AT_CellularSMS8read_smsEPNS0_10sms_info_tEPcS3_S3_) refers to .\build\athandler.o(i._ZN4mbed9ATHandler9resp_stopEv) for mbed::ATHandler::resp_stop()
    .\build\at_cellularsms.o(i._ZN4mbed14AT_CellularSMS8read_smsEPNS0_10sms_info_tEPcS3_S3_) refers to .\build\at_cellularsms.o(i._ZN4mbed14AT_CellularSMS17get_data_from_pduEPKcPNS0_10sms_info_tEPiPcS6_) for mbed::AT_CellularSMS::get_data_from_pdu(const char*, mbed::AT_CellularSMS::sms_info_t*, int*, char*, char*)
    .\build\at_cellularsms.o(i._ZN4mbed14AT_CellularSMS8read_smsEPNS0_10sms_info_tEPcS3_S3_) refers to D:\Keil_v5\ARM\ARMCC\Bin\..\lib\armlib\c_w.l(h1_free_mt.o)(.text) for free
    .\build\at_cellularsms.o(i._ZN4mbed14AT_CellularSMS8read_smsEPNS0_10sms_info_tEPcS3_S3_) refers to D:\Keil_v5\ARM\ARMCC\Bin\..\lib\armlib\c_w.l(strcpy.o)(.text) for strcpy
    .\build\at_cellularsms.o(i._ZN4mbed14AT_CellularSMS8send_smsEPKcS2_i) refers to .\build\athandler.o(i._ZN4mbed9ATHandler4lockEv) for mbed::ATHandler::lock()
    .\build\at_cellularsms.o(i._ZN4mbed14AT_CellularSMS8send_smsEPKcS2_i) refers to .\build\mbed_wait_api_rtos.o(i.wait_ms) for wait_ms
    .\build\at_cellularsms.o(i._ZN4mbed14AT_CellularSMS8send_smsEPKcS2_i) refers to .\build\athandler.o(i._ZN4mbed9ATHandler9cmd_startEPKc) for mbed::ATHandler::cmd_start(const char*)
    .\build\at_cellularsms.o(i._ZN4mbed14AT_CellularSMS8send_smsEPKcS2_i) refers to .\build\athandler.o(i._ZN4mbed9ATHandler12write_stringEPKcb) for mbed::ATHandler::write_string(const char*, bool)
    .\build\at_cellularsms.o(i._ZN4mbed14AT_CellularSMS8send_smsEPKcS2_i) refers to .\build\athandler.o(i._ZN4mbed9ATHandler8cmd_stopEv) for mbed::ATHandler::cmd_stop()
    .\build\at_cellularsms.o(i._ZN4mbed14AT_CellularSMS8send_smsEPKcS2_i) refers to .\build\athandler.o(i._ZN4mbed9ATHandler10resp_startEPKcb) for mbed::ATHandler::resp_start(const char*, bool)
    .\build\at_cellularsms.o(i._ZN4mbed14AT_CellularSMS8send_smsEPKcS2_i) refers to .\build\athandler.o(i._ZNK4mbed9ATHandler14get_last_errorEv) for mbed::ATHandler::get_last_error() const
    .\build\at_cellularsms.o(i._ZN4mbed14AT_CellularSMS8send_smsEPKcS2_i) refers to .\build\athandler.o(i._ZN4mbed9ATHandler11write_bytesEPKhj) for mbed::ATHandler::write_bytes(const unsigned char*, unsigned)
    .\build\at_cellularsms.o(i._ZN4mbed14AT_CellularSMS8send_smsEPKcS2_i) refers to .\build\athandler.o(i._ZN4mbed9ATHandler6unlockEv) for mbed::ATHandler::unlock()
    .\build\at_cellularsms.o(i._ZN4mbed14AT_CellularSMS8send_smsEPKcS2_i) refers to .\build\athandler.o(i._ZN4mbed9ATHandler9resp_stopEv) for mbed::ATHandler::resp_stop()
    .\build\at_cellularsms.o(i._ZN4mbed14AT_CellularSMS8send_smsEPKcS2_i) refers to .\build\at_cellularsms.o(i._ZN4mbed14AT_CellularSMS10create_pduEPKcS2_hhhRh) for mbed::AT_CellularSMS::create_pdu(const char*, const char*, unsigned char, unsigned char, unsigned char, unsigned char&)
    .\build\at_cellularsms.o(i._ZN4mbed14AT_CellularSMS8send_smsEPKcS2_i) refers to D:\Keil_v5\ARM\ARMCC\Bin\..\lib\armlib\c_w.l(strlen.o)(.text) for strlen
    .\build\at_cellularsms.o(i._ZN4mbed14AT_CellularSMS8send_smsEPKcS2_i) refers to .\build\athandler.o(i._ZN4mbed9ATHandler9write_intEi) for mbed::ATHandler::write_int(int)
    .\build\at_cellularsms.o(i._ZN4mbed14AT_CellularSMS8send_smsEPKcS2_i) refers to D:\Keil_v5\ARM\ARMCC\Bin\..\lib\armlib\c_w.l(h1_free_mt.o)(.text) for free
    .\build\at_cellularsms.o(i._ZN4mbed14AT_CellularSMS8send_smsEPKcS2_i) refers to .\build\athandler.o(i._ZN4mbed9ATHandler19unlock_return_errorEv) for mbed::ATHandler::unlock_return_error()
    .\build\at_cellularsms.o(i._ZN4mbed14AT_CellularSMS8set_cmgfEi) refers to .\build\athandler.o(i._ZN4mbed9ATHandler4lockEv) for mbed::ATHandler::lock()
    .\build\at_cellularsms.o(i._ZN4mbed14AT_CellularSMS8set_cmgfEi) refers to .\build\athandler.o(i._ZN4mbed9ATHandler9cmd_startEPKc) for mbed::ATHandler::cmd_start(const char*)
    .\build\at_cellularsms.o(i._ZN4mbed14AT_CellularSMS8set_cmgfEi) refers to .\build\athandler.o(i._ZN4mbed9ATHandler9write_intEi) for mbed::ATHandler::write_int(int)
    .\build\at_cellularsms.o(i._ZN4mbed14AT_CellularSMS8set_cmgfEi) refers to .\build\athandler.o(i._ZN4mbed9ATHandler8cmd_stopEv) for mbed::ATHandler::cmd_stop()
    .\build\at_cellularsms.o(i._ZN4mbed14AT_CellularSMS8set_cmgfEi) refers to .\build\athandler.o(i._ZN4mbed9ATHandler10resp_startEPKcb) for mbed::ATHandler::resp_start(const char*, bool)
    .\build\at_cellularsms.o(i._ZN4mbed14AT_CellularSMS8set_cmgfEi) refers to .\build\athandler.o(i._ZN4mbed9ATHandler9resp_stopEv) for mbed::ATHandler::resp_stop()
    .\build\at_cellularsms.o(i._ZN4mbed14AT_CellularSMS8set_cmgfEi) refers to .\build\athandler.o(i._ZN4mbed9ATHandler19unlock_return_errorEv) for mbed::ATHandler::unlock_return_error()
    .\build\at_cellularsms.o(i._ZN4mbed14AT_CellularSMS8set_cnmiEv) refers to .\build\athandler.o(i._ZN4mbed9ATHandler4lockEv) for mbed::ATHandler::lock()
    .\build\at_cellularsms.o(i._ZN4mbed14AT_CellularSMS8set_cnmiEv) refers to .\build\athandler.o(i._ZN4mbed9ATHandler9cmd_startEPKc) for mbed::ATHandler::cmd_start(const char*)
    .\build\at_cellularsms.o(i._ZN4mbed14AT_CellularSMS8set_cnmiEv) refers to .\build\athandler.o(i._ZN4mbed9ATHandler8cmd_stopEv) for mbed::ATHandler::cmd_stop()
    .\build\at_cellularsms.o(i._ZN4mbed14AT_CellularSMS8set_cnmiEv) refers to .\build\athandler.o(i._ZN4mbed9ATHandler10resp_startEPKcb) for mbed::ATHandler::resp_start(const char*, bool)
    .\build\at_cellularsms.o(i._ZN4mbed14AT_CellularSMS8set_cnmiEv) refers to .\build\athandler.o(i._ZN4mbed9ATHandler9resp_stopEv) for mbed::ATHandler::resp_stop()
    .\build\at_cellularsms.o(i._ZN4mbed14AT_CellularSMS8set_cnmiEv) refers to .\build\athandler.o(i._ZN4mbed9ATHandler19unlock_return_errorEv) for mbed::ATHandler::unlock_return_error()
    .\build\at_cellularsms.o(i._ZN4mbed14AT_CellularSMS8set_cpmsEPKcS2_S2_) refers to .\build\athandler.o(i._ZN4mbed9ATHandler4lockEv) for mbed::ATHandler::lock()
    .\build\at_cellularsms.o(i._ZN4mbed14AT_CellularSMS8set_cpmsEPKcS2_S2_) refers to .\build\athandler.o(i._ZN4mbed9ATHandler9cmd_startEPKc) for mbed::ATHandler::cmd_start(const char*)
    .\build\at_cellularsms.o(i._ZN4mbed14AT_CellularSMS8set_cpmsEPKcS2_S2_) refers to .\build\athandler.o(i._ZN4mbed9ATHandler12write_stringEPKcb) for mbed::ATHandler::write_string(const char*, bool)
    .\build\at_cellularsms.o(i._ZN4mbed14AT_CellularSMS8set_cpmsEPKcS2_S2_) refers to .\build\athandler.o(i._ZN4mbed9ATHandler8cmd_stopEv) for mbed::ATHandler::cmd_stop()
    .\build\at_cellularsms.o(i._ZN4mbed14AT_CellularSMS8set_cpmsEPKcS2_S2_) refers to .\build\athandler.o(i._ZN4mbed9ATHandler10resp_startEPKcb) for mbed::ATHandler::resp_start(const char*, bool)
    .\build\at_cellularsms.o(i._ZN4mbed14AT_CellularSMS8set_cpmsEPKcS2_S2_) refers to .\build\athandler.o(i._ZN4mbed9ATHandler9resp_stopEv) for mbed::ATHandler::resp_stop()
    .\build\at_cellularsms.o(i._ZN4mbed14AT_CellularSMS8set_cpmsEPKcS2_S2_) refers to .\build\athandler.o(i._ZN4mbed9ATHandler19unlock_return_errorEv) for mbed::ATHandler::unlock_return_error()
    .\build\at_cellularsms.o(i._ZN4mbed14AT_CellularSMS8set_cscaEPKci) refers to .\build\athandler.o(i._ZN4mbed9ATHandler4lockEv) for mbed::ATHandler::lock()
    .\build\at_cellularsms.o(i._ZN4mbed14AT_CellularSMS8set_cscaEPKci) refers to .\build\athandler.o(i._ZN4mbed9ATHandler9cmd_startEPKc) for mbed::ATHandler::cmd_start(const char*)
    .\build\at_cellularsms.o(i._ZN4mbed14AT_CellularSMS8set_cscaEPKci) refers to .\build\athandler.o(i._ZN4mbed9ATHandler12write_stringEPKcb) for mbed::ATHandler::write_string(const char*, bool)
    .\build\at_cellularsms.o(i._ZN4mbed14AT_CellularSMS8set_cscaEPKci) refers to .\build\athandler.o(i._ZN4mbed9ATHandler9write_intEi) for mbed::ATHandler::write_int(int)
    .\build\at_cellularsms.o(i._ZN4mbed14AT_CellularSMS8set_cscaEPKci) refers to .\build\athandler.o(i._ZN4mbed9ATHandler8cmd_stopEv) for mbed::ATHandler::cmd_stop()
    .\build\at_cellularsms.o(i._ZN4mbed14AT_CellularSMS8set_cscaEPKci) refers to .\build\athandler.o(i._ZN4mbed9ATHandler10resp_startEPKcb) for mbed::ATHandler::resp_start(const char*, bool)
    .\build\at_cellularsms.o(i._ZN4mbed14AT_CellularSMS8set_cscaEPKci) refers to .\build\athandler.o(i._ZN4mbed9ATHandler9resp_stopEv) for mbed::ATHandler::resp_stop()
    .\build\at_cellularsms.o(i._ZN4mbed14AT_CellularSMS8set_cscaEPKci) refers to .\build\athandler.o(i._ZN4mbed9ATHandler19unlock_return_errorEv) for mbed::ATHandler::unlock_return_error()
    .\build\at_cellularsms.o(i._ZN4mbed14AT_CellularSMS8set_cscsEPKc) refers to .\build\athandler.o(i._ZN4mbed9ATHandler4lockEv) for mbed::ATHandler::lock()
    .\build\at_cellularsms.o(i._ZN4mbed14AT_CellularSMS8set_cscsEPKc) refers to .\build\athandler.o(i._ZN4mbed9ATHandler9cmd_startEPKc) for mbed::ATHandler::cmd_start(const char*)
    .\build\at_cellularsms.o(i._ZN4mbed14AT_CellularSMS8set_cscsEPKc) refers to .\build\athandler.o(i._ZN4mbed9ATHandler12write_stringEPKcb) for mbed::ATHandler::write_string(const char*, bool)
    .\build\at_cellularsms.o(i._ZN4mbed14AT_CellularSMS8set_cscsEPKc) refers to .\build\athandler.o(i._ZN4mbed9ATHandler8cmd_stopEv) for mbed::ATHandler::cmd_stop()
    .\build\at_cellularsms.o(i._ZN4mbed14AT_CellularSMS8set_cscsEPKc) refers to .\build\athandler.o(i._ZN4mbed9ATHandler10resp_startEPKcb) for mbed::ATHandler::resp_start(const char*, bool)
    .\build\at_cellularsms.o(i._ZN4mbed14AT_CellularSMS8set_cscsEPKc) refers to .\build\athandler.o(i._ZN4mbed9ATHandler9resp_stopEv) for mbed::ATHandler::resp_stop()
    .\build\at_cellularsms.o(i._ZN4mbed14AT_CellularSMS8set_cscsEPKc) refers to .\build\athandler.o(i._ZN4mbed9ATHandler19unlock_return_errorEv) for mbed::ATHandler::unlock_return_error()
    .\build\at_cellularsms.o(i._ZN4mbed14AT_CellularSMS8set_csdhEi) refers to .\build\athandler.o(i._ZN4mbed9ATHandler4lockEv) for mbed::ATHandler::lock()
    .\build\at_cellularsms.o(i._ZN4mbed14AT_CellularSMS8set_csdhEi) refers to .\build\athandler.o(i._ZN4mbed9ATHandler9cmd_startEPKc) for mbed::ATHandler::cmd_start(const char*)
    .\build\at_cellularsms.o(i._ZN4mbed14AT_CellularSMS8set_csdhEi) refers to .\build\athandler.o(i._ZN4mbed9ATHandler9write_intEi) for mbed::ATHandler::write_int(int)
    .\build\at_cellularsms.o(i._ZN4mbed14AT_CellularSMS8set_csdhEi) refers to .\build\athandler.o(i._ZN4mbed9ATHandler8cmd_stopEv) for mbed::ATHandler::cmd_stop()
    .\build\at_cellularsms.o(i._ZN4mbed14AT_CellularSMS8set_csdhEi) refers to .\build\athandler.o(i._ZN4mbed9ATHandler10resp_startEPKcb) for mbed::ATHandler::resp_start(const char*, bool)
    .\build\at_cellularsms.o(i._ZN4mbed14AT_CellularSMS8set_csdhEi) refers to .\build\athandler.o(i._ZN4mbed9ATHandler9resp_stopEv) for mbed::ATHandler::resp_stop()
    .\build\at_cellularsms.o(i._ZN4mbed14AT_CellularSMS8set_csdhEi) refers to .\build\athandler.o(i._ZN4mbed9ATHandler19unlock_return_errorEv) for mbed::ATHandler::unlock_return_error()
    .\build\at_cellularsms.o(i._ZN4mbed14AT_CellularSMS8set_csmpEiiii) refers to .\build\athandler.o(i._ZN4mbed9ATHandler4lockEv) for mbed::ATHandler::lock()
    .\build\at_cellularsms.o(i._ZN4mbed14AT_CellularSMS8set_csmpEiiii) refers to .\build\athandler.o(i._ZN4mbed9ATHandler9cmd_startEPKc) for mbed::ATHandler::cmd_start(const char*)
    .\build\at_cellularsms.o(i._ZN4mbed14AT_CellularSMS8set_csmpEiiii) refers to .\build\athandler.o(i._ZN4mbed9ATHandler9write_intEi) for mbed::ATHandler::write_int(int)
    .\build\at_cellularsms.o(i._ZN4mbed14AT_CellularSMS8set_csmpEiiii) refers to .\build\athandler.o(i._ZN4mbed9ATHandler8cmd_stopEv) for mbed::ATHandler::cmd_stop()
    .\build\at_cellularsms.o(i._ZN4mbed14AT_CellularSMS8set_csmpEiiii) refers to .\build\athandler.o(i._ZN4mbed9ATHandler10resp_startEPKcb) for mbed::ATHandler::resp_start(const char*, bool)
    .\build\at_cellularsms.o(i._ZN4mbed14AT_CellularSMS8set_csmpEiiii) refers to .\build\athandler.o(i._ZN4mbed9ATHandler9resp_stopEv) for mbed::ATHandler::resp_stop()
    .\build\at_cellularsms.o(i._ZN4mbed14AT_CellularSMS8set_csmpEiiii) refers to .\build\athandler.o(i._ZN4mbed9ATHandler19unlock_return_errorEv) for mbed::ATHandler::unlock_return_error()
    .\build\at_cellularsms.o(i._ZN4mbed14AT_CellularSMSC1ERNS_9ATHandlerE) refers to .\build\at_cellularbase.o(i._ZN4mbed15AT_CellularBaseC1ERNS_9ATHandlerE) for mbed::AT_CellularBase::AT_CellularBase(mbed::ATHandler&)
    .\build\at_cellularsms.o(i._ZN4mbed14AT_CellularSMSC1ERNS_9ATHandlerE) refers to .\build\at_cellularsms.o(t._ZN4mbed8callbackINS_14AT_CellularSMSES1_vEENS_8CallbackIFT1_vEEEPT0_MT_FS3_vE) for mbed::Callback<T3()> mbed::callback<mbed::AT_CellularSMS, mbed::AT_CellularSMS, void>(T2*, T3(T1::*)())
    .\build\at_cellularsms.o(i._ZN4mbed14AT_CellularSMSC1ERNS_9ATHandlerE) refers to .\build\athandler.o(i._ZN4mbed9ATHandler15set_urc_handlerEPKcNS_8CallbackIFvvEEE) for mbed::ATHandler::set_urc_handler(const char*, mbed::Callback<void()>)
    .\build\at_cellularsms.o(i._ZN4mbed14AT_CellularSMSC1ERNS_9ATHandlerE) refers to .\build\at_cellularsms.o(t._ZN4mbed8CallbackIFvvEED1Ev) for mbed::Callback<void()>::~Callback()
    .\build\at_cellularsms.o(i._ZN4mbed14AT_CellularSMSC1ERNS_9ATHandlerE) refers to .\build\at_cellularsms.o(.constdata__ZTVN4mbed11CellularSMSE) for vtable for mbed::CellularSMS
    .\build\at_cellularsms.o(i._ZN4mbed14AT_CellularSMSC1ERNS_9ATHandlerE) refers to .\build\at_cellularsms.o(.constdata__ZTVN4mbed14AT_CellularSMSE) for vtable for mbed::AT_CellularSMS
    .\build\at_cellularsms.o(i._ZN4mbed14AT_CellularSMSC1ERNS_9ATHandlerE) refers to .\build\at_cellularsms.o(.constdata) for .constdata
    .\build\at_cellularsms.o(i._ZN4mbed14AT_CellularSMSD0Ev) refers to .\build\at_cellularsms.o(i._ZN4mbed14AT_CellularSMSD1Ev) for mbed::AT_CellularSMS::~AT_CellularSMS()
    .\build\at_cellularsms.o(i._ZN4mbed14AT_CellularSMSD0Ev) refers to .\build\mbed_retarget.o(i._ZdlPv) for operator delete (void*)
    .\build\at_cellularsms.o(i._ZN4mbed14AT_CellularSMSD1Ev) refers to .\build\at_cellularsms.o(t._ZN4mbed8CallbackIFvvEED1Ev) for mbed::Callback<void()>::~Callback()
    .\build\at_cellularsms.o(i._ZN4mbed14AT_CellularSMSD1Ev) refers to .\build\at_cellularsms.o(.constdata__ZTVN4mbed14AT_CellularSMSE) for vtable for mbed::AT_CellularSMS
    .\build\at_cellularsms.o(.ARM.exidx) refers to .\build\at_cellularsms.o(i._ZN4mbed14AT_CellularSMSC1ERNS_9ATHandlerE) for i._ZN4mbed14AT_CellularSMSC1ERNS_9ATHandlerE
    .\build\at_cellularsms.o(.ARM.exidx) refers to .\build\at_cellularsms.o(i._ZN4mbed14AT_CellularSMSD1Ev) for i._ZN4mbed14AT_CellularSMSD1Ev
    .\build\at_cellularsms.o(.ARM.exidx) refers to .\build\at_cellularsms.o(i._ZN4mbed14AT_CellularSMSD0Ev) for i._ZN4mbed14AT_CellularSMSD0Ev
    .\build\at_cellularsms.o(.ARM.exidx) refers to .\build\at_cellularsms.o(i._ZN4mbed14AT_CellularSMS8set_csdhEi) for i._ZN4mbed14AT_CellularSMS8set_csdhEi
    .\build\at_cellularsms.o(.ARM.exidx) refers to .\build\at_cellularsms.o(i._ZN4mbed14AT_CellularSMS8set_csmpEiiii) for i._ZN4mbed14AT_CellularSMS8set_csmpEiiii
    .\build\at_cellularsms.o(.ARM.exidx) refers to .\build\at_cellularsms.o(i._ZN4mbed14AT_CellularSMS8set_cmgfEi) for i._ZN4mbed14AT_CellularSMS8set_cmgfEi
    .\build\at_cellularsms.o(.ARM.exidx) refers to .\build\at_cellularsms.o(i._ZN4mbed14AT_CellularSMS8set_cnmiEv) for i._ZN4mbed14AT_CellularSMS8set_cnmiEv
    .\build\at_cellularsms.o(.ARM.exidx) refers to .\build\at_cellularsms.o(i._ZN4mbed14AT_CellularSMS10initializeENS_11CellularSMS16CellularSMSMmodeE) for i._ZN4mbed14AT_CellularSMS10initializeENS_11CellularSMS16CellularSMSMmodeE
    .\build\at_cellularsms.o(.ARM.exidx) refers to .\build\at_cellularsms.o(i._ZN4mbed14AT_CellularSMS22pack_7_bit_gsm_and_hexEPKctPci) for i._ZN4mbed14AT_CellularSMS22pack_7_bit_gsm_and_hexEPKctPci
    .\build\at_cellularsms.o(.ARM.exidx) refers to .\build\at_cellularsms.o(i._ZN4mbed14AT_CellularSMS10create_pduEPKcS2_hhhRh) for i._ZN4mbed14AT_CellularSMS10create_pduEPKcS2_hhhRh
    .\build\at_cellularsms.o(.ARM.exidx) refers to .\build\at_cellularsms.o(i._ZN4mbed14AT_CellularSMS8send_smsEPKcS2_i) for i._ZN4mbed14AT_CellularSMS8send_smsEPKcS2_i
    .\build\at_cellularsms.o(.ARM.exidx) refers to .\build\at_cellularsms.o(i._ZN4mbed14AT_CellularSMS16free_linked_listEv) for i._ZN4mbed14AT_CellularSMS16free_linked_listEv
    .\build\at_cellularsms.o(.ARM.exidx) refers to .\build\at_cellularsms.o(i._ZN4mbed14AT_CellularSMS10delete_smsEPNS0_10sms_info_tE) for i._ZN4mbed14AT_CellularSMS10delete_smsEPNS0_10sms_info_tE
    .\build\at_cellularsms.o(.ARM.exidx) refers to .\build\at_cellularsms.o(i._ZN4mbed14AT_CellularSMS19read_sms_from_indexEiPctS1_S1_) for i._ZN4mbed14AT_CellularSMS19read_sms_from_indexEiPctS1_S1_
    .\build\at_cellularsms.o(.ARM.exidx) refers to .\build\at_cellularsms.o(i._ZN4mbed14AT_CellularSMS23unpack_7_bit_gsm_to_strEPKciPcii) for i._ZN4mbed14AT_CellularSMS23unpack_7_bit_gsm_to_strEPKciPcii
    .\build\at_cellularsms.o(.ARM.exidx) refers to .\build\at_cellularsms.o(i._ZN4mbed14AT_CellularSMS16read_pdu_payloadEPKciiPci) for i._ZN4mbed14AT_CellularSMS16read_pdu_payloadEPKciiPci
    .\build\at_cellularsms.o(.ARM.exidx) refers to .\build\at_cellularsms.o(i._ZN4mbed14AT_CellularSMS17read_udh_from_pduEPKcPNS0_10sms_info_tERiS5_) for i._ZN4mbed14AT_CellularSMS17read_udh_from_pduEPKcPNS0_10sms_info_tERiS5_
    .\build\at_cellularsms.o(.ARM.exidx) refers to .\build\at_cellularsms.o(i._ZN4mbed14AT_CellularSMS17get_data_from_pduEPKcPNS0_10sms_info_tEPiPcS6_) for i._ZN4mbed14AT_CellularSMS17get_data_from_pduEPKcPNS0_10sms_info_tEPiPcS6_
    .\build\at_cellularsms.o(.ARM.exidx) refers to .\build\at_cellularsms.o(i._ZN4mbed14AT_CellularSMS8read_smsEPNS0_10sms_info_tEPcS3_S3_) for i._ZN4mbed14AT_CellularSMS8read_smsEPNS0_10sms_info_tEPcS3_S3_
    .\build\at_cellularsms.o(.ARM.exidx) refers to .\build\at_cellularsms.o(i._ZN4mbed14AT_CellularSMS11create_timeEPKcPj) for i._ZN4mbed14AT_CellularSMS11create_timeEPKcPj
    .\build\at_cellularsms.o(.ARM.exidx) refers to .\build\at_cellularsms.o(i._ZN4mbed14AT_CellularSMS20compare_time_stringsEPKcS2_) for i._ZN4mbed14AT_CellularSMS20compare_time_stringsEPKcS2_
    .\build\at_cellularsms.o(.ARM.exidx) refers to .\build\at_cellularsms.o(i._ZN4mbed14AT_CellularSMS20get_oldest_sms_indexEv) for i._ZN4mbed14AT_CellularSMS20get_oldest_sms_indexEv
    .\build\at_cellularsms.o(.ARM.exidx) refers to .\build\at_cellularsms.o(i._ZN4mbed14AT_CellularSMS8add_infoEPNS0_10sms_info_tEii) for i._ZN4mbed14AT_CellularSMS8add_infoEPNS0_10sms_info_tEii
    .\build\at_cellularsms.o(.ARM.exidx) refers to .\build\at_cellularsms.o(i._ZN4mbed14AT_CellularSMS13list_messagesEv) for i._ZN4mbed14AT_CellularSMS13list_messagesEv
    .\build\at_cellularsms.o(.ARM.exidx) refers to .\build\at_cellularsms.o(i._ZN4mbed14AT_CellularSMS7get_smsEPctS1_tS1_tPi) for i._ZN4mbed14AT_CellularSMS7get_smsEPctS1_tS1_tPi
    .\build\at_cellularsms.o(.ARM.exidx) refers to .\build\at_cellularsms.o(i._ZN4mbed14AT_CellularSMS16set_sms_callbackENS_8CallbackIFvvEEE) for i._ZN4mbed14AT_CellularSMS16set_sms_callbackENS_8CallbackIFvvEEE
    .\build\at_cellularsms.o(.ARM.exidx) refers to .\build\at_cellularsms.o(i._ZN4mbed14AT_CellularSMS8set_cpmsEPKcS2_S2_) for i._ZN4mbed14AT_CellularSMS8set_cpmsEPKcS2_S2_
    .\build\at_cellularsms.o(.ARM.exidx) refers to .\build\at_cellularsms.o(i._ZN4mbed14AT_CellularSMS8set_cscaEPKci) for i._ZN4mbed14AT_CellularSMS8set_cscaEPKci
    .\build\at_cellularsms.o(.ARM.exidx) refers to .\build\at_cellularsms.o(i._ZN4mbed14AT_CellularSMS8set_cscsEPKc) for i._ZN4mbed14AT_CellularSMS8set_cscsEPKc
    .\build\at_cellularsms.o(.ARM.exidx) refers to .\build\at_cellularsms.o(i._ZN4mbed14AT_CellularSMS19delete_all_messagesEv) for i._ZN4mbed14AT_CellularSMS19delete_all_messagesEv
    .\build\at_cellularsms.o(.ARM.exidx) refers to .\build\at_cellularsms.o(i._ZN4mbed14AT_CellularSMS23set_extra_sim_wait_timeEi) for i._ZN4mbed14AT_CellularSMS23set_extra_sim_wait_timeEi
    .\build\at_cellularsms.o(.ARM.exidx) refers to .\build\at_cellularsms.o(i._ZN4mbed14AT_CellularSMS7cmt_urcEv) for i._ZN4mbed14AT_CellularSMS7cmt_urcEv
    .\build\at_cellularsms.o(.ARM.exidx) refers to .\build\at_cellularsms.o(i._ZN4mbed14AT_CellularSMS8cmti_urcEv) for i._ZN4mbed14AT_CellularSMS8cmti_urcEv
    .\build\at_cellularsms.o(.constdata) refers to .\build\at_cellularsms.o(i._ZN4mbed14AT_CellularSMS8cmti_urcEv) for mbed::AT_CellularSMS::cmti_urc()
    .\build\at_cellularsms.o(.constdata) refers to .\build\at_cellularsms.o(i._ZN4mbed14AT_CellularSMS7cmt_urcEv) for mbed::AT_CellularSMS::cmt_urc()
    .\build\at_cellularstack.o(i._ZN4mbed16AT_CellularStack11socket_bindEPvRK13SocketAddress) refers to .\build\socketaddress.o(i._ZNK13SocketAddresscvbEv) for SocketAddress::operator bool() const
    .\build\at_cellularstack.o(i._ZN4mbed16AT_CellularStack11socket_bindEPvRK13SocketAddress) refers to .\build\socketaddress.o(i._ZNK13SocketAddress8get_addrEv) for SocketAddress::get_addr() const
    .\build\at_cellularstack.o(i._ZN4mbed16AT_CellularStack11socket_bindEPvRK13SocketAddress) refers to .\build\socketaddress.o(i._ZN13SocketAddress8set_addrE10nsapi_addr) for SocketAddress::set_addr(nsapi_addr)
    .\build\at_cellularstack.o(i._ZN4mbed16AT_CellularStack11socket_bindEPvRK13SocketAddress) refers to .\build\socketaddress.o(i._ZNK13SocketAddress8get_portEv) for SocketAddress::get_port() const
    .\build\at_cellularstack.o(i._ZN4mbed16AT_CellularStack11socket_bindEPvRK13SocketAddress) refers to .\build\socketaddress.o(i._ZN13SocketAddress8set_portEt) for SocketAddress::set_port(unsigned short)
    .\build\at_cellularstack.o(i._ZN4mbed16AT_CellularStack11socket_bindEPvRK13SocketAddress) refers to .\build\athandler.o(i._ZN4mbed9ATHandler4lockEv) for mbed::ATHandler::lock()
    .\build\at_cellularstack.o(i._ZN4mbed16AT_CellularStack11socket_bindEPvRK13SocketAddress) refers to .\build\athandler.o(i._ZN4mbed9ATHandler19unlock_return_errorEv) for mbed::ATHandler::unlock_return_error()
    .\build\at_cellularstack.o(i._ZN4mbed16AT_CellularStack11socket_openEPPv14nsapi_protocol) refers to .\build\mbed_retarget.o(i._Znaj) for operator new[] (unsigned)
    .\build\at_cellularstack.o(i._ZN4mbed16AT_CellularStack11socket_openEPPv14nsapi_protocol) refers to .\build\mbed_retarget.o(i._Znwj) for operator new(unsigned)
    .\build\at_cellularstack.o(i._ZN4mbed16AT_CellularStack11socket_openEPPv14nsapi_protocol) refers to D:\Keil_v5\ARM\ARMCC\Bin\..\lib\armlib\c_w.l(rt_memclr_w.o)(.text) for __aeabi_memclr4
    .\build\at_cellularstack.o(i._ZN4mbed16AT_CellularStack11socket_openEPPv14nsapi_protocol) refers to .\build\socketaddress.o(i._ZN13SocketAddressC1E10nsapi_addrt) for SocketAddress::SocketAddress(nsapi_addr, unsigned short)
    .\build\at_cellularstack.o(i._ZN4mbed16AT_CellularStack11socket_openEPPv14nsapi_protocol) refers to .\build\cellularutil.o(i._ZN18mbed_cellular_util19get_dynamic_ip_portEv) for mbed_cellular_util::get_dynamic_ip_port()
    .\build\at_cellularstack.o(i._ZN4mbed16AT_CellularStack11socket_openEPPv14nsapi_protocol) refers to .\build\socketaddress.o(i._ZN13SocketAddressC1EPKct) for SocketAddress::SocketAddress(const char*, unsigned short)
    .\build\at_cellularstack.o(i._ZN4mbed16AT_CellularStack11socket_openEPPv14nsapi_protocol) refers to D:\Keil_v5\ARM\ARMCC\Bin\..\lib\armlib\c_w.l(rt_memcpy_v6.o)(.text) for __aeabi_memcpy
    .\build\at_cellularstack.o(i._ZN4mbed16AT_CellularStack12socket_closeEPv) refers to .\build\athandler.o(i._ZN4mbed9ATHandler4lockEv) for mbed::ATHandler::lock()
    .\build\at_cellularstack.o(i._ZN4mbed16AT_CellularStack12socket_closeEPv) refers to .\build\athandler.o(i._ZN4mbed9ATHandler6unlockEv) for mbed::ATHandler::unlock()
    .\build\at_cellularstack.o(i._ZN4mbed16AT_CellularStack12socket_closeEPv) refers to .\build\mbed_retarget.o(i._ZdlPv) for operator delete (void*)
    .\build\at_cellularstack.o(i._ZN4mbed16AT_CellularStack13socket_sendtoEPvRK13SocketAddressPKvj) refers to .\build\athandler.o(i._ZN4mbed9ATHandler4lockEv) for mbed::ATHandler::lock()
    .\build\at_cellularstack.o(i._ZN4mbed16AT_CellularStack13socket_sendtoEPvRK13SocketAddressPKvj) refers to .\build\athandler.o(i._ZN4mbed9ATHandler6unlockEv) for mbed::ATHandler::unlock()
    .\build\at_cellularstack.o(i._ZN4mbed16AT_CellularStack13socket_sendtoEPvRK13SocketAddressPKvj) refers to .\build\socketaddress.o(i._ZNK13SocketAddress14get_ip_versionEv) for SocketAddress::get_ip_version() const
    .\build\at_cellularstack.o(i._ZN4mbed16AT_CellularStack14get_ip_addressEv) refers to .\build\athandler.o(i._ZN4mbed9ATHandler4lockEv) for mbed::ATHandler::lock()
    .\build\at_cellularstack.o(i._ZN4mbed16AT_CellularStack14get_ip_addressEv) refers to .\build\athandler.o(i._ZN4mbed9ATHandler9cmd_startEPKc) for mbed::ATHandler::cmd_start(const char*)
    .\build\at_cellularstack.o(i._ZN4mbed16AT_CellularStack14get_ip_addressEv) refers to .\build\athandler.o(i._ZN4mbed9ATHandler9write_intEi) for mbed::ATHandler::write_int(int)
    .\build\at_cellularstack.o(i._ZN4mbed16AT_CellularStack14get_ip_addressEv) refers to .\build\athandler.o(i._ZN4mbed9ATHandler8cmd_stopEv) for mbed::ATHandler::cmd_stop()
    .\build\at_cellularstack.o(i._ZN4mbed16AT_CellularStack14get_ip_addressEv) refers to .\build\athandler.o(i._ZN4mbed9ATHandler10resp_startEPKcb) for mbed::ATHandler::resp_start(const char*, bool)
    .\build\at_cellularstack.o(i._ZN4mbed16AT_CellularStack14get_ip_addressEv) refers to .\build\athandler.o(i._ZN4mbed9ATHandler9info_respEv) for mbed::ATHandler::info_resp()
    .\build\at_cellularstack.o(i._ZN4mbed16AT_CellularStack14get_ip_addressEv) refers to .\build\athandler.o(i._ZN4mbed9ATHandler10skip_paramEj) for mbed::ATHandler::skip_param(unsigned)
    .\build\at_cellularstack.o(i._ZN4mbed16AT_CellularStack14get_ip_addressEv) refers to .\build\athandler.o(i._ZN4mbed9ATHandler11read_stringEPcjb) for mbed::ATHandler::read_string(char*, unsigned, bool)
    .\build\at_cellularstack.o(i._ZN4mbed16AT_CellularStack14get_ip_addressEv) refers to .\build\athandler.o(i._ZN4mbed9ATHandler9resp_stopEv) for mbed::ATHandler::resp_stop()
    .\build\at_cellularstack.o(i._ZN4mbed16AT_CellularStack14get_ip_addressEv) refers to .\build\athandler.o(i._ZN4mbed9ATHandler6unlockEv) for mbed::ATHandler::unlock()
    .\build\at_cellularstack.o(i._ZN4mbed16AT_CellularStack14get_ip_addressEv) refers to .\build\cellularutil.o(i._ZN18mbed_cellular_util12convert_ipv6EPc) for mbed_cellular_util::convert_ipv6(char*)
    .\build\at_cellularstack.o(i._ZN4mbed16AT_CellularStack14socket_connectEPvRK13SocketAddress) refers to D:\Keil_v5\ARM\ARMCC\Bin\..\lib\armlib\c_w.l(rt_memcpy_v6.o)(.text) for __aeabi_memcpy
    .\build\at_cellularstack.o(i._ZN4mbed16AT_CellularStack15socket_recvfromEPvP13SocketAddressS1_j) refers to .\build\athandler.o(i._ZN4mbed9ATHandler4lockEv) for mbed::ATHandler::lock()
    .\build\at_cellularstack.o(i._ZN4mbed16AT_CellularStack15socket_recvfromEPvP13SocketAddressS1_j) refers to .\build\athandler.o(i._ZN4mbed9ATHandler6unlockEv) for mbed::ATHandler::unlock()
    .\build\at_cellularstack.o(i._ZN4mbed16AT_CellularStackC2ERNS_9ATHandlerEi14nsapi_ip_stack) refers to .\build\at_cellularbase.o(i._ZN4mbed15AT_CellularBaseC1ERNS_9ATHandlerE) for mbed::AT_CellularBase::AT_CellularBase(mbed::ATHandler&)
    .\build\at_cellularstack.o(i._ZN4mbed16AT_CellularStackC2ERNS_9ATHandlerEi14nsapi_ip_stack) refers to D:\Keil_v5\ARM\ARMCC\Bin\..\lib\armlib\c_w.l(rt_memclr_w.o)(.text) for __aeabi_memclr4
    .\build\at_cellularstack.o(i._ZN4mbed16AT_CellularStackC2ERNS_9ATHandlerEi14nsapi_ip_stack) refers to .\build\networkstack.o(.constdata__ZTV12NetworkStack) for vtable for NetworkStack
    .\build\at_cellularstack.o(i._ZN4mbed16AT_CellularStackC2ERNS_9ATHandlerEi14nsapi_ip_stack) refers to .\build\at_cellularstack.o(.constdata__ZTVN4mbed16AT_CellularStackE) for vtable for mbed::AT_CellularStack
    .\build\at_cellularstack.o(i._ZN4mbed16AT_CellularStackD0Ev) refers to .\build\at_cellularstack.o(i._ZN4mbed16AT_CellularStackD2Ev) for mbed::AT_CellularStack::~AT_CellularStack__sub_object()
    .\build\at_cellularstack.o(i._ZN4mbed16AT_CellularStackD0Ev) refers to .\build\mbed_retarget.o(i._ZdlPv) for operator delete (void*)
    .\build\at_cellularstack.o(i._ZN4mbed16AT_CellularStackD2Ev) refers to .\build\mbed_retarget.o(i._ZdlPv) for operator delete (void*)
    .\build\at_cellularstack.o(i._ZN4mbed16AT_CellularStackD2Ev) refers to .\build\mbed_retarget.o(i._ZdaPv) for operator delete[] (void*)
    .\build\at_cellularstack.o(i._ZN4mbed16AT_CellularStackD2Ev) refers to .\build\at_cellularstack.o(.constdata__ZTVN4mbed16AT_CellularStackE) for vtable for mbed::AT_CellularStack
    .\build\at_cellularstack.o(.ARM.exidx) refers to .\build\at_cellularstack.o(i._ZN4mbed16AT_CellularStackC2ERNS_9ATHandlerEi14nsapi_ip_stack) for i._ZN4mbed16AT_CellularStackC2ERNS_9ATHandlerEi14nsapi_ip_stack
    .\build\at_cellularstack.o(.ARM.exidx) refers to .\build\at_cellularstack.o(i._ZN4mbed16AT_CellularStackD2Ev) for i._ZN4mbed16AT_CellularStackD2Ev
    .\build\at_cellularstack.o(.ARM.exidx) refers to .\build\at_cellularstack.o(i._ZN4mbed16AT_CellularStackD0Ev) for i._ZN4mbed16AT_CellularStackD0Ev
    .\build\at_cellularstack.o(.ARM.exidx) refers to .\build\at_cellularstack.o(i._ZN4mbed16AT_CellularStack14get_ip_addressEv) for i._ZN4mbed16AT_CellularStack14get_ip_addressEv
    .\build\at_cellularstack.o(.ARM.exidx) refers to .\build\at_cellularstack.o(i._ZN4mbed16AT_CellularStack11socket_openEPPv14nsapi_protocol) for i._ZN4mbed16AT_CellularStack11socket_openEPPv14nsapi_protocol
    .\build\at_cellularstack.o(.ARM.exidx) refers to .\build\at_cellularstack.o(i._ZN4mbed16AT_CellularStack12socket_closeEPv) for i._ZN4mbed16AT_CellularStack12socket_closeEPv
    .\build\at_cellularstack.o(.ARM.exidx) refers to .\build\at_cellularstack.o(i._ZN4mbed16AT_CellularStack11socket_bindEPvRK13SocketAddress) for i._ZN4mbed16AT_CellularStack11socket_bindEPvRK13SocketAddress
    .\build\at_cellularstack.o(.ARM.exidx) refers to .\build\at_cellularstack.o(i._ZN4mbed16AT_CellularStack13socket_listenEPvi) for i._ZN4mbed16AT_CellularStack13socket_listenEPvi
    .\build\at_cellularstack.o(.ARM.exidx) refers to .\build\at_cellularstack.o(i._ZN4mbed16AT_CellularStack14socket_connectEPvRK13SocketAddress) for i._ZN4mbed16AT_CellularStack14socket_connectEPvRK13SocketAddress
    .\build\at_cellularstack.o(.ARM.exidx) refers to .\build\at_cellularstack.o(i._ZN4mbed16AT_CellularStack13socket_acceptEPvPS1_P13SocketAddress) for i._ZN4mbed16AT_CellularStack13socket_acceptEPvPS1_P13SocketAddress
    .\build\at_cellularstack.o(.ARM.exidx) refers to .\build\at_cellularstack.o(i._ZN4mbed16AT_CellularStack11socket_sendEPvPKvj) for i._ZN4mbed16AT_CellularStack11socket_sendEPvPKvj
    .\build\at_cellularstack.o(.ARM.exidx) refers to .\build\at_cellularstack.o(i._ZN4mbed16AT_CellularStack11socket_recvEPvS1_j) for i._ZN4mbed16AT_CellularStack11socket_recvEPvS1_j
    .\build\at_cellularstack.o(.ARM.exidx) refers to .\build\at_cellularstack.o(i._ZN4mbed16AT_CellularStack13socket_sendtoEPvRK13SocketAddressPKvj) for i._ZN4mbed16AT_CellularStack13socket_sendtoEPvRK13SocketAddressPKvj
    .\build\at_cellularstack.o(.ARM.exidx) refers to .\build\at_cellularstack.o(i._ZN4mbed16AT_CellularStack15socket_recvfromEPvP13SocketAddressS1_j) for i._ZN4mbed16AT_CellularStack15socket_recvfromEPvP13SocketAddressS1_j
    .\build\at_cellularstack.o(.ARM.exidx) refers to .\build\at_cellularstack.o(i._ZN4mbed16AT_CellularStack13socket_attachEPvPFvS1_ES1_) for i._ZN4mbed16AT_CellularStack13socket_attachEPvPFvS1_ES1_
    .\build\atcmdparser.o(i._Z8debug_ifiPKcz) refers to D:\Keil_v5\ARM\ARMCC\Bin\..\lib\armlib\c_w.l(c89vfprintf.o)(.text) for __c89vfprintf
    .\build\atcmdparser.o(i._Z8debug_ifiPKcz) refers to D:\Keil_v5\ARM\ARMCC\Bin\..\lib\armlib\c_w.l(stdio_streams.o)(.bss) for __stderr
    .\build\atcmdparser.o(i._ZN4mbed11ATCmdParser11process_oobEv) refers to .\build\atcmdparser.o(i._ZNK4mbed10FileHandle8readableEv) for mbed::FileHandle::readable() const
    .\build\atcmdparser.o(i._ZN4mbed11ATCmdParser11process_oobEv) refers to .\build\atcmdparser.o(i._ZN4mbed11ATCmdParser4getcEv) for mbed::ATCmdParser::getc()
    .\build\atcmdparser.o(i._ZN4mbed11ATCmdParser11process_oobEv) refers to D:\Keil_v5\ARM\ARMCC\Bin\..\lib\armlib\c_w.l(memcmp.o)(.text) for memcmp
    .\build\atcmdparser.o(i._ZN4mbed11ATCmdParser11process_oobEv) refers to .\build\atcmdparser.o(i._Z8debug_ifiPKcz) for debug_if(int, const char*, ...)
    .\build\atcmdparser.o(i._ZN4mbed11ATCmdParser11process_oobEv) refers to .\build\at_cellularsms.o(t._ZNK4mbed8CallbackIFvvEEclEv) for mbed::Callback<void()>::operator ()() const
    .\build\atcmdparser.o(i._ZN4mbed11ATCmdParser3oobEPKcNS_8CallbackIFvvEEE) refers to .\build\mbed_retarget.o(i._Znwj) for operator new(unsigned)
    .\build\atcmdparser.o(i._ZN4mbed11ATCmdParser3oobEPKcNS_8CallbackIFvvEEE) refers to D:\Keil_v5\ARM\ARMCC\Bin\..\lib\armlib\c_w.l(strlen.o)(.text) for strlen
    .\build\atcmdparser.o(i._ZN4mbed11ATCmdParser4getcEv) refers to .\build\mbed_poll.o(i._ZN4mbed4pollEPNS_6pollfhEji) for mbed::poll(mbed::pollfh*, unsigned, int)
    .\build\atcmdparser.o(i._ZN4mbed11ATCmdParser4putcEc) refers to .\build\mbed_poll.o(i._ZN4mbed4pollEPNS_6pollfhEji) for mbed::poll(mbed::pollfh*, unsigned, int)
    .\build\atcmdparser.o(i._ZN4mbed11ATCmdParser4readEPci) refers to .\build\atcmdparser.o(i._ZN4mbed11ATCmdParser4getcEv) for mbed::ATCmdParser::getc()
    .\build\atcmdparser.o(i._ZN4mbed11ATCmdParser4recvEPKcz) refers to .\build\atcmdparser.o(i._ZN4mbed11ATCmdParser5vrecvEPKcSt9__va_list) for mbed::ATCmdParser::vrecv(const char*, std::__va_list)
    .\build\atcmdparser.o(i._ZN4mbed11ATCmdParser4sendEPKcz) refers to .\build\atcmdparser.o(i._ZN4mbed11ATCmdParser5vsendEPKcSt9__va_list) for mbed::ATCmdParser::vsend(const char*, std::__va_list)
    .\build\atcmdparser.o(i._ZN4mbed11ATCmdParser5flushEv) refers to .\build\atcmdparser.o(i._ZNK4mbed10FileHandle8readableEv) for mbed::FileHandle::readable() const
    .\build\atcmdparser.o(i._ZN4mbed11ATCmdParser5scanfEPKcz) refers to .\build\atcmdparser.o(i._ZN4mbed11ATCmdParser6vscanfEPKcSt9__va_list) for mbed::ATCmdParser::vscanf(const char*, std::__va_list)
    .\build\atcmdparser.o(i._ZN4mbed11ATCmdParser5vrecvEPKcSt9__va_list) refers to .\build\atcmdparser.o(i._Z8debug_ifiPKcz) for debug_if(int, const char*, ...)
    .\build\atcmdparser.o(i._ZN4mbed11ATCmdParser5vrecvEPKcSt9__va_list) refers to .\build\atcmdparser.o(i._ZN4mbed11ATCmdParser4getcEv) for mbed::ATCmdParser::getc()
    .\build\atcmdparser.o(i._ZN4mbed11ATCmdParser5vrecvEPKcSt9__va_list) refers to D:\Keil_v5\ARM\ARMCC\Bin\..\lib\armlib\c_w.l(memcmp.o)(.text) for memcmp
    .\build\atcmdparser.o(i._ZN4mbed11ATCmdParser5vrecvEPKcSt9__va_list) refers to .\build\at_cellularsms.o(t._ZNK4mbed8CallbackIFvvEEclEv) for mbed::Callback<void()>::operator ()() const
    .\build\atcmdparser.o(i._ZN4mbed11ATCmdParser5vrecvEPKcSt9__va_list) refers to D:\Keil_v5\ARM\ARMCC\Bin\..\lib\armlib\c_w.l(sscanf.o)(.text) for sscanf
    .\build\atcmdparser.o(i._ZN4mbed11ATCmdParser5vrecvEPKcSt9__va_list) refers to D:\Keil_v5\ARM\ARMCC\Bin\..\lib\armlib\c_w.l(rt_memcpy_v6.o)(.text) for __aeabi_memcpy
    .\build\atcmdparser.o(i._ZN4mbed11ATCmdParser5vrecvEPKcSt9__va_list) refers to D:\Keil_v5\ARM\ARMCC\Bin\..\lib\armlib\c_w.l(vsscanf.o)(.text) for vsscanf
    .\build\atcmdparser.o(i._ZN4mbed11ATCmdParser5vsendEPKcSt9__va_list) refers to D:\Keil_v5\ARM\ARMCC\Bin\..\lib\armlib\c_w.l(c89vsprintf.o)(.text) for __c89vsprintf
    .\build\atcmdparser.o(i._ZN4mbed11ATCmdParser5vsendEPKcSt9__va_list) refers to .\build\atcmdparser.o(i._ZN4mbed11ATCmdParser4putcEc) for mbed::ATCmdParser::putc(char)
    .\build\atcmdparser.o(i._ZN4mbed11ATCmdParser5vsendEPKcSt9__va_list) refers to .\build\atcmdparser.o(i._Z8debug_ifiPKcz) for debug_if(int, const char*, ...)
    .\build\atcmdparser.o(i._ZN4mbed11ATCmdParser5writeEPKci) refers to .\build\atcmdparser.o(i._ZN4mbed11ATCmdParser4putcEc) for mbed::ATCmdParser::putc(char)
    .\build\atcmdparser.o(i._ZN4mbed11ATCmdParser6printfEPKcz) refers to .\build\atcmdparser.o(i._ZN4mbed11ATCmdParser7vprintfEPKcSt9__va_list) for mbed::ATCmdParser::vprintf(const char*, std::__va_list)
    .\build\atcmdparser.o(i._ZN4mbed11ATCmdParser6vscanfEPKcSt9__va_list) refers to .\build\atcmdparser.o(i._ZN4mbed11ATCmdParser4getcEv) for mbed::ATCmdParser::getc()
    .\build\atcmdparser.o(i._ZN4mbed11ATCmdParser6vscanfEPKcSt9__va_list) refers to D:\Keil_v5\ARM\ARMCC\Bin\..\lib\armlib\c_w.l(sscanf.o)(.text) for sscanf
    .\build\atcmdparser.o(i._ZN4mbed11ATCmdParser6vscanfEPKcSt9__va_list) refers to D:\Keil_v5\ARM\ARMCC\Bin\..\lib\armlib\c_w.l(vsscanf.o)(.text) for vsscanf
    .\build\atcmdparser.o(i._ZN4mbed11ATCmdParser7vprintfEPKcSt9__va_list) refers to D:\Keil_v5\ARM\ARMCC\Bin\..\lib\armlib\c_w.l(c89vsprintf.o)(.text) for __c89vsprintf
    .\build\atcmdparser.o(i._ZN4mbed11ATCmdParser7vprintfEPKcSt9__va_list) refers to .\build\atcmdparser.o(i._ZN4mbed11ATCmdParser4putcEc) for mbed::ATCmdParser::putc(char)
    .\build\atcmdparser.o(.ARM.exidx) refers to .\build\atcmdparser.o(i._ZN4mbed11ATCmdParser4putcEc) for i._ZN4mbed11ATCmdParser4putcEc
    .\build\atcmdparser.o(.ARM.exidx) refers to .\build\atcmdparser.o(i._ZN4mbed11ATCmdParser5vsendEPKcSt9__va_list) for i._ZN4mbed11ATCmdParser5vsendEPKcSt9__va_list
    .\build\atcmdparser.o(.ARM.exidx) refers to .\build\atcmdparser.o(i._ZN4mbed11ATCmdParser4sendEPKcz) for i._ZN4mbed11ATCmdParser4sendEPKcz
    .\build\atcmdparser.o(.ARM.exidx) refers to .\build\atcmdparser.o(i._ZN4mbed11ATCmdParser4getcEv) for i._ZN4mbed11ATCmdParser4getcEv
    .\build\atcmdparser.o(.ARM.exidx) refers to .\build\atcmdparser.o(i._ZN4mbed11ATCmdParser5vrecvEPKcSt9__va_list) for i._ZN4mbed11ATCmdParser5vrecvEPKcSt9__va_list
    .\build\atcmdparser.o(.ARM.exidx) refers to .\build\atcmdparser.o(i._ZN4mbed11ATCmdParser4recvEPKcz) for i._ZN4mbed11ATCmdParser4recvEPKcz
    .\build\atcmdparser.o(.ARM.exidx) refers to .\build\atcmdparser.o(i._ZN4mbed11ATCmdParser5writeEPKci) for i._ZN4mbed11ATCmdParser5writeEPKci
    .\build\atcmdparser.o(.ARM.exidx) refers to .\build\atcmdparser.o(i._ZN4mbed11ATCmdParser4readEPci) for i._ZN4mbed11ATCmdParser4readEPci
    .\build\atcmdparser.o(.ARM.exidx) refers to .\build\atcmdparser.o(i._ZN4mbed11ATCmdParser7vprintfEPKcSt9__va_list) for i._ZN4mbed11ATCmdParser7vprintfEPKcSt9__va_list
    .\build\atcmdparser.o(.ARM.exidx) refers to .\build\atcmdparser.o(i._ZN4mbed11ATCmdParser6printfEPKcz) for i._ZN4mbed11ATCmdParser6printfEPKcz
    .\build\atcmdparser.o(.ARM.exidx) refers to .\build\atcmdparser.o(i._ZN4mbed11ATCmdParser6vscanfEPKcSt9__va_list) for i._ZN4mbed11ATCmdParser6vscanfEPKcSt9__va_list
    .\build\atcmdparser.o(.ARM.exidx) refers to .\build\atcmdparser.o(i._ZN4mbed11ATCmdParser5scanfEPKcz) for i._ZN4mbed11ATCmdParser5scanfEPKcz
    .\build\atcmdparser.o(.ARM.exidx) refers to .\build\atcmdparser.o(i._ZN4mbed11ATCmdParser3oobEPKcNS_8CallbackIFvvEEE) for i._ZN4mbed11ATCmdParser3oobEPKcNS_8CallbackIFvvEEE
    .\build\atcmdparser.o(.ARM.exidx) refers to .\build\atcmdparser.o(i._ZN4mbed11ATCmdParser5flushEv) for i._ZN4mbed11ATCmdParser5flushEv
    .\build\atcmdparser.o(.ARM.exidx) refers to .\build\atcmdparser.o(i._ZN4mbed11ATCmdParser5abortEv) for i._ZN4mbed11ATCmdParser5abortEv
    .\build\atcmdparser.o(.ARM.exidx) refers to .\build\atcmdparser.o(i._ZN4mbed11ATCmdParser11process_oobEv) for i._ZN4mbed11ATCmdParser11process_oobEv
    .\build\atcmdparser.o(.ARM.exidx) refers to .\build\atcmdparser.o(i._Z8debug_ifiPKcz) for i._Z8debug_ifiPKcz
    .\build\athandler.o(i._ZN4mbed9ATHandler10read_bytesEPhj) refers to .\build\athandler.o(i._ZN4mbed9ATHandler8get_charEv) for mbed::ATHandler::get_char()
    .\build\athandler.o(i._ZN4mbed9ATHandler10read_bytesEPhj) refers to .\build\athandler.o(i._ZN4mbed9ATHandler9set_errorEi) for mbed::ATHandler::set_error(int)
    .\build\athandler.o(i._ZN4mbed9ATHandler10resp_startEPKcb) refers to .\build\athandler.o(i._ZN4mbed9ATHandler13rewind_bufferEv) for mbed::ATHandler::rewind_buffer()
    .\build\athandler.o(i._ZN4mbed9ATHandler10resp_startEPKcb) refers to .\build\athandler.o(i._ZN4mbed9ATHandler11fill_bufferEv) for mbed::ATHandler::fill_buffer()
    .\build\athandler.o(i._ZN4mbed9ATHandler10resp_startEPKcb) refers to D:\Keil_v5\ARM\ARMCC\Bin\..\lib\armlib\c_w.l(strlen.o)(.text) for strlen
    .\build\athandler.o(i._ZN4mbed9ATHandler10resp_startEPKcb) refers to D:\Keil_v5\ARM\ARMCC\Bin\..\lib\armlib\c_w.l(strcpy.o)(.text) for strcpy
    .\build\athandler.o(i._ZN4mbed9ATHandler10resp_startEPKcb) refers to .\build\mbed_assert.o(i.mbed_assert_internal) for mbed_assert_internal
    .\build\athandler.o(i._ZN4mbed9ATHandler10resp_startEPKcb) refers to .\build\athandler.o(i._ZN4mbed9ATHandler9set_scopeENS0_9ScopeTypeE) for mbed::ATHandler::set_scope(mbed::ATHandler::ScopeType)
    .\build\athandler.o(i._ZN4mbed9ATHandler10resp_startEPKcb) refers to .\build\athandler.o(i._ZN4mbed9ATHandler4respEPKcb) for mbed::ATHandler::resp(const char*, bool)
    .\build\athandler.o(i._ZN4mbed9ATHandler10set_stringEPcPKcj) refers to D:\Keil_v5\ARM\ARMCC\Bin\..\lib\armlib\c_w.l(rt_memcpy_v6.o)(.text) for __aeabi_memcpy
    .\build\athandler.o(i._ZN4mbed9ATHandler10skip_paramEij) refers to .\build\athandler.o(i._ZN4mbed9ATHandler8get_charEv) for mbed::ATHandler::get_char()
    .\build\athandler.o(i._ZN4mbed9ATHandler10skip_paramEij) refers to .\build\athandler.o(i._ZN4mbed9ATHandler9set_errorEi) for mbed::ATHandler::set_error(int)
    .\build\athandler.o(i._ZN4mbed9ATHandler10skip_paramEj) refers to .\build\athandler.o(i._ZN4mbed9ATHandler8get_charEv) for mbed::ATHandler::get_char()
    .\build\athandler.o(i._ZN4mbed9ATHandler10skip_paramEj) refers to .\build\athandler.o(i._ZN4mbed9ATHandler9set_errorEi) for mbed::ATHandler::set_error(int)
    .\build\athandler.o(i._ZN4mbed9ATHandler11fill_bufferEv) refers to .\build\athandler.o(i._ZN4mbed9ATHandler12reset_bufferEv) for mbed::ATHandler::reset_buffer()
    .\build\athandler.o(i._ZN4mbed9ATHandler11fill_bufferEv) refers to .\build\timer.o(i._ZN4mbed5TimerC1Ev) for mbed::Timer::Timer()
    .\build\athandler.o(i._ZN4mbed9ATHandler11fill_bufferEv) refers to .\build\timer.o(i._ZN4mbed5Timer5startEv) for mbed::Timer::start()
    .\build\athandler.o(i._ZN4mbed9ATHandler11fill_bufferEv) refers to .\build\timer.o(i._ZN4mbed5TimerD1Ev) for mbed::Timer::~Timer()
    .\build\athandler.o(i._ZN4mbed9ATHandler11fill_bufferEv) refers to .\build\thread.o(i._ZN4rtos6Thread5yieldEv) for rtos::Thread::yield()
    .\build\athandler.o(i._ZN4mbed9ATHandler11fill_bufferEv) refers to .\build\timer.o(i._ZN4mbed5Timer7read_msEv) for mbed::Timer::read_ms()
    .\build\athandler.o(i._ZN4mbed9ATHandler11fill_bufferEv) refers to .\build\athandler.o(i._ZN4mbed9ATHandler9set_errorEi) for mbed::ATHandler::set_error(int)
    .\build\athandler.o(i._ZN4mbed9ATHandler11match_errorEv) refers to .\build\athandler.o(i._ZN4mbed9ATHandler5matchEPKcj) for mbed::ATHandler::match(const char*, unsigned)
    .\build\athandler.o(i._ZN4mbed9ATHandler11match_errorEv) refers to .\build\athandler.o(i._ZN4mbed9ATHandler8at_errorEbNS_15DeviceErrorTypeE) for mbed::ATHandler::at_error(bool, mbed::DeviceErrorType)
    .\build\athandler.o(i._ZN4mbed9ATHandler11match_errorEv) refers to .\build\athandler.o(.data) for .data
    .\build\athandler.o(i._ZN4mbed9ATHandler11process_oobEv) refers to .\build\athandler.o(i._ZN4mbed9ATHandler4lockEv) for mbed::ATHandler::lock()
    .\build\athandler.o(i._ZN4mbed9ATHandler11process_oobEv) refers to .\build\atcmdparser.o(i._ZNK4mbed10FileHandle8readableEv) for mbed::FileHandle::readable() const
    .\build\athandler.o(i._ZN4mbed9ATHandler11process_oobEv) refers to .\build\timer.o(i._ZN4mbed5TimerC1Ev) for mbed::Timer::Timer()
    .\build\athandler.o(i._ZN4mbed9ATHandler11process_oobEv) refers to .\build\timer.o(i._ZN4mbed5Timer5startEv) for mbed::Timer::start()
    .\build\athandler.o(i._ZN4mbed9ATHandler11process_oobEv) refers to .\build\athandler.o(i._ZN4mbed9ATHandler9match_urcEv) for mbed::ATHandler::match_urc()
    .\build\athandler.o(i._ZN4mbed9ATHandler11process_oobEv) refers to .\build\athandler.o(i._ZN4mbed9ATHandler7mem_strEPKcjS2_j) for mbed::ATHandler::mem_str(const char*, unsigned, const char*, unsigned)
    .\build\athandler.o(i._ZN4mbed9ATHandler11process_oobEv) refers to .\build\athandler.o(i._ZN4mbed9ATHandler14consume_to_tagEPKcb) for mbed::ATHandler::consume_to_tag(const char*, bool)
    .\build\athandler.o(i._ZN4mbed9ATHandler11process_oobEv) refers to .\build\athandler.o(i._ZN4mbed9ATHandler11fill_bufferEv) for mbed::ATHandler::fill_buffer()
    .\build\athandler.o(i._ZN4mbed9ATHandler11process_oobEv) refers to .\build\thread.o(i._ZN4rtos6Thread5yieldEv) for rtos::Thread::yield()
    .\build\athandler.o(i._ZN4mbed9ATHandler11process_oobEv) refers to .\build\timer.o(i._ZN4mbed5Timer7read_msEv) for mbed::Timer::read_ms()
    .\build\athandler.o(i._ZN4mbed9ATHandler11process_oobEv) refers to .\build\timer.o(i._ZN4mbed5TimerD1Ev) for mbed::Timer::~Timer()
    .\build\athandler.o(i._ZN4mbed9ATHandler11process_oobEv) refers to .\build\athandler.o(i._ZN4mbed9ATHandler5flushEv) for mbed::ATHandler::flush()
    .\build\athandler.o(i._ZN4mbed9ATHandler11process_oobEv) refers to .\build\athandler.o(i._ZN4mbed9ATHandler6unlockEv) for mbed::ATHandler::unlock()
    .\build\athandler.o(i._ZN4mbed9ATHandler11process_oobEv) refers to .\build\athandler.o(.data) for .data
    .\build\athandler.o(i._ZN4mbed9ATHandler11read_stringEPcjb) refers to .\build\athandler.o(i._ZN4mbed9ATHandler12consume_charEc) for mbed::ATHandler::consume_char(char)
    .\build\athandler.o(i._ZN4mbed9ATHandler11read_stringEPcjb) refers to .\build\athandler.o(i._ZN4mbed9ATHandler8get_charEv) for mbed::ATHandler::get_char()
    .\build\athandler.o(i._ZN4mbed9ATHandler11read_stringEPcjb) refers to .\build\athandler.o(i._ZN4mbed9ATHandler9set_errorEi) for mbed::ATHandler::set_error(int)
    .\build\athandler.o(i._ZN4mbed9ATHandler11write_bytesEPKhj) refers to .\build\athandler.o(i._ZN4mbed9ATHandler5writeEPKvj) for mbed::ATHandler::write(const void*, unsigned)
    .\build\athandler.o(i._ZN4mbed9ATHandler12consume_charEc) refers to .\build\athandler.o(i._ZN4mbed9ATHandler8get_charEv) for mbed::ATHandler::get_char()
    .\build\athandler.o(i._ZN4mbed9ATHandler12set_stop_tagEPKc) refers to .\build\athandler.o(i._ZN4mbed9ATHandler7set_tagEPNS0_5tag_tEPKc) for mbed::ATHandler::set_tag(mbed::ATHandler::tag_t*, const char*)
    .\build\athandler.o(i._ZN4mbed9ATHandler12write_stringEPKcb) refers to .\build\athandler.o(i._ZN4mbed9ATHandler14check_cmd_sendEv) for mbed::ATHandler::check_cmd_send()
    .\build\athandler.o(i._ZN4mbed9ATHandler12write_stringEPKcb) refers to .\build\athandler.o(i._ZN4mbed9ATHandler5writeEPKvj) for mbed::ATHandler::write(const void*, unsigned)
    .\build\athandler.o(i._ZN4mbed9ATHandler12write_stringEPKcb) refers to D:\Keil_v5\ARM\ARMCC\Bin\..\lib\armlib\c_w.l(strlen.o)(.text) for strlen
    .\build\athandler.o(i._ZN4mbed9ATHandler13rewind_bufferEv) refers to D:\Keil_v5\ARM\ARMCC\Bin\..\lib\armlib\c_w.l(rt_memmove_v6.o)(.text) for __aeabi_memmove
    .\build\athandler.o(i._ZN4mbed9ATHandler14check_cmd_sendEv) refers to .\build\athandler.o(i._ZN4mbed9ATHandler5writeEPKvj) for mbed::ATHandler::write(const void*, unsigned)
    .\build\athandler.o(i._ZN4mbed9ATHandler14consume_to_tagEPKcb) refers to .\build\athandler.o(i._ZN4mbed9ATHandler8get_charEv) for mbed::ATHandler::get_char()
    .\build\athandler.o(i._ZN4mbed9ATHandler14consume_to_tagEPKcb) refers to D:\Keil_v5\ARM\ARMCC\Bin\..\lib\armlib\c_w.l(strlen.o)(.text) for strlen
    .\build\athandler.o(i._ZN4mbed9ATHandler14set_3gpp_errorEiNS_15DeviceErrorTypeE) refers to .\build\athandler.o(.constdata) for .constdata
    .\build\athandler.o(i._ZN4mbed9ATHandler15set_urc_handlerEPKcNS_8CallbackIFvvEEE) refers to .\build\mbed_retarget.o(i._Znwj) for operator new(unsigned)
    .\build\athandler.o(i._ZN4mbed9ATHandler15set_urc_handlerEPKcNS_8CallbackIFvvEEE) refers to D:\Keil_v5\ARM\ARMCC\Bin\..\lib\armlib\c_w.l(strlen.o)(.text) for strlen
    .\build\athandler.o(i._ZN4mbed9ATHandler15set_urc_handlerEPKcNS_8CallbackIFvvEEE) refers to .\build\at_cellularsms.o(t._ZN4mbed8CallbackIFvvEED1Ev) for mbed::Callback<void()>::~Callback()
    .\build\athandler.o(i._ZN4mbed9ATHandler15set_urc_handlerEPKcNS_8CallbackIFvvEEE) refers to .\build\athandler.o(t._ZN4mbed8CallbackIFvvEEC1ERKS2_) for mbed::Callback<void()>::Callback(const mbed::Callback<void()>&)
    .\build\athandler.o(i._ZN4mbed9ATHandler19consume_to_stop_tagEv) refers to .\build\athandler.o(i._ZN4mbed9ATHandler14consume_to_tagEPKcb) for mbed::ATHandler::consume_to_tag(const char*, bool)
    .\build\athandler.o(i._ZN4mbed9ATHandler19consume_to_stop_tagEv) refers to .\build\athandler.o(i._ZN4mbed9ATHandler9set_errorEi) for mbed::ATHandler::set_error(int)
    .\build\athandler.o(i._ZN4mbed9ATHandler19unlock_return_errorEv) refers to .\build\athandler.o(i._ZN4mbed9ATHandler6unlockEv) for mbed::ATHandler::unlock()
    .\build\athandler.o(i._ZN4mbed9ATHandler20set_filehandle_sigioEv) refers to .\build\athandler.o(t._ZN4mbed8CallbackIFvvEEC1INS_9ATHandlerES4_EEPT0_MT_FvvE) for mbed::Callback<void()>::Callback<mbed::ATHandler, mbed::ATHandler>(T2*, void(T1::*)())
    .\build\athandler.o(i._ZN4mbed9ATHandler20set_filehandle_sigioEv) refers to .\build\at_cellularsms.o(t._ZN4mbed8CallbackIFvvEED1Ev) for mbed::Callback<void()>::~Callback()
    .\build\athandler.o(i._ZN4mbed9ATHandler20set_filehandle_sigioEv) refers to .\build\athandler.o(.constdata) for .constdata
    .\build\athandler.o(i._ZN4mbed9ATHandler25information_response_stopEv) refers to .\build\athandler.o(i._ZN4mbed9ATHandler19consume_to_stop_tagEv) for mbed::ATHandler::consume_to_stop_tag()
    .\build\athandler.o(i._ZN4mbed9ATHandler25information_response_stopEv) refers to .\build\athandler.o(i._ZN4mbed9ATHandler9set_scopeENS0_9ScopeTypeE) for mbed::ATHandler::set_scope(mbed::ATHandler::ScopeType)
    .\build\athandler.o(i._ZN4mbed9ATHandler33information_response_element_stopEv) refers to .\build\athandler.o(i._ZN4mbed9ATHandler19consume_to_stop_tagEv) for mbed::ATHandler::consume_to_stop_tag()
    .\build\athandler.o(i._ZN4mbed9ATHandler33information_response_element_stopEv) refers to .\build\athandler.o(i._ZN4mbed9ATHandler9set_scopeENS0_9ScopeTypeE) for mbed::ATHandler::set_scope(mbed::ATHandler::ScopeType)
    .\build\athandler.o(i._ZN4mbed9ATHandler4lockEv) refers to .\build\mutex.o(i._ZN4rtos5Mutex4lockEj) for rtos::Mutex::lock(unsigned)
    .\build\athandler.o(i._ZN4mbed9ATHandler4lockEv) refers to .\build\athandler.o(i._ZN4mbed9ATHandler11clear_errorEv) for mbed::ATHandler::clear_error()
    .\build\athandler.o(i._ZN4mbed9ATHandler4respEPKcb) refers to .\build\athandler.o(i._ZN4mbed9ATHandler5matchEPKcj) for mbed::ATHandler::match(const char*, unsigned)
    .\build\athandler.o(i._ZN4mbed9ATHandler4respEPKcb) refers to .\build\athandler.o(i._ZN4mbed9ATHandler9set_scopeENS0_9ScopeTypeE) for mbed::ATHandler::set_scope(mbed::ATHandler::ScopeType)
    .\build\athandler.o(i._ZN4mbed9ATHandler4respEPKcb) refers to .\build\athandler.o(i._ZN4mbed9ATHandler11match_errorEv) for mbed::ATHandler::match_error()
    .\build\athandler.o(i._ZN4mbed9ATHandler4respEPKcb) refers to D:\Keil_v5\ARM\ARMCC\Bin\..\lib\armlib\c_w.l(strlen.o)(.text) for strlen
    .\build\athandler.o(i._ZN4mbed9ATHandler4respEPKcb) refers to .\build\athandler.o(i._ZN4mbed9ATHandler9match_urcEv) for mbed::ATHandler::match_urc()
    .\build\athandler.o(i._ZN4mbed9ATHandler4respEPKcb) refers to .\build\athandler.o(i._ZN4mbed9ATHandler7mem_strEPKcjS2_j) for mbed::ATHandler::mem_str(const char*, unsigned, const char*, unsigned)
    .\build\athandler.o(i._ZN4mbed9ATHandler4respEPKcb) refers to .\build\athandler.o(i._ZN4mbed9ATHandler14consume_to_tagEPKcb) for mbed::ATHandler::consume_to_tag(const char*, bool)
    .\build\athandler.o(i._ZN4mbed9ATHandler4respEPKcb) refers to .\build\athandler.o(i._ZN4mbed9ATHandler11fill_bufferEv) for mbed::ATHandler::fill_buffer()
    .\build\athandler.o(i._ZN4mbed9ATHandler4respEPKcb) refers to .\build\athandler.o(i._ZNK4mbed9ATHandler14get_last_errorEv) for mbed::ATHandler::get_last_error() const
    .\build\athandler.o(i._ZN4mbed9ATHandler4respEPKcb) refers to .\build\athandler.o(.data) for .data
    .\build\athandler.o(i._ZN4mbed9ATHandler5eventEv) refers to .\build\athandler.o(t._ZN4mbed8CallbackIFvvEEC1INS_9ATHandlerES4_EEPT0_MT_FvvE) for mbed::Callback<void()>::Callback<mbed::ATHandler, mbed::ATHandler>(T2*, void(T1::*)())
    .\build\athandler.o(i._ZN4mbed9ATHandler5eventEv) refers to .\build\athandler.o(t._ZN6events10EventQueue4callIN4mbed8CallbackIFvvEEEEEiT_) for int events::EventQueue::call<mbed::Callback<void()>>(T1)
    .\build\athandler.o(i._ZN4mbed9ATHandler5eventEv) refers to .\build\at_cellularsms.o(t._ZN4mbed8CallbackIFvvEED1Ev) for mbed::Callback<void()>::~Callback()
    .\build\athandler.o(i._ZN4mbed9ATHandler5eventEv) refers to .\build\athandler.o(.constdata) for .constdata
    .\build\athandler.o(i._ZN4mbed9ATHandler5flushEv) refers to .\build\athandler.o(i._ZN4mbed9ATHandler12reset_bufferEv) for mbed::ATHandler::reset_buffer()
    .\build\athandler.o(i._ZN4mbed9ATHandler5flushEv) refers to .\build\athandler.o(i._ZN4mbed9ATHandler11fill_bufferEv) for mbed::ATHandler::fill_buffer()
    .\build\athandler.o(i._ZN4mbed9ATHandler5flushEv) refers to .\build\atcmdparser.o(i._ZNK4mbed10FileHandle8readableEv) for mbed::FileHandle::readable() const
    .\build\athandler.o(i._ZN4mbed9ATHandler5matchEPKcj) refers to .\build\athandler.o(i._ZN4mbed9ATHandler13rewind_bufferEv) for mbed::ATHandler::rewind_buffer()
    .\build\athandler.o(i._ZN4mbed9ATHandler5matchEPKcj) refers to D:\Keil_v5\ARM\ARMCC\Bin\..\lib\armlib\c_w.l(memcmp.o)(.text) for memcmp
    .\build\athandler.o(i._ZN4mbed9ATHandler5writeEPKvj) refers to .\build\mbed_poll.o(i._ZN4mbed4pollEPNS_6pollfhEji) for mbed::poll(mbed::pollfh*, unsigned, int)
    .\build\athandler.o(i._ZN4mbed9ATHandler5writeEPKvj) refers to .\build\athandler.o(i._ZN4mbed9ATHandler9set_errorEi) for mbed::ATHandler::set_error(int)
    .\build\athandler.o(i._ZN4mbed9ATHandler6unlockEv) refers to .\build\mutex.o(i._ZN4rtos5Mutex6unlockEv) for rtos::Mutex::unlock()
    .\build\athandler.o(i._ZN4mbed9ATHandler6unlockEv) refers to .\build\atcmdparser.o(i._ZNK4mbed10FileHandle8readableEv) for mbed::FileHandle::readable() const
    .\build\athandler.o(i._ZN4mbed9ATHandler6unlockEv) refers to .\build\athandler.o(t._ZN4mbed8CallbackIFvvEEC1INS_9ATHandlerES4_EEPT0_MT_FvvE) for mbed::Callback<void()>::Callback<mbed::ATHandler, mbed::ATHandler>(T2*, void(T1::*)())
    .\build\athandler.o(i._ZN4mbed9ATHandler6unlockEv) refers to .\build\athandler.o(t._ZN6events10EventQueue4callIN4mbed8CallbackIFvvEEEEEiT_) for int events::EventQueue::call<mbed::Callback<void()>>(T1)
    .\build\athandler.o(i._ZN4mbed9ATHandler6unlockEv) refers to .\build\at_cellularsms.o(t._ZN4mbed8CallbackIFvvEED1Ev) for mbed::Callback<void()>::~Callback()
    .\build\athandler.o(i._ZN4mbed9ATHandler6unlockEv) refers to .\build\athandler.o(.constdata) for .constdata
    .\build\athandler.o(i._ZN4mbed9ATHandler7mem_strEPKcjS2_j) refers to D:\Keil_v5\ARM\ARMCC\Bin\..\lib\armlib\c_w.l(memcmp.o)(.text) for memcmp
    .\build\athandler.o(i._ZN4mbed9ATHandler7set_tagEPNS0_5tag_tEPKc) refers to D:\Keil_v5\ARM\ARMCC\Bin\..\lib\armlib\c_w.l(strlen.o)(.text) for strlen
    .\build\athandler.o(i._ZN4mbed9ATHandler7set_tagEPNS0_5tag_tEPKc) refers to .\build\athandler.o(i._ZN4mbed9ATHandler10set_stringEPcPKcj) for mbed::ATHandler::set_string(char*, const char*, unsigned)
    .\build\athandler.o(i._ZN4mbed9ATHandler8at_errorEbNS_15DeviceErrorTypeE) refers to .\build\athandler.o(i._ZN4mbed9ATHandler9set_scopeENS0_9ScopeTypeE) for mbed::ATHandler::set_scope(mbed::ATHandler::ScopeType)
    .\build\athandler.o(i._ZN4mbed9ATHandler8at_errorEbNS_15DeviceErrorTypeE) refers to .\build\athandler.o(i._ZN4mbed9ATHandler8read_intEv) for mbed::ATHandler::read_int()
    .\build\athandler.o(i._ZN4mbed9ATHandler8at_errorEbNS_15DeviceErrorTypeE) refers to .\build\athandler.o(i._ZN4mbed9ATHandler14set_3gpp_errorEiNS_15DeviceErrorTypeE) for mbed::ATHandler::set_3gpp_error(int, mbed::DeviceErrorType)
    .\build\athandler.o(i._ZN4mbed9ATHandler8cmd_stopEv) refers to .\build\athandler.o(i._ZN4mbed9ATHandler5writeEPKvj) for mbed::ATHandler::write(const void*, unsigned)
    .\build\athandler.o(i._ZN4mbed9ATHandler8get_charEv) refers to .\build\athandler.o(i._ZN4mbed9ATHandler12reset_bufferEv) for mbed::ATHandler::reset_buffer()
    .\build\athandler.o(i._ZN4mbed9ATHandler8get_charEv) refers to .\build\athandler.o(i._ZN4mbed9ATHandler11fill_bufferEv) for mbed::ATHandler::fill_buffer()
    .\build\athandler.o(i._ZN4mbed9ATHandler8get_charEv) refers to .\build\athandler.o(i._ZNK4mbed9ATHandler14get_last_errorEv) for mbed::ATHandler::get_last_error() const
    .\build\athandler.o(i._ZN4mbed9ATHandler8read_intEv) refers to .\build\athandler.o(i._ZN4mbed9ATHandler11read_stringEPcjb) for mbed::ATHandler::read_string(char*, unsigned, bool)
    .\build\athandler.o(i._ZN4mbed9ATHandler8read_intEv) refers to D:\Keil_v5\ARM\ARMCC\Bin\..\lib\armlib\c_w.l(strtol.o)(.text) for strtol
    .\build\athandler.o(i._ZN4mbed9ATHandler9cmd_startEPKc) refers to .\build\kernel.o(i._ZN4rtos6Kernel12get_ms_countEv) for rtos::Kernel::get_ms_count()
    .\build\athandler.o(i._ZN4mbed9ATHandler9cmd_startEPKc) refers to .\build\mbed_wait_api_rtos.o(i.wait_ms) for wait_ms
    .\build\athandler.o(i._ZN4mbed9ATHandler9cmd_startEPKc) refers to D:\Keil_v5\ARM\ARMCC\Bin\..\lib\armlib\c_w.l(strlen.o)(.text) for strlen
    .\build\athandler.o(i._ZN4mbed9ATHandler9cmd_startEPKc) refers to .\build\athandler.o(i._ZN4mbed9ATHandler5writeEPKvj) for mbed::ATHandler::write(const void*, unsigned)
    .\build\athandler.o(i._ZN4mbed9ATHandler9info_elemEc) refers to .\build\athandler.o(i._ZN4mbed9ATHandler9get_scopeEv) for mbed::ATHandler::get_scope()
    .\build\athandler.o(i._ZN4mbed9ATHandler9info_elemEc) refers to .\build\athandler.o(i._ZN4mbed9ATHandler33information_response_element_stopEv) for mbed::ATHandler::information_response_element_stop()
    .\build\athandler.o(i._ZN4mbed9ATHandler9info_elemEc) refers to .\build\athandler.o(i._ZN4mbed9ATHandler12consume_charEc) for mbed::ATHandler::consume_char(char)
    .\build\athandler.o(i._ZN4mbed9ATHandler9info_elemEc) refers to .\build\athandler.o(i._ZN4mbed9ATHandler9set_scopeENS0_9ScopeTypeE) for mbed::ATHandler::set_scope(mbed::ATHandler::ScopeType)
    .\build\athandler.o(i._ZN4mbed9ATHandler9info_respEv) refers to .\build\athandler.o(i._ZN4mbed9ATHandler9get_scopeEv) for mbed::ATHandler::get_scope()
    .\build\athandler.o(i._ZN4mbed9ATHandler9info_respEv) refers to .\build\athandler.o(i._ZN4mbed9ATHandler25information_response_stopEv) for mbed::ATHandler::information_response_stop()
    .\build\athandler.o(i._ZN4mbed9ATHandler9info_respEv) refers to .\build\athandler.o(i._ZN4mbed9ATHandler4respEPKcb) for mbed::ATHandler::resp(const char*, bool)
    .\build\athandler.o(i._ZN4mbed9ATHandler9info_respEv) refers to .\build\athandler.o(i._ZN4mbed9ATHandler9set_scopeENS0_9ScopeTypeE) for mbed::ATHandler::set_scope(mbed::ATHandler::ScopeType)
    .\build\athandler.o(i._ZN4mbed9ATHandler9match_urcEv) refers to .\build\athandler.o(i._ZN4mbed9ATHandler13rewind_bufferEv) for mbed::ATHandler::rewind_buffer()
    .\build\athandler.o(i._ZN4mbed9ATHandler9match_urcEv) refers to D:\Keil_v5\ARM\ARMCC\Bin\..\lib\armlib\c_w.l(strlen.o)(.text) for strlen
    .\build\athandler.o(i._ZN4mbed9ATHandler9match_urcEv) refers to .\build\athandler.o(i._ZN4mbed9ATHandler5matchEPKcj) for mbed::ATHandler::match(const char*, unsigned)
    .\build\athandler.o(i._ZN4mbed9ATHandler9match_urcEv) refers to .\build\athandler.o(i._ZN4mbed9ATHandler9set_scopeENS0_9ScopeTypeE) for mbed::ATHandler::set_scope(mbed::ATHandler::ScopeType)
    .\build\athandler.o(i._ZN4mbed9ATHandler9match_urcEv) refers to .\build\at_cellularsms.o(t._ZNK4mbed8CallbackIFvvEEclEv) for mbed::Callback<void()>::operator ()() const
    .\build\athandler.o(i._ZN4mbed9ATHandler9match_urcEv) refers to .\build\athandler.o(i._ZN4mbed9ATHandler25information_response_stopEv) for mbed::ATHandler::information_response_stop()
    .\build\athandler.o(i._ZN4mbed9ATHandler9resp_stopEv) refers to .\build\athandler.o(i._ZN4mbed9ATHandler33information_response_element_stopEv) for mbed::ATHandler::information_response_element_stop()
    .\build\athandler.o(i._ZN4mbed9ATHandler9resp_stopEv) refers to .\build\athandler.o(i._ZN4mbed9ATHandler9set_scopeENS0_9ScopeTypeE) for mbed::ATHandler::set_scope(mbed::ATHandler::ScopeType)
    .\build\athandler.o(i._ZN4mbed9ATHandler9resp_stopEv) refers to .\build\athandler.o(i._ZN4mbed9ATHandler25information_response_stopEv) for mbed::ATHandler::information_response_stop()
    .\build\athandler.o(i._ZN4mbed9ATHandler9resp_stopEv) refers to .\build\athandler.o(i._ZN4mbed9ATHandler19consume_to_stop_tagEv) for mbed::ATHandler::consume_to_stop_tag()
    .\build\athandler.o(i._ZN4mbed9ATHandler9resp_stopEv) refers to .\build\athandler.o(i._ZN4mbed9ATHandler7set_tagEPNS0_5tag_tEPKc) for mbed::ATHandler::set_tag(mbed::ATHandler::tag_t*, const char*)
    .\build\athandler.o(i._ZN4mbed9ATHandler9resp_stopEv) refers to .\build\kernel.o(i._ZN4rtos6Kernel12get_ms_countEv) for rtos::Kernel::get_ms_count()
    .\build\athandler.o(i._ZN4mbed9ATHandler9resp_stopEv) refers to .\build\athandler.o(.data) for .data
    .\build\athandler.o(i._ZN4mbed9ATHandler9set_scopeENS0_9ScopeTypeE) refers to .\build\athandler.o(i._ZN4mbed9ATHandler12consume_charEc) for mbed::ATHandler::consume_char(char)
    .\build\athandler.o(i._ZN4mbed9ATHandler9write_intEi) refers to D:\Keil_v5\ARM\ARMCC\Bin\..\lib\armlib\c_w.l(_printf_percent.o)(.ARM.Collect$$_printf_percent$$00000000) for _printf_percent
    .\build\athandler.o(i._ZN4mbed9ATHandler9write_intEi) refers to D:\Keil_v5\ARM\ARMCC\Bin\..\lib\armlib\c_w.l(_printf_d.o)(.ARM.Collect$$_printf_percent$$00000009) for _printf_d
    .\build\athandler.o(i._ZN4mbed9ATHandler9write_intEi) refers to D:\Keil_v5\ARM\ARMCC\Bin\..\lib\armlib\c_w.l(_printf_dec.o)(.text) for _printf_int_dec
    .\build\athandler.o(i._ZN4mbed9ATHandler9write_intEi) refers to .\build\athandler.o(i._ZN4mbed9ATHandler14check_cmd_sendEv) for mbed::ATHandler::check_cmd_send()
    .\build\athandler.o(i._ZN4mbed9ATHandler9write_intEi) refers to D:\Keil_v5\ARM\ARMCC\Bin\..\lib\armlib\c_w.l(__2sprintf.o)(.text) for __2sprintf
    .\build\athandler.o(i._ZN4mbed9ATHandler9write_intEi) refers to D:\Keil_v5\ARM\ARMCC\Bin\..\lib\armlib\c_w.l(strlen.o)(.text) for strlen
    .\build\athandler.o(i._ZN4mbed9ATHandler9write_intEi) refers to .\build\athandler.o(i._ZN4mbed9ATHandler5writeEPKvj) for mbed::ATHandler::write(const void*, unsigned)
    .\build\athandler.o(i._ZN4mbed9ATHandlerC1EPNS_10FileHandleERN6events10EventQueueEiPKct) refers to .\build\mutex.o(i._ZN4rtos5MutexC1Ev) for rtos::Mutex::Mutex()
    .\build\athandler.o(i._ZN4mbed9ATHandlerC1EPNS_10FileHandleERN6events10EventQueueEiPKct) refers to .\build\athandler.o(i._ZN4mbed9ATHandler11clear_errorEv) for mbed::ATHandler::clear_error()
    .\build\athandler.o(i._ZN4mbed9ATHandlerC1EPNS_10FileHandleERN6events10EventQueueEiPKct) refers to D:\Keil_v5\ARM\ARMCC\Bin\..\lib\armlib\c_w.l(strlen.o)(.text) for strlen
    .\build\athandler.o(i._ZN4mbed9ATHandlerC1EPNS_10FileHandleERN6events10EventQueueEiPKct) refers to .\build\mbed_retarget.o(i._Znaj) for operator new[] (unsigned)
    .\build\athandler.o(i._ZN4mbed9ATHandlerC1EPNS_10FileHandleERN6events10EventQueueEiPKct) refers to .\build\athandler.o(i._ZN4mbed9ATHandler12reset_bufferEv) for mbed::ATHandler::reset_buffer()
    .\build\athandler.o(i._ZN4mbed9ATHandlerC1EPNS_10FileHandleERN6events10EventQueueEiPKct) refers to .\build\athandler.o(i._ZN4mbed9ATHandler7set_tagEPNS0_5tag_tEPKc) for mbed::ATHandler::set_tag(mbed::ATHandler::tag_t*, const char*)
    .\build\athandler.o(i._ZN4mbed9ATHandlerC1EPNS_10FileHandleERN6events10EventQueueEiPKct) refers to .\build\athandler.o(i._ZN4mbed9ATHandler20set_filehandle_sigioEv) for mbed::ATHandler::set_filehandle_sigio()
    .\build\athandler.o(i._ZN4mbed9ATHandlerC1EPNS_10FileHandleERN6events10EventQueueEiPKct) refers to .\build\athandler.o(.data) for .data
    .\build\athandler.o(i._ZN4mbed9ATHandlerD1Ev) refers to .\build\at_cellularsms.o(t._ZN4mbed8CallbackIFvvEED1Ev) for mbed::Callback<void()>::~Callback()
    .\build\athandler.o(i._ZN4mbed9ATHandlerD1Ev) refers to .\build\mbed_retarget.o(i._ZdlPv) for operator delete (void*)
    .\build\athandler.o(i._ZN4mbed9ATHandlerD1Ev) refers to .\build\mbed_retarget.o(i._ZdaPv) for operator delete[] (void*)
    .\build\athandler.o(i._ZN4mbed9ATHandlerD1Ev) refers to .\build\mutex.o(i._ZN4rtos5MutexD1Ev) for rtos::Mutex::~Mutex()
    .\build\athandler.o(.ARM.exidx) refers to .\build\athandler.o(i._ZN4mbed9ATHandler20set_filehandle_sigioEv) for i._ZN4mbed9ATHandler20set_filehandle_sigioEv
    .\build\athandler.o(.ARM.exidx) refers to .\build\athandler.o(i._ZN4mbed9ATHandler10set_stringEPcPKcj) for i._ZN4mbed9ATHandler10set_stringEPcPKcj
    .\build\athandler.o(.ARM.exidx) refers to .\build\athandler.o(i._ZN4mbed9ATHandler7set_tagEPNS0_5tag_tEPKc) for i._ZN4mbed9ATHandler7set_tagEPNS0_5tag_tEPKc
    .\build\athandler.o(.ARM.exidx) refers to .\build\athandler.o(i._ZN4mbed9ATHandler12reset_bufferEv) for i._ZN4mbed9ATHandler12reset_bufferEv
    .\build\athandler.o(.ARM.exidx) refers to .\build\athandler.o(i._ZN4mbed9ATHandler11clear_errorEv) for i._ZN4mbed9ATHandler11clear_errorEv
    .\build\athandler.o(.ARM.exidx) refers to .\build\athandler.o(i._ZN4mbed9ATHandlerC1EPNS_10FileHandleERN6events10EventQueueEiPKct) for i._ZN4mbed9ATHandlerC1EPNS_10FileHandleERN6events10EventQueueEiPKct
    .\build\athandler.o(.ARM.exidx) refers to .\build\athandler.o(i._ZN4mbed9ATHandlerD1Ev) for i._ZN4mbed9ATHandlerD1Ev
    .\build\athandler.o(.ARM.exidx) refers to .\build\athandler.o(i._ZN4mbed9ATHandler15get_file_handleEv) for i._ZN4mbed9ATHandler15get_file_handleEv
    .\build\athandler.o(.ARM.exidx) refers to .\build\athandler.o(i._ZN4mbed9ATHandler15set_file_handleEPNS_10FileHandleE) for i._ZN4mbed9ATHandler15set_file_handleEPNS_10FileHandleE
    .\build\athandler.o(.ARM.exidx) refers to .\build\athandler.o(i._ZN4mbed9ATHandler4lockEv) for i._ZN4mbed9ATHandler4lockEv
    .\build\athandler.o(.ARM.exidx) refers to .\build\athandler.o(i._ZN4mbed9ATHandler6unlockEv) for i._ZN4mbed9ATHandler6unlockEv
    .\build\athandler.o(.ARM.exidx) refers to .\build\athandler.o(i._ZN4mbed9ATHandler19unlock_return_errorEv) for i._ZN4mbed9ATHandler19unlock_return_errorEv
    .\build\athandler.o(.ARM.exidx) refers to .\build\athandler.o(i._ZN4mbed9ATHandler15set_urc_handlerEPKcNS_8CallbackIFvvEEE) for i._ZN4mbed9ATHandler15set_urc_handlerEPKcNS_8CallbackIFvvEEE
    .\build\athandler.o(.ARM.exidx) refers to .\build\athandler.o(i._ZNK4mbed9ATHandler14get_last_errorEv) for i._ZNK4mbed9ATHandler14get_last_errorEv
    .\build\athandler.o(.ARM.exidx) refers to .\build\athandler.o(i._ZNK4mbed9ATHandler21get_last_device_errorEv) for i._ZNK4mbed9ATHandler21get_last_device_errorEv
    .\build\athandler.o(.ARM.exidx) refers to .\build\athandler.o(i._ZN4mbed9ATHandler13inc_ref_countEv) for i._ZN4mbed9ATHandler13inc_ref_countEv
    .\build\athandler.o(.ARM.exidx) refers to .\build\athandler.o(i._ZN4mbed9ATHandler13dec_ref_countEv) for i._ZN4mbed9ATHandler13dec_ref_countEv
    .\build\athandler.o(.ARM.exidx) refers to .\build\athandler.o(i._ZN4mbed9ATHandler13get_ref_countEv) for i._ZN4mbed9ATHandler13get_ref_countEv
    .\build\athandler.o(.ARM.exidx) refers to .\build\athandler.o(i._ZN4mbed9ATHandler14set_at_timeoutEjb) for i._ZN4mbed9ATHandler14set_at_timeoutEjb
    .\build\athandler.o(.ARM.exidx) refers to .\build\athandler.o(i._ZN4mbed9ATHandler18restore_at_timeoutEv) for i._ZN4mbed9ATHandler18restore_at_timeoutEv
    .\build\athandler.o(.ARM.exidx) refers to .\build\athandler.o(i._ZN4mbed9ATHandler9set_errorEi) for i._ZN4mbed9ATHandler9set_errorEi
    .\build\athandler.o(.ARM.exidx) refers to .\build\athandler.o(i._ZN4mbed9ATHandler11fill_bufferEv) for i._ZN4mbed9ATHandler11fill_bufferEv
    .\build\athandler.o(.ARM.exidx) refers to .\build\athandler.o(i._ZN4mbed9ATHandler5flushEv) for i._ZN4mbed9ATHandler5flushEv
    .\build\athandler.o(.ARM.exidx) refers to .\build\athandler.o(i._ZN4mbed9ATHandler8get_charEv) for i._ZN4mbed9ATHandler8get_charEv
    .\build\athandler.o(.ARM.exidx) refers to .\build\athandler.o(i._ZN4mbed9ATHandler14consume_to_tagEPKcb) for i._ZN4mbed9ATHandler14consume_to_tagEPKcb
    .\build\athandler.o(.ARM.exidx) refers to .\build\athandler.o(i._ZN4mbed9ATHandler7mem_strEPKcjS2_j) for i._ZN4mbed9ATHandler7mem_strEPKcjS2_j
    .\build\athandler.o(.ARM.exidx) refers to .\build\athandler.o(i._ZN4mbed9ATHandler12consume_charEc) for i._ZN4mbed9ATHandler12consume_charEc
    .\build\athandler.o(.ARM.exidx) refers to .\build\athandler.o(i._ZN4mbed9ATHandler9set_scopeENS0_9ScopeTypeE) for i._ZN4mbed9ATHandler9set_scopeENS0_9ScopeTypeE
    .\build\athandler.o(.ARM.exidx) refers to .\build\athandler.o(i._ZN4mbed9ATHandler19consume_to_stop_tagEv) for i._ZN4mbed9ATHandler19consume_to_stop_tagEv
    .\build\athandler.o(.ARM.exidx) refers to .\build\athandler.o(i._ZN4mbed9ATHandler25information_response_stopEv) for i._ZN4mbed9ATHandler25information_response_stopEv
    .\build\athandler.o(.ARM.exidx) refers to .\build\athandler.o(i._ZN4mbed9ATHandler13rewind_bufferEv) for i._ZN4mbed9ATHandler13rewind_bufferEv
    .\build\athandler.o(.ARM.exidx) refers to .\build\athandler.o(i._ZN4mbed9ATHandler5matchEPKcj) for i._ZN4mbed9ATHandler5matchEPKcj
    .\build\athandler.o(.ARM.exidx) refers to .\build\athandler.o(i._ZN4mbed9ATHandler9match_urcEv) for i._ZN4mbed9ATHandler9match_urcEv
    .\build\athandler.o(.ARM.exidx) refers to .\build\athandler.o(i._ZN4mbed9ATHandler11process_oobEv) for i._ZN4mbed9ATHandler11process_oobEv
    .\build\athandler.o(.ARM.exidx) refers to .\build\athandler.o(i._ZN4mbed9ATHandler5eventEv) for i._ZN4mbed9ATHandler5eventEv
    .\build\athandler.o(.ARM.exidx) refers to .\build\athandler.o(i._ZN4mbed9ATHandler5writeEPKvj) for i._ZN4mbed9ATHandler5writeEPKvj
    .\build\athandler.o(.ARM.exidx) refers to .\build\athandler.o(i._ZN4mbed9ATHandler9cmd_startEPKc) for i._ZN4mbed9ATHandler9cmd_startEPKc
    .\build\athandler.o(.ARM.exidx) refers to .\build\athandler.o(i._ZN4mbed9ATHandler14check_cmd_sendEv) for i._ZN4mbed9ATHandler14check_cmd_sendEv
    .\build\athandler.o(.ARM.exidx) refers to .\build\athandler.o(i._ZN4mbed9ATHandler9write_intEi) for i._ZN4mbed9ATHandler9write_intEi
    .\build\athandler.o(.ARM.exidx) refers to .\build\athandler.o(i._ZN4mbed9ATHandler12write_stringEPKcb) for i._ZN4mbed9ATHandler12write_stringEPKcb
    .\build\athandler.o(.ARM.exidx) refers to .\build\athandler.o(i._ZN4mbed9ATHandler8cmd_stopEv) for i._ZN4mbed9ATHandler8cmd_stopEv
    .\build\athandler.o(.ARM.exidx) refers to .\build\athandler.o(i._ZN4mbed9ATHandler11write_bytesEPKhj) for i._ZN4mbed9ATHandler11write_bytesEPKhj
    .\build\athandler.o(.ARM.exidx) refers to .\build\athandler.o(i._ZN4mbed9ATHandler12set_stop_tagEPKc) for i._ZN4mbed9ATHandler12set_stop_tagEPKc
    .\build\athandler.o(.ARM.exidx) refers to .\build\athandler.o(i._ZN4mbed9ATHandler13set_delimiterEc) for i._ZN4mbed9ATHandler13set_delimiterEc
    .\build\athandler.o(.ARM.exidx) refers to .\build\athandler.o(i._ZN4mbed9ATHandler21set_default_delimiterEv) for i._ZN4mbed9ATHandler21set_default_delimiterEv
    .\build\athandler.o(.ARM.exidx) refers to .\build\athandler.o(i._ZN4mbed9ATHandler10skip_paramEj) for i._ZN4mbed9ATHandler10skip_paramEj
    .\build\athandler.o(.ARM.exidx) refers to .\build\athandler.o(i._ZN4mbed9ATHandler10skip_paramEij) for i._ZN4mbed9ATHandler10skip_paramEij
    .\build\athandler.o(.ARM.exidx) refers to .\build\athandler.o(i._ZN4mbed9ATHandler10read_bytesEPhj) for i._ZN4mbed9ATHandler10read_bytesEPhj
    .\build\athandler.o(.ARM.exidx) refers to .\build\athandler.o(i._ZN4mbed9ATHandler11read_stringEPcjb) for i._ZN4mbed9ATHandler11read_stringEPcjb
    .\build\athandler.o(.ARM.exidx) refers to .\build\athandler.o(i._ZN4mbed9ATHandler8read_intEv) for i._ZN4mbed9ATHandler8read_intEv
    .\build\athandler.o(.ARM.exidx) refers to .\build\athandler.o(i._ZN4mbed9ATHandler14set_3gpp_errorEiNS_15DeviceErrorTypeE) for i._ZN4mbed9ATHandler14set_3gpp_errorEiNS_15DeviceErrorTypeE
    .\build\athandler.o(.ARM.exidx) refers to .\build\athandler.o(i._ZN4mbed9ATHandler8at_errorEbNS_15DeviceErrorTypeE) for i._ZN4mbed9ATHandler8at_errorEbNS_15DeviceErrorTypeE
    .\build\athandler.o(.ARM.exidx) refers to .\build\athandler.o(i._ZN4mbed9ATHandler11match_errorEv) for i._ZN4mbed9ATHandler11match_errorEv
    .\build\athandler.o(.ARM.exidx) refers to .\build\athandler.o(i._ZN4mbed9ATHandler4respEPKcb) for i._ZN4mbed9ATHandler4respEPKcb
    .\build\athandler.o(.ARM.exidx) refers to .\build\athandler.o(i._ZN4mbed9ATHandler10resp_startEPKcb) for i._ZN4mbed9ATHandler10resp_startEPKcb
    .\build\athandler.o(.ARM.exidx) refers to .\build\athandler.o(i._ZN4mbed9ATHandler33information_response_element_stopEv) for i._ZN4mbed9ATHandler33information_response_element_stopEv
    .\build\athandler.o(.ARM.exidx) refers to .\build\athandler.o(i._ZN4mbed9ATHandler9resp_stopEv) for i._ZN4mbed9ATHandler9resp_stopEv
    .\build\athandler.o(.ARM.exidx) refers to .\build\athandler.o(i._ZN4mbed9ATHandler9get_scopeEv) for i._ZN4mbed9ATHandler9get_scopeEv
    .\build\athandler.o(.ARM.exidx) refers to .\build\athandler.o(i._ZN4mbed9ATHandler9info_respEv) for i._ZN4mbed9ATHandler9info_respEv
    .\build\athandler.o(.ARM.exidx) refers to .\build\athandler.o(i._ZN4mbed9ATHandler9info_elemEc) for i._ZN4mbed9ATHandler9info_elemEc
    .\build\athandler.o(.ARM.exidx) refers to .\build\athandler.o(i._ZN4mbed9ATHandler12enable_debugEb) for i._ZN4mbed9ATHandler12enable_debugEb
    .\build\athandler.o(.ARM.exidx) refers to .\build\athandler.o(i._ZN4mbed9ATHandler14get_3gpp_errorEv) for i._ZN4mbed9ATHandler14get_3gpp_errorEv
    .\build\athandler.o(.constdata) refers to .\build\athandler.o(i._ZN4mbed9ATHandler11process_oobEv) for mbed::ATHandler::process_oob()
    .\build\athandler.o(.constdata) refers to .\build\athandler.o(i._ZN4mbed9ATHandler5eventEv) for mbed::ATHandler::event()
    .\build\athandler.o(.data) refers to .\build\athandler.o(.conststring) for .conststring
    .\build\base64.o(i.mbedtls_base64_decode) refers to .\build\base64.o(.constdata) for .constdata
    .\build\base64.o(i.mbedtls_base64_encode) refers to .\build\base64.o(.constdata) for .constdata
    .\build\base64.o(i.mbedtls_base64_self_test) refers to D:\Keil_v5\ARM\ARMCC\Bin\..\lib\armlib\c_w.l(__2printf.o)(.text) for __2printf
    .\build\base64.o(i.mbedtls_base64_self_test) refers to .\build\base64.o(i.mbedtls_base64_encode) for mbedtls_base64_encode
    .\build\base64.o(i.mbedtls_base64_self_test) refers to D:\Keil_v5\ARM\ARMCC\Bin\..\lib\armlib\c_w.l(memcmp.o)(.text) for memcmp
    .\build\base64.o(i.mbedtls_base64_self_test) refers to .\build\base64.o(i.mbedtls_base64_decode) for mbedtls_base64_decode
    .\build\base64.o(i.mbedtls_base64_self_test) refers to .\build\base64.o(.constdata) for .constdata
    .\build\bignum.o(i.mbedtls_int_div_int) refers to D:\Keil_v5\ARM\ARMCC\Bin\..\lib\armlib\c_w.l(lludivv7m.o)(.text) for __aeabi_uldivmod
    .\build\bignum.o(i.mbedtls_mpi_add_abs) refers to .\build\bignum.o(i.mbedtls_mpi_copy) for mbedtls_mpi_copy
    .\build\bignum.o(i.mbedtls_mpi_add_abs) refers to .\build\bignum.o(i.mbedtls_mpi_grow) for mbedtls_mpi_grow
    .\build\bignum.o(i.mbedtls_mpi_add_int) refers to .\build\bignum.o(i.mbedtls_mpi_add_mpi) for mbedtls_mpi_add_mpi
    .\build\bignum.o(i.mbedtls_mpi_add_mpi) refers to .\build\bignum.o(i.mbedtls_mpi_cmp_abs) for mbedtls_mpi_cmp_abs
    .\build\bignum.o(i.mbedtls_mpi_add_mpi) refers to .\build\bignum.o(i.mbedtls_mpi_sub_abs) for mbedtls_mpi_sub_abs
    .\build\bignum.o(i.mbedtls_mpi_add_mpi) refers to .\build\bignum.o(i.mbedtls_mpi_add_abs) for mbedtls_mpi_add_abs
    .\build\bignum.o(i.mbedtls_mpi_bitlen) refers to .\build\bignum.o(i.mbedtls_clz) for mbedtls_clz
    .\build\bignum.o(i.mbedtls_mpi_cmp_int) refers to .\build\bignum.o(i.mbedtls_mpi_cmp_mpi) for mbedtls_mpi_cmp_mpi
    .\build\bignum.o(i.mbedtls_mpi_copy) refers to .\build\bignum.o(i.mbedtls_mpi_free) for mbedtls_mpi_free
    .\build\bignum.o(i.mbedtls_mpi_copy) refers to .\build\bignum.o(i.mbedtls_mpi_grow) for mbedtls_mpi_grow
    .\build\bignum.o(i.mbedtls_mpi_copy) refers to D:\Keil_v5\ARM\ARMCC\Bin\..\lib\armlib\c_w.l(rt_memclr_w.o)(.text) for __aeabi_memclr4
    .\build\bignum.o(i.mbedtls_mpi_copy) refers to D:\Keil_v5\ARM\ARMCC\Bin\..\lib\armlib\c_w.l(rt_memcpy_w.o)(.text) for __aeabi_memcpy4
    .\build\bignum.o(i.mbedtls_mpi_div_int) refers to .\build\bignum.o(i.mbedtls_mpi_div_mpi) for mbedtls_mpi_div_mpi
    .\build\bignum.o(i.mbedtls_mpi_div_mpi) refers to .\build\bignum.o(i.mbedtls_mpi_cmp_int) for mbedtls_mpi_cmp_int
    .\build\bignum.o(i.mbedtls_mpi_div_mpi) refers to .\build\bignum.o(i.mbedtls_mpi_init) for mbedtls_mpi_init
    .\build\bignum.o(i.mbedtls_mpi_div_mpi) refers to .\build\bignum.o(i.mbedtls_mpi_cmp_abs) for mbedtls_mpi_cmp_abs
    .\build\bignum.o(i.mbedtls_mpi_div_mpi) refers to .\build\bignum.o(i.mbedtls_mpi_lset) for mbedtls_mpi_lset
    .\build\bignum.o(i.mbedtls_mpi_div_mpi) refers to .\build\bignum.o(i.mbedtls_mpi_copy) for mbedtls_mpi_copy
    .\build\bignum.o(i.mbedtls_mpi_div_mpi) refers to .\build\bignum.o(i.mbedtls_mpi_grow) for mbedtls_mpi_grow
    .\build\bignum.o(i.mbedtls_mpi_div_mpi) refers to .\build\bignum.o(i.mbedtls_mpi_bitlen) for mbedtls_mpi_bitlen
    .\build\bignum.o(i.mbedtls_mpi_div_mpi) refers to .\build\bignum.o(i.mbedtls_mpi_shift_l) for mbedtls_mpi_shift_l
    .\build\bignum.o(i.mbedtls_mpi_div_mpi) refers to .\build\bignum.o(i.mbedtls_mpi_sub_mpi) for mbedtls_mpi_sub_mpi
    .\build\bignum.o(i.mbedtls_mpi_div_mpi) refers to .\build\bignum.o(i.mbedtls_mpi_cmp_mpi) for mbedtls_mpi_cmp_mpi
    .\build\bignum.o(i.mbedtls_mpi_div_mpi) refers to .\build\bignum.o(i.mbedtls_mpi_shift_r) for mbedtls_mpi_shift_r
    .\build\bignum.o(i.mbedtls_mpi_div_mpi) refers to .\build\bignum.o(i.mbedtls_int_div_int) for mbedtls_int_div_int
    .\build\bignum.o(i.mbedtls_mpi_div_mpi) refers to .\build\bignum.o(i.mbedtls_mpi_mul_int) for mbedtls_mpi_mul_int
    .\build\bignum.o(i.mbedtls_mpi_div_mpi) refers to .\build\bignum.o(i.mbedtls_mpi_add_mpi) for mbedtls_mpi_add_mpi
    .\build\bignum.o(i.mbedtls_mpi_div_mpi) refers to .\build\bignum.o(i.mbedtls_mpi_free) for mbedtls_mpi_free
    .\build\bignum.o(i.mbedtls_mpi_exp_mod) refers to .\build\bignum.o(i.mbedtls_mpi_cmp_int) for mbedtls_mpi_cmp_int
    .\build\bignum.o(i.mbedtls_mpi_exp_mod) refers to .\build\bignum.o(i.mpi_montg_init) for mpi_montg_init
    .\build\bignum.o(i.mbedtls_mpi_exp_mod) refers to .\build\bignum.o(i.mbedtls_mpi_init) for mbedtls_mpi_init
    .\build\bignum.o(i.mbedtls_mpi_exp_mod) refers to D:\Keil_v5\ARM\ARMCC\Bin\..\lib\armlib\c_w.l(rt_memclr_w.o)(.text) for __aeabi_memclr4
    .\build\bignum.o(i.mbedtls_mpi_exp_mod) refers to .\build\bignum.o(i.mbedtls_mpi_bitlen) for mbedtls_mpi_bitlen
    .\build\bignum.o(i.mbedtls_mpi_exp_mod) refers to .\build\bignum.o(i.mbedtls_mpi_grow) for mbedtls_mpi_grow
    .\build\bignum.o(i.mbedtls_mpi_exp_mod) refers to .\build\bignum.o(i.mbedtls_mpi_copy) for mbedtls_mpi_copy
    .\build\bignum.o(i.mbedtls_mpi_exp_mod) refers to .\build\bignum.o(i.mbedtls_mpi_cmp_mpi) for mbedtls_mpi_cmp_mpi
    .\build\bignum.o(i.mbedtls_mpi_exp_mod) refers to .\build\bignum.o(i.mbedtls_mpi_mod_mpi) for mbedtls_mpi_mod_mpi
    .\build\bignum.o(i.mbedtls_mpi_exp_mod) refers to .\build\bignum.o(i.mbedtls_mpi_lset) for mbedtls_mpi_lset
    .\build\bignum.o(i.mbedtls_mpi_exp_mod) refers to .\build\bignum.o(i.mbedtls_mpi_shift_l) for mbedtls_mpi_shift_l
    .\build\bignum.o(i.mbedtls_mpi_exp_mod) refers to .\build\bignum.o(i.mpi_montmul) for mpi_montmul
    .\build\bignum.o(i.mbedtls_mpi_exp_mod) refers to .\build\bignum.o(i.mpi_montred) for mpi_montred
    .\build\bignum.o(i.mbedtls_mpi_exp_mod) refers to .\build\bignum.o(i.mbedtls_mpi_add_mpi) for mbedtls_mpi_add_mpi
    .\build\bignum.o(i.mbedtls_mpi_exp_mod) refers to .\build\bignum.o(i.mbedtls_mpi_free) for mbedtls_mpi_free
    .\build\bignum.o(i.mbedtls_mpi_fill_random) refers to .\build\bignum.o(i.mbedtls_mpi_read_binary) for mbedtls_mpi_read_binary
    .\build\bignum.o(i.mbedtls_mpi_fill_random) refers to .\build\bignum.o(i.mbedtls_zeroize) for mbedtls_zeroize
    .\build\bignum.o(i.mbedtls_mpi_free) refers to .\build\bignum.o(i.mbedtls_mpi_zeroize) for mbedtls_mpi_zeroize
    .\build\bignum.o(i.mbedtls_mpi_free) refers to D:\Keil_v5\ARM\ARMCC\Bin\..\lib\armlib\c_w.l(h1_free_mt.o)(.text) for free
    .\build\bignum.o(i.mbedtls_mpi_gcd) refers to .\build\bignum.o(i.mbedtls_mpi_init) for mbedtls_mpi_init
    .\build\bignum.o(i.mbedtls_mpi_gcd) refers to .\build\bignum.o(i.mbedtls_mpi_copy) for mbedtls_mpi_copy
    .\build\bignum.o(i.mbedtls_mpi_gcd) refers to .\build\bignum.o(i.mbedtls_mpi_lsb) for mbedtls_mpi_lsb
    .\build\bignum.o(i.mbedtls_mpi_gcd) refers to .\build\bignum.o(i.mbedtls_mpi_shift_r) for mbedtls_mpi_shift_r
    .\build\bignum.o(i.mbedtls_mpi_gcd) refers to .\build\bignum.o(i.mbedtls_mpi_cmp_mpi) for mbedtls_mpi_cmp_mpi
    .\build\bignum.o(i.mbedtls_mpi_gcd) refers to .\build\bignum.o(i.mbedtls_mpi_sub_abs) for mbedtls_mpi_sub_abs
    .\build\bignum.o(i.mbedtls_mpi_gcd) refers to .\build\bignum.o(i.mbedtls_mpi_cmp_int) for mbedtls_mpi_cmp_int
    .\build\bignum.o(i.mbedtls_mpi_gcd) refers to .\build\bignum.o(i.mbedtls_mpi_shift_l) for mbedtls_mpi_shift_l
    .\build\bignum.o(i.mbedtls_mpi_gcd) refers to .\build\bignum.o(i.mbedtls_mpi_free) for mbedtls_mpi_free
    .\build\bignum.o(i.mbedtls_mpi_grow) refers to D:\Keil_v5\ARM\ARMCC\Bin\..\lib\armlib\c_w.l(calloc.o)(.text) for calloc
    .\build\bignum.o(i.mbedtls_mpi_grow) refers to D:\Keil_v5\ARM\ARMCC\Bin\..\lib\armlib\c_w.l(rt_memcpy_w.o)(.text) for __aeabi_memcpy4
    .\build\bignum.o(i.mbedtls_mpi_grow) refers to .\build\bignum.o(i.mbedtls_mpi_zeroize) for mbedtls_mpi_zeroize
    .\build\bignum.o(i.mbedtls_mpi_grow) refers to D:\Keil_v5\ARM\ARMCC\Bin\..\lib\armlib\c_w.l(h1_free_mt.o)(.text) for free
    .\build\bignum.o(i.mbedtls_mpi_inv_mod) refers to .\build\bignum.o(i.mbedtls_mpi_cmp_int) for mbedtls_mpi_cmp_int
    .\build\bignum.o(i.mbedtls_mpi_inv_mod) refers to .\build\bignum.o(i.mbedtls_mpi_init) for mbedtls_mpi_init
    .\build\bignum.o(i.mbedtls_mpi_inv_mod) refers to .\build\bignum.o(i.mbedtls_mpi_gcd) for mbedtls_mpi_gcd
    .\build\bignum.o(i.mbedtls_mpi_inv_mod) refers to .\build\bignum.o(i.mbedtls_mpi_mod_mpi) for mbedtls_mpi_mod_mpi
    .\build\bignum.o(i.mbedtls_mpi_inv_mod) refers to .\build\bignum.o(i.mbedtls_mpi_copy) for mbedtls_mpi_copy
    .\build\bignum.o(i.mbedtls_mpi_inv_mod) refers to .\build\bignum.o(i.mbedtls_mpi_lset) for mbedtls_mpi_lset
    .\build\bignum.o(i.mbedtls_mpi_inv_mod) refers to .\build\bignum.o(i.mbedtls_mpi_shift_r) for mbedtls_mpi_shift_r
    .\build\bignum.o(i.mbedtls_mpi_inv_mod) refers to .\build\bignum.o(i.mbedtls_mpi_add_mpi) for mbedtls_mpi_add_mpi
    .\build\bignum.o(i.mbedtls_mpi_inv_mod) refers to .\build\bignum.o(i.mbedtls_mpi_sub_mpi) for mbedtls_mpi_sub_mpi
    .\build\bignum.o(i.mbedtls_mpi_inv_mod) refers to .\build\bignum.o(i.mbedtls_mpi_cmp_mpi) for mbedtls_mpi_cmp_mpi
    .\build\bignum.o(i.mbedtls_mpi_inv_mod) refers to .\build\bignum.o(i.mbedtls_mpi_free) for mbedtls_mpi_free
    .\build\bignum.o(i.mbedtls_mpi_lset) refers to .\build\bignum.o(i.mbedtls_mpi_grow) for mbedtls_mpi_grow
    .\build\bignum.o(i.mbedtls_mpi_lset) refers to D:\Keil_v5\ARM\ARMCC\Bin\..\lib\armlib\c_w.l(rt_memclr_w.o)(.text) for __aeabi_memclr4
    .\build\bignum.o(i.mbedtls_mpi_mod_mpi) refers to .\build\bignum.o(i.mbedtls_mpi_cmp_int) for mbedtls_mpi_cmp_int
    .\build\bignum.o(i.mbedtls_mpi_mod_mpi) refers to .\build\bignum.o(i.mbedtls_mpi_div_mpi) for mbedtls_mpi_div_mpi
    .\build\bignum.o(i.mbedtls_mpi_mod_mpi) refers to .\build\bignum.o(i.mbedtls_mpi_add_mpi) for mbedtls_mpi_add_mpi
    .\build\bignum.o(i.mbedtls_mpi_mod_mpi) refers to .\build\bignum.o(i.mbedtls_mpi_sub_mpi) for mbedtls_mpi_sub_mpi
    .\build\bignum.o(i.mbedtls_mpi_mod_mpi) refers to .\build\bignum.o(i.mbedtls_mpi_cmp_mpi) for mbedtls_mpi_cmp_mpi
    .\build\bignum.o(i.mbedtls_mpi_mul_int) refers to .\build\bignum.o(i.mbedtls_mpi_mul_mpi) for mbedtls_mpi_mul_mpi
    .\build\bignum.o(i.mbedtls_mpi_mul_mpi) refers to .\build\bignum.o(i.mbedtls_mpi_init) for mbedtls_mpi_init
    .\build\bignum.o(i.mbedtls_mpi_mul_mpi) refers to .\build\bignum.o(i.mbedtls_mpi_copy) for mbedtls_mpi_copy
    .\build\bignum.o(i.mbedtls_mpi_mul_mpi) refers to .\build\bignum.o(i.mbedtls_mpi_grow) for mbedtls_mpi_grow
    .\build\bignum.o(i.mbedtls_mpi_mul_mpi) refers to .\build\bignum.o(i.mbedtls_mpi_lset) for mbedtls_mpi_lset
    .\build\bignum.o(i.mbedtls_mpi_mul_mpi) refers to .\build\bignum.o(i.mpi_mul_hlp) for mpi_mul_hlp
    .\build\bignum.o(i.mbedtls_mpi_mul_mpi) refers to .\build\bignum.o(i.mbedtls_mpi_free) for mbedtls_mpi_free
    .\build\bignum.o(i.mbedtls_mpi_read_binary) refers to .\build\bignum.o(i.mbedtls_mpi_free) for mbedtls_mpi_free
    .\build\bignum.o(i.mbedtls_mpi_read_binary) refers to .\build\bignum.o(i.mbedtls_mpi_init) for mbedtls_mpi_init
    .\build\bignum.o(i.mbedtls_mpi_read_binary) refers to .\build\bignum.o(i.mbedtls_mpi_grow) for mbedtls_mpi_grow
    .\build\bignum.o(i.mbedtls_mpi_read_binary) refers to .\build\bignum.o(i.mbedtls_mpi_lset) for mbedtls_mpi_lset
    .\build\bignum.o(i.mbedtls_mpi_read_string) refers to .\build\bignum.o(i.mbedtls_mpi_init) for mbedtls_mpi_init
    .\build\bignum.o(i.mbedtls_mpi_read_string) refers to D:\Keil_v5\ARM\ARMCC\Bin\..\lib\armlib\c_w.l(strlen.o)(.text) for strlen
    .\build\bignum.o(i.mbedtls_mpi_read_string) refers to .\build\bignum.o(i.mbedtls_mpi_lset) for mbedtls_mpi_lset
    .\build\bignum.o(i.mbedtls_mpi_read_string) refers to .\build\bignum.o(i.mbedtls_mpi_grow) for mbedtls_mpi_grow
    .\build\bignum.o(i.mbedtls_mpi_read_string) refers to .\build\bignum.o(i.mpi_get_digit) for mpi_get_digit
    .\build\bignum.o(i.mbedtls_mpi_read_string) refers to .\build\bignum.o(i.mbedtls_mpi_mul_int) for mbedtls_mpi_mul_int
    .\build\bignum.o(i.mbedtls_mpi_read_string) refers to .\build\bignum.o(i.mbedtls_mpi_sub_int) for mbedtls_mpi_sub_int
    .\build\bignum.o(i.mbedtls_mpi_read_string) refers to .\build\bignum.o(i.mbedtls_mpi_add_int) for mbedtls_mpi_add_int
    .\build\bignum.o(i.mbedtls_mpi_read_string) refers to .\build\bignum.o(i.mbedtls_mpi_free) for mbedtls_mpi_free
    .\build\bignum.o(i.mbedtls_mpi_safe_cond_assign) refers to .\build\bignum.o(i.mbedtls_mpi_grow) for mbedtls_mpi_grow
    .\build\bignum.o(i.mbedtls_mpi_safe_cond_swap) refers to .\build\bignum.o(i.mbedtls_mpi_grow) for mbedtls_mpi_grow
    .\build\bignum.o(i.mbedtls_mpi_self_test) refers to D:\Keil_v5\ARM\ARMCC\Bin\..\lib\armlib\c_w.l(_printf_percent.o)(.ARM.Collect$$_printf_percent$$00000000) for _printf_percent
    .\build\bignum.o(i.mbedtls_mpi_self_test) refers to D:\Keil_v5\ARM\ARMCC\Bin\..\lib\armlib\c_w.l(_printf_d.o)(.ARM.Collect$$_printf_percent$$00000009) for _printf_d
    .\build\bignum.o(i.mbedtls_mpi_self_test) refers to D:\Keil_v5\ARM\ARMCC\Bin\..\lib\armlib\c_w.l(_printf_dec.o)(.text) for _printf_int_dec
    .\build\bignum.o(i.mbedtls_mpi_self_test) refers to D:\Keil_v5\ARM\ARMCC\Bin\..\lib\armlib\c_w.l(_printf_pad.o)(.text) for _printf_pre_padding
    .\build\bignum.o(i.mbedtls_mpi_self_test) refers to D:\Keil_v5\ARM\ARMCC\Bin\..\lib\armlib\c_w.l(_printf_x.o)(.ARM.Collect$$_printf_percent$$0000000C) for _printf_x
    .\build\bignum.o(i.mbedtls_mpi_self_test) refers to D:\Keil_v5\ARM\ARMCC\Bin\..\lib\armlib\c_w.l(_printf_hex_int_ll_ptr.o)(.text) for _printf_longlong_hex
    .\build\bignum.o(i.mbedtls_mpi_self_test) refers to .\build\bignum.o(i.mbedtls_mpi_init) for mbedtls_mpi_init
    .\build\bignum.o(i.mbedtls_mpi_self_test) refers to .\build\bignum.o(i.mbedtls_mpi_read_string) for mbedtls_mpi_read_string
    .\build\bignum.o(i.mbedtls_mpi_self_test) refers to .\build\bignum.o(i.mbedtls_mpi_mul_mpi) for mbedtls_mpi_mul_mpi
    .\build\bignum.o(i.mbedtls_mpi_self_test) refers to D:\Keil_v5\ARM\ARMCC\Bin\..\lib\armlib\c_w.l(__2printf.o)(.text) for __2printf
    .\build\bignum.o(i.mbedtls_mpi_self_test) refers to .\build\bignum.o(i.mbedtls_mpi_cmp_mpi) for mbedtls_mpi_cmp_mpi
    .\build\bignum.o(i.mbedtls_mpi_self_test) refers to .\build\bignum.o(i.mbedtls_mpi_div_mpi) for mbedtls_mpi_div_mpi
    .\build\bignum.o(i.mbedtls_mpi_self_test) refers to .\build\bignum.o(i.mbedtls_mpi_exp_mod) for mbedtls_mpi_exp_mod
    .\build\bignum.o(i.mbedtls_mpi_self_test) refers to .\build\bignum.o(i.mbedtls_mpi_inv_mod) for mbedtls_mpi_inv_mod
    .\build\bignum.o(i.mbedtls_mpi_self_test) refers to .\build\bignum.o(i.mbedtls_mpi_lset) for mbedtls_mpi_lset
    .\build\bignum.o(i.mbedtls_mpi_self_test) refers to .\build\bignum.o(i.mbedtls_mpi_gcd) for mbedtls_mpi_gcd
    .\build\bignum.o(i.mbedtls_mpi_self_test) refers to .\build\bignum.o(i.mbedtls_mpi_cmp_int) for mbedtls_mpi_cmp_int
    .\build\bignum.o(i.mbedtls_mpi_self_test) refers to .\build\bignum.o(i.mbedtls_mpi_free) for mbedtls_mpi_free
    .\build\bignum.o(i.mbedtls_mpi_self_test) refers to .\build\bignum.o(.conststring) for .conststring
    .\build\bignum.o(i.mbedtls_mpi_self_test) refers to .\build\bignum.o(.constdata) for .constdata
    .\build\bignum.o(i.mbedtls_mpi_set_bit) refers to .\build\bignum.o(i.mbedtls_mpi_grow) for mbedtls_mpi_grow
    .\build\bignum.o(i.mbedtls_mpi_shift_l) refers to .\build\bignum.o(i.mbedtls_mpi_bitlen) for mbedtls_mpi_bitlen
    .\build\bignum.o(i.mbedtls_mpi_shift_l) refers to .\build\bignum.o(i.mbedtls_mpi_grow) for mbedtls_mpi_grow
    .\build\bignum.o(i.mbedtls_mpi_shift_r) refers to .\build\bignum.o(i.mbedtls_mpi_lset) for mbedtls_mpi_lset
    .\build\bignum.o(i.mbedtls_mpi_shrink) refers to .\build\bignum.o(i.mbedtls_mpi_grow) for mbedtls_mpi_grow
    .\build\bignum.o(i.mbedtls_mpi_shrink) refers to D:\Keil_v5\ARM\ARMCC\Bin\..\lib\armlib\c_w.l(calloc.o)(.text) for calloc
    .\build\bignum.o(i.mbedtls_mpi_shrink) refers to D:\Keil_v5\ARM\ARMCC\Bin\..\lib\armlib\c_w.l(rt_memcpy_w.o)(.text) for __aeabi_memcpy4
    .\build\bignum.o(i.mbedtls_mpi_shrink) refers to .\build\bignum.o(i.mbedtls_mpi_zeroize) for mbedtls_mpi_zeroize
    .\build\bignum.o(i.mbedtls_mpi_shrink) refers to D:\Keil_v5\ARM\ARMCC\Bin\..\lib\armlib\c_w.l(h1_free_mt.o)(.text) for free
    .\build\bignum.o(i.mbedtls_mpi_size) refers to .\build\bignum.o(i.mbedtls_mpi_bitlen) for mbedtls_mpi_bitlen
    .\build\bignum.o(i.mbedtls_mpi_sub_abs) refers to .\build\bignum.o(i.mbedtls_mpi_cmp_abs) for mbedtls_mpi_cmp_abs
    .\build\bignum.o(i.mbedtls_mpi_sub_abs) refers to .\build\bignum.o(i.mbedtls_mpi_init) for mbedtls_mpi_init
    .\build\bignum.o(i.mbedtls_mpi_sub_abs) refers to .\build\bignum.o(i.mbedtls_mpi_copy) for mbedtls_mpi_copy
    .\build\bignum.o(i.mbedtls_mpi_sub_abs) refers to .\build\bignum.o(i.mpi_sub_hlp) for mpi_sub_hlp
    .\build\bignum.o(i.mbedtls_mpi_sub_abs) refers to .\build\bignum.o(i.mbedtls_mpi_free) for mbedtls_mpi_free
    .\build\bignum.o(i.mbedtls_mpi_sub_int) refers to .\build\bignum.o(i.mbedtls_mpi_sub_mpi) for mbedtls_mpi_sub_mpi
    .\build\bignum.o(i.mbedtls_mpi_sub_mpi) refers to .\build\bignum.o(i.mbedtls_mpi_cmp_abs) for mbedtls_mpi_cmp_abs
    .\build\bignum.o(i.mbedtls_mpi_sub_mpi) refers to .\build\bignum.o(i.mbedtls_mpi_sub_abs) for mbedtls_mpi_sub_abs
    .\build\bignum.o(i.mbedtls_mpi_sub_mpi) refers to .\build\bignum.o(i.mbedtls_mpi_add_abs) for mbedtls_mpi_add_abs
    .\build\bignum.o(i.mbedtls_mpi_write_binary) refers to .\build\bignum.o(i.mbedtls_mpi_size) for mbedtls_mpi_size
    .\build\bignum.o(i.mbedtls_mpi_write_binary) refers to D:\Keil_v5\ARM\ARMCC\Bin\..\lib\armlib\c_w.l(rt_memclr.o)(.text) for __aeabi_memclr
    .\build\bignum.o(i.mbedtls_mpi_write_string) refers to .\build\bignum.o(i.mbedtls_mpi_bitlen) for mbedtls_mpi_bitlen
    .\build\bignum.o(i.mbedtls_mpi_write_string) refers to .\build\bignum.o(i.mbedtls_mpi_init) for mbedtls_mpi_init
    .\build\bignum.o(i.mbedtls_mpi_write_string) refers to .\build\bignum.o(i.mbedtls_mpi_copy) for mbedtls_mpi_copy
    .\build\bignum.o(i.mbedtls_mpi_write_string) refers to .\build\bignum.o(i.mpi_write_hlp) for mpi_write_hlp
    .\build\bignum.o(i.mbedtls_mpi_write_string) refers to .\build\bignum.o(i.mbedtls_mpi_free) for mbedtls_mpi_free
    .\build\bignum.o(i.mpi_montmul) refers to D:\Keil_v5\ARM\ARMCC\Bin\..\lib\armlib\c_w.l(rt_memclr_w.o)(.text) for __aeabi_memclr4
    .\build\bignum.o(i.mpi_montmul) refers to .\build\bignum.o(i.mpi_mul_hlp) for mpi_mul_hlp
    .\build\bignum.o(i.mpi_montmul) refers to D:\Keil_v5\ARM\ARMCC\Bin\..\lib\armlib\c_w.l(rt_memcpy_w.o)(.text) for __aeabi_memcpy4
    .\build\bignum.o(i.mpi_montmul) refers to .\build\bignum.o(i.mbedtls_mpi_cmp_abs) for mbedtls_mpi_cmp_abs
    .\build\bignum.o(i.mpi_montmul) refers to .\build\bignum.o(i.mpi_sub_hlp) for mpi_sub_hlp
    .\build\bignum.o(i.mpi_montred) refers to .\build\bignum.o(i.mpi_montmul) for mpi_montmul
    .\build\bignum.o(i.mpi_write_hlp) refers to .\build\bignum.o(i.mbedtls_mpi_mod_int) for mbedtls_mpi_mod_int
    .\build\bignum.o(i.mpi_write_hlp) refers to .\build\bignum.o(i.mbedtls_mpi_div_int) for mbedtls_mpi_div_int
    .\build\bignum.o(i.mpi_write_hlp) refers to .\build\bignum.o(i.mbedtls_mpi_cmp_int) for mbedtls_mpi_cmp_int
    .\build\busin.o(i._ZN4mbed5BusIn4lockEv) refers to .\build\mutex.o(i._ZN4rtos5Mutex4lockEj) for rtos::Mutex::lock(unsigned)
    .\build\busin.o(i._ZN4mbed5BusIn4modeE7PinMode) refers to .\build\mbed_critical.o(i.core_util_critical_section_enter) for core_util_critical_section_enter
    .\build\busin.o(i._ZN4mbed5BusIn4modeE7PinMode) refers to .\build\gpio_api.o(i.gpio_mode) for gpio_mode
    .\build\busin.o(i._ZN4mbed5BusIn4modeE7PinMode) refers to .\build\mbed_critical.o(i.core_util_critical_section_exit) for core_util_critical_section_exit
    .\build\busin.o(i._ZN4mbed5BusIn6unlockEv) refers to .\build\mutex.o(i._ZN4rtos5Mutex6unlockEv) for rtos::Mutex::unlock()
    .\build\busin.o(i._ZN4mbed5BusInC1E7PinNameS1_S1_S1_S1_S1_S1_S1_S1_S1_S1_S1_S1_S1_S1_S1_) refers to .\build\mutex.o(i._ZN4rtos5MutexC1Ev) for rtos::Mutex::Mutex()
    .\build\busin.o(i._ZN4mbed5BusInC1E7PinNameS1_S1_S1_S1_S1_S1_S1_S1_S1_S1_S1_S1_S1_S1_S1_) refers to .\build\mbed_retarget.o(i._Znwj) for operator new(unsigned)
    .\build\busin.o(i._ZN4mbed5BusInC1E7PinNameS1_S1_S1_S1_S1_S1_S1_S1_S1_S1_S1_S1_S1_S1_S1_) refers to .\build\busin.o(i._ZN4mbed9DigitalInC1E7PinName) for mbed::DigitalIn::DigitalIn(PinName)
    .\build\busin.o(i._ZN4mbed5BusInC1E7PinNameS1_S1_S1_S1_S1_S1_S1_S1_S1_S1_S1_S1_S1_S1_S1_) refers to .\build\busin.o(.constdata__ZTVN4mbed5BusInE) for vtable for mbed::BusIn
    .\build\busin.o(i._ZN4mbed5BusInC1EP7PinName) refers to .\build\mutex.o(i._ZN4rtos5MutexC1Ev) for rtos::Mutex::Mutex()
    .\build\busin.o(i._ZN4mbed5BusInC1EP7PinName) refers to .\build\mbed_retarget.o(i._Znwj) for operator new(unsigned)
    .\build\busin.o(i._ZN4mbed5BusInC1EP7PinName) refers to .\build\busin.o(i._ZN4mbed9DigitalInC1E7PinName) for mbed::DigitalIn::DigitalIn(PinName)
    .\build\busin.o(i._ZN4mbed5BusInC1EP7PinName) refers to .\build\busin.o(.constdata__ZTVN4mbed5BusInE) for vtable for mbed::BusIn
    .\build\busin.o(i._ZN4mbed5BusInD0Ev) refers to .\build\busin.o(i._ZN4mbed5BusInD1Ev) for mbed::BusIn::~BusIn()
    .\build\busin.o(i._ZN4mbed5BusInD0Ev) refers to .\build\mbed_retarget.o(i._ZdlPv) for operator delete (void*)
    .\build\busin.o(i._ZN4mbed5BusInD1Ev) refers to .\build\mbed_retarget.o(i._ZdlPv) for operator delete (void*)
    .\build\busin.o(i._ZN4mbed5BusInD1Ev) refers to .\build\mutex.o(i._ZN4rtos5MutexD1Ev) for rtos::Mutex::~Mutex()
    .\build\busin.o(i._ZN4mbed5BusInD1Ev) refers to .\build\busin.o(.constdata__ZTVN4mbed5BusInE) for vtable for mbed::BusIn
    .\build\busin.o(i._ZN4mbed5BusIncviEv) refers to .\build\busin.o(i._ZN4mbed5BusIn4readEv) for mbed::BusIn::read()
    .\build\busin.o(i._ZN4mbed5BusInixEi) refers to .\build\mbed_assert.o(i.mbed_assert_internal) for mbed_assert_internal
    .\build\busin.o(.ARM.exidx) refers to .\build\busin.o(i._ZN4mbed5BusInC1E7PinNameS1_S1_S1_S1_S1_S1_S1_S1_S1_S1_S1_S1_S1_S1_S1_) for i._ZN4mbed5BusInC1E7PinNameS1_S1_S1_S1_S1_S1_S1_S1_S1_S1_S1_S1_S1_S1_S1_
    .\build\busin.o(.ARM.exidx) refers to .\build\busin.o(i._ZN4mbed5BusInC1EP7PinName) for i._ZN4mbed5BusInC1EP7PinName
    .\build\busin.o(.ARM.exidx) refers to .\build\busin.o(i._ZN4mbed5BusInD1Ev) for i._ZN4mbed5BusInD1Ev
    .\build\busin.o(.ARM.exidx) refers to .\build\busin.o(i._ZN4mbed5BusInD0Ev) for i._ZN4mbed5BusInD0Ev
    .\build\busin.o(.ARM.exidx) refers to .\build\busin.o(i._ZN4mbed5BusIn4readEv) for i._ZN4mbed5BusIn4readEv
    .\build\busin.o(.ARM.exidx) refers to .\build\busin.o(i._ZN4mbed5BusIn4modeE7PinMode) for i._ZN4mbed5BusIn4modeE7PinMode
    .\build\busin.o(.ARM.exidx) refers to .\build\busin.o(i._ZN4mbed5BusIncviEv) for i._ZN4mbed5BusIncviEv
    .\build\busin.o(.ARM.exidx) refers to .\build\busin.o(i._ZN4mbed5BusInixEi) for i._ZN4mbed5BusInixEi
    .\build\busin.o(.ARM.exidx) refers to .\build\busin.o(i._ZN4mbed5BusIn4lockEv) for i._ZN4mbed5BusIn4lockEv
    .\build\busin.o(.ARM.exidx) refers to .\build\busin.o(i._ZN4mbed5BusIn6unlockEv) for i._ZN4mbed5BusIn6unlockEv
    .\build\businout.o(i._ZN4mbed8BusInOut4lockEv) refers to .\build\mutex.o(i._ZN4rtos5Mutex4lockEj) for rtos::Mutex::lock(unsigned)
    .\build\businout.o(i._ZN4mbed8BusInOut4modeE7PinMode) refers to .\build\mbed_critical.o(i.core_util_critical_section_enter) for core_util_critical_section_enter
    .\build\businout.o(i._ZN4mbed8BusInOut4modeE7PinMode) refers to .\build\gpio_api.o(i.gpio_mode) for gpio_mode
    .\build\businout.o(i._ZN4mbed8BusInOut4modeE7PinMode) refers to .\build\mbed_critical.o(i.core_util_critical_section_exit) for core_util_critical_section_exit
    .\build\businout.o(i._ZN4mbed8BusInOut5inputEv) refers to .\build\mbed_critical.o(i.core_util_critical_section_enter) for core_util_critical_section_enter
    .\build\businout.o(i._ZN4mbed8BusInOut5inputEv) refers to .\build\gpio_api.o(i.gpio_dir) for gpio_dir
    .\build\businout.o(i._ZN4mbed8BusInOut5inputEv) refers to .\build\mbed_critical.o(i.core_util_critical_section_exit) for core_util_critical_section_exit
    .\build\businout.o(i._ZN4mbed8BusInOut6outputEv) refers to .\build\mbed_critical.o(i.core_util_critical_section_enter) for core_util_critical_section_enter
    .\build\businout.o(i._ZN4mbed8BusInOut6outputEv) refers to .\build\gpio_api.o(i.gpio_dir) for gpio_dir
    .\build\businout.o(i._ZN4mbed8BusInOut6outputEv) refers to .\build\mbed_critical.o(i.core_util_critical_section_exit) for core_util_critical_section_exit
    .\build\businout.o(i._ZN4mbed8BusInOut6unlockEv) refers to .\build\mutex.o(i._ZN4rtos5Mutex6unlockEv) for rtos::Mutex::unlock()
    .\build\businout.o(i._ZN4mbed8BusInOutC1E7PinNameS1_S1_S1_S1_S1_S1_S1_S1_S1_S1_S1_S1_S1_S1_S1_) refers to .\build\mutex.o(i._ZN4rtos5MutexC1Ev) for rtos::Mutex::Mutex()
    .\build\businout.o(i._ZN4mbed8BusInOutC1E7PinNameS1_S1_S1_S1_S1_S1_S1_S1_S1_S1_S1_S1_S1_S1_S1_) refers to .\build\mbed_retarget.o(i._Znwj) for operator new(unsigned)
    .\build\businout.o(i._ZN4mbed8BusInOutC1E7PinNameS1_S1_S1_S1_S1_S1_S1_S1_S1_S1_S1_S1_S1_S1_S1_) refers to .\build\businout.o(i._ZN4mbed12DigitalInOutC1E7PinName) for mbed::DigitalInOut::DigitalInOut(PinName)
    .\build\businout.o(i._ZN4mbed8BusInOutC1E7PinNameS1_S1_S1_S1_S1_S1_S1_S1_S1_S1_S1_S1_S1_S1_S1_) refers to .\build\businout.o(.constdata__ZTVN4mbed8BusInOutE) for vtable for mbed::BusInOut
    .\build\businout.o(i._ZN4mbed8BusInOutC1EP7PinName) refers to .\build\mutex.o(i._ZN4rtos5MutexC1Ev) for rtos::Mutex::Mutex()
    .\build\businout.o(i._ZN4mbed8BusInOutC1EP7PinName) refers to .\build\mbed_retarget.o(i._Znwj) for operator new(unsigned)
    .\build\businout.o(i._ZN4mbed8BusInOutC1EP7PinName) refers to .\build\businout.o(i._ZN4mbed12DigitalInOutC1E7PinName) for mbed::DigitalInOut::DigitalInOut(PinName)
    .\build\businout.o(i._ZN4mbed8BusInOutC1EP7PinName) refers to .\build\businout.o(.constdata__ZTVN4mbed8BusInOutE) for vtable for mbed::BusInOut
    .\build\businout.o(i._ZN4mbed8BusInOutD0Ev) refers to .\build\businout.o(i._ZN4mbed8BusInOutD1Ev) for mbed::BusInOut::~BusInOut()
    .\build\businout.o(i._ZN4mbed8BusInOutD0Ev) refers to .\build\mbed_retarget.o(i._ZdlPv) for operator delete (void*)
    .\build\businout.o(i._ZN4mbed8BusInOutD1Ev) refers to .\build\mbed_retarget.o(i._ZdlPv) for operator delete (void*)
    .\build\businout.o(i._ZN4mbed8BusInOutD1Ev) refers to .\build\mutex.o(i._ZN4rtos5MutexD1Ev) for rtos::Mutex::~Mutex()
    .\build\businout.o(i._ZN4mbed8BusInOutD1Ev) refers to .\build\businout.o(.constdata__ZTVN4mbed8BusInOutE) for vtable for mbed::BusInOut
    .\build\businout.o(i._ZN4mbed8BusInOutaSERS0_) refers to .\build\businout.o(i._ZN4mbed8BusInOut4readEv) for mbed::BusInOut::read()
    .\build\businout.o(i._ZN4mbed8BusInOutaSERS0_) refers to .\build\businout.o(i._ZN4mbed8BusInOut5writeEi) for mbed::BusInOut::write(int)
    .\build\businout.o(i._ZN4mbed8BusInOutaSEi) refers to .\build\businout.o(i._ZN4mbed8BusInOut5writeEi) for mbed::BusInOut::write(int)
    .\build\businout.o(i._ZN4mbed8BusInOutcviEv) refers to .\build\businout.o(i._ZN4mbed8BusInOut4readEv) for mbed::BusInOut::read()
    .\build\businout.o(i._ZN4mbed8BusInOutixEi) refers to .\build\mbed_assert.o(i.mbed_assert_internal) for mbed_assert_internal
    .\build\businout.o(.ARM.exidx) refers to .\build\businout.o(i._ZN4mbed8BusInOutC1E7PinNameS1_S1_S1_S1_S1_S1_S1_S1_S1_S1_S1_S1_S1_S1_S1_) for i._ZN4mbed8BusInOutC1E7PinNameS1_S1_S1_S1_S1_S1_S1_S1_S1_S1_S1_S1_S1_S1_S1_
    .\build\businout.o(.ARM.exidx) refers to .\build\businout.o(i._ZN4mbed8BusInOutC1EP7PinName) for i._ZN4mbed8BusInOutC1EP7PinName
    .\build\businout.o(.ARM.exidx) refers to .\build\businout.o(i._ZN4mbed8BusInOutD1Ev) for i._ZN4mbed8BusInOutD1Ev
    .\build\businout.o(.ARM.exidx) refers to .\build\businout.o(i._ZN4mbed8BusInOutD0Ev) for i._ZN4mbed8BusInOutD0Ev
    .\build\businout.o(.ARM.exidx) refers to .\build\businout.o(i._ZN4mbed8BusInOut5writeEi) for i._ZN4mbed8BusInOut5writeEi
    .\build\businout.o(.ARM.exidx) refers to .\build\businout.o(i._ZN4mbed8BusInOut4readEv) for i._ZN4mbed8BusInOut4readEv
    .\build\businout.o(.ARM.exidx) refers to .\build\businout.o(i._ZN4mbed8BusInOut6outputEv) for i._ZN4mbed8BusInOut6outputEv
    .\build\businout.o(.ARM.exidx) refers to .\build\businout.o(i._ZN4mbed8BusInOut5inputEv) for i._ZN4mbed8BusInOut5inputEv
    .\build\businout.o(.ARM.exidx) refers to .\build\businout.o(i._ZN4mbed8BusInOut4modeE7PinMode) for i._ZN4mbed8BusInOut4modeE7PinMode
    .\build\businout.o(.ARM.exidx) refers to .\build\businout.o(i._ZN4mbed8BusInOutaSEi) for i._ZN4mbed8BusInOutaSEi
    .\build\businout.o(.ARM.exidx) refers to .\build\businout.o(i._ZN4mbed8BusInOutaSERS0_) for i._ZN4mbed8BusInOutaSERS0_
    .\build\businout.o(.ARM.exidx) refers to .\build\businout.o(i._ZN4mbed8BusInOutixEi) for i._ZN4mbed8BusInOutixEi
    .\build\businout.o(.ARM.exidx) refers to .\build\businout.o(i._ZN4mbed8BusInOutcviEv) for i._ZN4mbed8BusInOutcviEv
    .\build\businout.o(.ARM.exidx) refers to .\build\businout.o(i._ZN4mbed8BusInOut4lockEv) for i._ZN4mbed8BusInOut4lockEv
    .\build\businout.o(.ARM.exidx) refers to .\build\businout.o(i._ZN4mbed8BusInOut6unlockEv) for i._ZN4mbed8BusInOut6unlockEv
    .\build\busout.o(i._ZN4mbed6BusOut4lockEv) refers to .\build\mutex.o(i._ZN4rtos5Mutex4lockEj) for rtos::Mutex::lock(unsigned)
    .\build\busout.o(i._ZN4mbed6BusOut6unlockEv) refers to .\build\mutex.o(i._ZN4rtos5Mutex6unlockEv) for rtos::Mutex::unlock()
    .\build\busout.o(i._ZN4mbed6BusOutC1E7PinNameS1_S1_S1_S1_S1_S1_S1_S1_S1_S1_S1_S1_S1_S1_S1_) refers to .\build\mutex.o(i._ZN4rtos5MutexC1Ev) for rtos::Mutex::Mutex()
    .\build\busout.o(i._ZN4mbed6BusOutC1E7PinNameS1_S1_S1_S1_S1_S1_S1_S1_S1_S1_S1_S1_S1_S1_S1_) refers to .\build\mbed_retarget.o(i._Znwj) for operator new(unsigned)
    .\build\busout.o(i._ZN4mbed6BusOutC1E7PinNameS1_S1_S1_S1_S1_S1_S1_S1_S1_S1_S1_S1_S1_S1_S1_) refers to .\build\busout.o(i._ZN4mbed10DigitalOutC1E7PinName) for mbed::DigitalOut::DigitalOut(PinName)
    .\build\busout.o(i._ZN4mbed6BusOutC1E7PinNameS1_S1_S1_S1_S1_S1_S1_S1_S1_S1_S1_S1_S1_S1_S1_) refers to .\build\busout.o(.constdata__ZTVN4mbed6BusOutE) for vtable for mbed::BusOut
    .\build\busout.o(i._ZN4mbed6BusOutC1EP7PinName) refers to .\build\mutex.o(i._ZN4rtos5MutexC1Ev) for rtos::Mutex::Mutex()
    .\build\busout.o(i._ZN4mbed6BusOutC1EP7PinName) refers to .\build\mbed_retarget.o(i._Znwj) for operator new(unsigned)
    .\build\busout.o(i._ZN4mbed6BusOutC1EP7PinName) refers to .\build\busout.o(i._ZN4mbed10DigitalOutC1E7PinName) for mbed::DigitalOut::DigitalOut(PinName)
    .\build\busout.o(i._ZN4mbed6BusOutC1EP7PinName) refers to .\build\busout.o(.constdata__ZTVN4mbed6BusOutE) for vtable for mbed::BusOut
    .\build\busout.o(i._ZN4mbed6BusOutD0Ev) refers to .\build\busout.o(i._ZN4mbed6BusOutD1Ev) for mbed::BusOut::~BusOut()
    .\build\busout.o(i._ZN4mbed6BusOutD0Ev) refers to .\build\mbed_retarget.o(i._ZdlPv) for operator delete (void*)
    .\build\busout.o(i._ZN4mbed6BusOutD1Ev) refers to .\build\mbed_retarget.o(i._ZdlPv) for operator delete (void*)
    .\build\busout.o(i._ZN4mbed6BusOutD1Ev) refers to .\build\mutex.o(i._ZN4rtos5MutexD1Ev) for rtos::Mutex::~Mutex()
    .\build\busout.o(i._ZN4mbed6BusOutD1Ev) refers to .\build\busout.o(.constdata__ZTVN4mbed6BusOutE) for vtable for mbed::BusOut
    .\build\busout.o(i._ZN4mbed6BusOutaSERS0_) refers to .\build\busout.o(i._ZN4mbed6BusOut4readEv) for mbed::BusOut::read()
    .\build\busout.o(i._ZN4mbed6BusOutaSERS0_) refers to .\build\busout.o(i._ZN4mbed6BusOut5writeEi) for mbed::BusOut::write(int)
    .\build\busout.o(i._ZN4mbed6BusOutaSEi) refers to .\build\busout.o(i._ZN4mbed6BusOut5writeEi) for mbed::BusOut::write(int)
    .\build\busout.o(i._ZN4mbed6BusOutcviEv) refers to .\build\busout.o(i._ZN4mbed6BusOut4readEv) for mbed::BusOut::read()
    .\build\busout.o(i._ZN4mbed6BusOutixEi) refers to .\build\mbed_assert.o(i.mbed_assert_internal) for mbed_assert_internal
    .\build\busout.o(.ARM.exidx) refers to .\build\busout.o(i._ZN4mbed6BusOutC1E7PinNameS1_S1_S1_S1_S1_S1_S1_S1_S1_S1_S1_S1_S1_S1_S1_) for i._ZN4mbed6BusOutC1E7PinNameS1_S1_S1_S1_S1_S1_S1_S1_S1_S1_S1_S1_S1_S1_S1_
    .\build\busout.o(.ARM.exidx) refers to .\build\busout.o(i._ZN4mbed6BusOutC1EP7PinName) for i._ZN4mbed6BusOutC1EP7PinName
    .\build\busout.o(.ARM.exidx) refers to .\build\busout.o(i._ZN4mbed6BusOutD1Ev) for i._ZN4mbed6BusOutD1Ev
    .\build\busout.o(.ARM.exidx) refers to .\build\busout.o(i._ZN4mbed6BusOutD0Ev) for i._ZN4mbed6BusOutD0Ev
    .\build\busout.o(.ARM.exidx) refers to .\build\busout.o(i._ZN4mbed6BusOut5writeEi) for i._ZN4mbed6BusOut5writeEi
    .\build\busout.o(.ARM.exidx) refers to .\build\busout.o(i._ZN4mbed6BusOut4readEv) for i._ZN4mbed6BusOut4readEv
    .\build\busout.o(.ARM.exidx) refers to .\build\busout.o(i._ZN4mbed6BusOutaSEi) for i._ZN4mbed6BusOutaSEi
    .\build\busout.o(.ARM.exidx) refers to .\build\busout.o(i._ZN4mbed6BusOutaSERS0_) for i._ZN4mbed6BusOutaSERS0_
    .\build\busout.o(.ARM.exidx) refers to .\build\busout.o(i._ZN4mbed6BusOutixEi) for i._ZN4mbed6BusOutixEi
    .\build\busout.o(.ARM.exidx) refers to .\build\busout.o(i._ZN4mbed6BusOutcviEv) for i._ZN4mbed6BusOutcviEv
    .\build\busout.o(.ARM.exidx) refers to .\build\busout.o(i._ZN4mbed6BusOut4lockEv) for i._ZN4mbed6BusOut4lockEv
    .\build\busout.o(.ARM.exidx) refers to .\build\busout.o(i._ZN4mbed6BusOut6unlockEv) for i._ZN4mbed6BusOut6unlockEv
    .\build\callchain.o(i._ZN4mbed9CallChain3addENS_8CallbackIFvvEEE) refers to .\build\mbed_retarget.o(i._Znwj) for operator new(unsigned)
    .\build\callchain.o(i._ZN4mbed9CallChain3addENS_8CallbackIFvvEEE) refers to .\build\callchain.o(i._ZN4mbed13CallChainLinkC1ERNS_8CallbackIFvvEEE) for mbed::CallChainLink::CallChainLink(mbed::Callback<void()>&)
    .\build\callchain.o(i._ZN4mbed9CallChain4callEv) refers to .\build\mbed_assert.o(i.mbed_assert_internal) for mbed_assert_internal
    .\build\callchain.o(i._ZN4mbed9CallChain4callEv) refers to .\build\at_cellularsms.o(.constdata__ZZNK4mbed8CallbackIFvvEE4callEvEs_0) for mbed::Callback<void()>::call() const::string (instance 2)
    .\build\callchain.o(i._ZN4mbed9CallChain4callEv) refers to .\build\at_cellularsms.o(.constdata__ZZNK4mbed8CallbackIFvvEE4callEvEs) for mbed::Callback<void()>::call() const::string
    .\build\callchain.o(i._ZN4mbed9CallChain5clearEv) refers to .\build\callchain.o(i._ZN4mbed13CallChainLinkD1Ev) for mbed::CallChainLink::~CallChainLink()
    .\build\callchain.o(i._ZN4mbed9CallChain5clearEv) refers to .\build\mbed_retarget.o(i._ZdlPv) for operator delete (void*)
    .\build\callchain.o(i._ZN4mbed9CallChain6removeEPNS_8CallbackIFvvEEE) refers to .\build\callchain.o(i._ZN4mbed13CallChainLinkD1Ev) for mbed::CallChainLink::~CallChainLink()
    .\build\callchain.o(i._ZN4mbed9CallChain6removeEPNS_8CallbackIFvvEEE) refers to .\build\mbed_retarget.o(i._ZdlPv) for operator delete (void*)
    .\build\callchain.o(i._ZN4mbed9CallChain9add_frontENS_8CallbackIFvvEEE) refers to .\build\mbed_retarget.o(i._Znwj) for operator new(unsigned)
    .\build\callchain.o(i._ZN4mbed9CallChain9add_frontENS_8CallbackIFvvEEE) refers to .\build\callchain.o(i._ZN4mbed13CallChainLinkC1ERNS_8CallbackIFvvEEE) for mbed::CallChainLink::CallChainLink(mbed::Callback<void()>&)
    .\build\callchain.o(i._ZN4mbed9CallChainC1Ei) refers to .\build\callchain.o(.constdata__ZTVN4mbed9CallChainE) for vtable for mbed::CallChain
    .\build\callchain.o(i._ZN4mbed9CallChainD0Ev) refers to .\build\callchain.o(i._ZN4mbed9CallChainD1Ev) for mbed::CallChain::~CallChain()
    .\build\callchain.o(i._ZN4mbed9CallChainD0Ev) refers to .\build\mbed_retarget.o(i._ZdlPv) for operator delete (void*)
    .\build\callchain.o(i._ZN4mbed9CallChainD1Ev) refers to .\build\callchain.o(i._ZN4mbed9CallChain5clearEv) for mbed::CallChain::clear()
    .\build\callchain.o(i._ZN4mbed9CallChainD1Ev) refers to .\build\callchain.o(.constdata__ZTVN4mbed9CallChainE) for vtable for mbed::CallChain
    .\build\callchain.o(.ARM.exidx) refers to .\build\callchain.o(i._ZN4mbed9CallChainC1Ei) for i._ZN4mbed9CallChainC1Ei
    .\build\callchain.o(.ARM.exidx) refers to .\build\callchain.o(i._ZN4mbed9CallChain5clearEv) for i._ZN4mbed9CallChain5clearEv
    .\build\callchain.o(.ARM.exidx) refers to .\build\callchain.o(i._ZN4mbed9CallChainD1Ev) for i._ZN4mbed9CallChainD1Ev
    .\build\callchain.o(.ARM.exidx) refers to .\build\callchain.o(i._ZN4mbed9CallChainD0Ev) for i._ZN4mbed9CallChainD0Ev
    .\build\callchain.o(.ARM.exidx) refers to .\build\callchain.o(i._ZN4mbed9CallChain3addENS_8CallbackIFvvEEE) for i._ZN4mbed9CallChain3addENS_8CallbackIFvvEEE
    .\build\callchain.o(.ARM.exidx) refers to .\build\callchain.o(i._ZN4mbed9CallChain9add_frontENS_8CallbackIFvvEEE) for i._ZN4mbed9CallChain9add_frontENS_8CallbackIFvvEEE
    .\build\callchain.o(.ARM.exidx) refers to .\build\callchain.o(i._ZNK4mbed9CallChain4sizeEv) for i._ZNK4mbed9CallChain4sizeEv
    .\build\callchain.o(.ARM.exidx) refers to .\build\callchain.o(i._ZNK4mbed9CallChain3getEi) for i._ZNK4mbed9CallChain3getEi
    .\build\callchain.o(.ARM.exidx) refers to .\build\callchain.o(i._ZNK4mbed9CallChain4findEPNS_8CallbackIFvvEEE) for i._ZNK4mbed9CallChain4findEPNS_8CallbackIFvvEEE
    .\build\callchain.o(.ARM.exidx) refers to .\build\callchain.o(i._ZN4mbed9CallChain6removeEPNS_8CallbackIFvvEEE) for i._ZN4mbed9CallChain6removeEPNS_8CallbackIFvvEEE
    .\build\callchain.o(.ARM.exidx) refers to .\build\callchain.o(i._ZN4mbed9CallChain4callEv) for i._ZN4mbed9CallChain4callEv
    .\build\can.o(i.<Func2>) refers to .\build\can.o(t._ZN4mbed8CallbackIFvvEEC1EPS1_) for mbed::Callback<void()>::Callback(void(*)())
    .\build\can.o(i._ZN4mbed3CAN12_irq_handlerEj10CanIrqType) refers to .\build\at_cellularsms.o(t._ZNK4mbed8CallbackIFvvEEcvbEv) for mbed::Callback<void()>::operator bool() const
    .\build\can.o(i._ZN4mbed3CAN12_irq_handlerEj10CanIrqType) refers to .\build\mbed_assert.o(i.mbed_assert_internal) for mbed_assert_internal
    .\build\can.o(i._ZN4mbed3CAN12_irq_handlerEj10CanIrqType) refers to .\build\at_cellularsms.o(.constdata__ZZNK4mbed8CallbackIFvvEE4callEvEs_0) for mbed::Callback<void()>::call() const::string (instance 2)
    .\build\can.o(i._ZN4mbed3CAN12_irq_handlerEj10CanIrqType) refers to .\build\at_cellularsms.o(.constdata__ZZNK4mbed8CallbackIFvvEE4callEvEs) for mbed::Callback<void()>::call() const::string
    .\build\can.o(i._ZN4mbed3CAN4lockEv) refers to .\build\mutex.o(i._ZN4rtos5Mutex4lockEj) for rtos::Mutex::lock(unsigned)
    .\build\can.o(i._ZN4mbed3CAN4modeENS0_4ModeE) refers to .\build\can_api.o(i.can_mode) for can_mode
    .\build\can.o(i._ZN4mbed3CAN4readERNS_10CANMessageEi) refers to .\build\can_api.o(i.can_read) for can_read
    .\build\can.o(i._ZN4mbed3CAN5resetEv) refers to .\build\can_api.o(i.can_reset) for can_reset
    .\build\can.o(i._ZN4mbed3CAN5writeENS_10CANMessageE) refers to .\build\can_api.o(i.can_write) for can_write
    .\build\can.o(i._ZN4mbed3CAN6attachENS_8CallbackIFvvEEENS0_7IrqTypeE) refers to .\build\at_cellularsms.o(t._ZNK4mbed8CallbackIFvvEEcvbEv) for mbed::Callback<void()>::operator bool() const
    .\build\can.o(i._ZN4mbed3CAN6attachENS_8CallbackIFvvEEENS0_7IrqTypeE) refers to .\build\mbed_sleep_manager.o(i.sleep_manager_lock_deep_sleep_internal) for sleep_manager_lock_deep_sleep_internal
    .\build\can.o(i._ZN4mbed3CAN6attachENS_8CallbackIFvvEEENS0_7IrqTypeE) refers to .\build\loramac.o(t._ZN4mbed8CallbackIFvvEEaSERKS2_) for mbed::Callback<void()>::operator =(const mbed::Callback<void()>&)
    .\build\can.o(i._ZN4mbed3CAN6attachENS_8CallbackIFvvEEENS0_7IrqTypeE) refers to .\build\can_api.o(i.can_irq_set) for can_irq_set
    .\build\can.o(i._ZN4mbed3CAN6attachENS_8CallbackIFvvEEENS0_7IrqTypeE) refers to .\build\mbed_sleep_manager.o(i.sleep_manager_unlock_deep_sleep_internal) for sleep_manager_unlock_deep_sleep_internal
    .\build\can.o(i._ZN4mbed3CAN6attachENS_8CallbackIFvvEEENS0_7IrqTypeE) refers to .\build\can.o(t._ZN4mbed8CallbackIFvvEEC1EPS1_) for mbed::Callback<void()>::Callback(void(*)())
    .\build\can.o(i._ZN4mbed3CAN6attachENS_8CallbackIFvvEEENS0_7IrqTypeE) refers to .\build\at_cellularsms.o(t._ZN4mbed8CallbackIFvvEED1Ev) for mbed::Callback<void()>::~Callback()
    .\build\can.o(i._ZN4mbed3CAN6filterEjj9CANFormati) refers to .\build\can_api.o(i.can_filter) for can_filter
    .\build\can.o(i._ZN4mbed3CAN6unlockEv) refers to .\build\mutex.o(i._ZN4rtos5Mutex6unlockEv) for rtos::Mutex::unlock()
    .\build\can.o(i._ZN4mbed3CAN7monitorEb) refers to .\build\can_api.o(i.can_monitor) for can_monitor
    .\build\can.o(i._ZN4mbed3CAN7rderrorEv) refers to .\build\can_api.o(i.can_rderror) for can_rderror
    .\build\can.o(i._ZN4mbed3CAN7tderrorEv) refers to .\build\can_api.o(i.can_tderror) for can_tderror
    .\build\can.o(i._ZN4mbed3CAN9frequencyEi) refers to .\build\can_api.o(i.can_frequency) for can_frequency
    .\build\can.o(i._ZN4mbed3CANC1E7PinNameS1_) refers to D:\Keil_v5\ARM\ARMCC\Bin\..\lib\armlib\c_w.l(rt_memclr_w.o)(.text) for __aeabi_memclr4
    .\build\can.o(i._ZN4mbed3CANC1E7PinNameS1_) refers to D:\Keil_v5\ARM\ARMCC\Bin\..\lib\cpplib\cpprt_w.l(aeabi_vec_ctor_nocookie_nodtor.o)(i.__aeabi_vec_ctor_nocookie_nodtor) for __aeabi_vec_ctor_nocookie_nodtor
    .\build\can.o(i._ZN4mbed3CANC1E7PinNameS1_) refers to .\build\mutex.o(i._ZN4rtos5MutexC1Ev) for rtos::Mutex::Mutex()
    .\build\can.o(i._ZN4mbed3CANC1E7PinNameS1_) refers to .\build\can.o(t._ZN4mbed8CallbackIFvvEEC1EPS1_) for mbed::Callback<void()>::Callback(void(*)())
    .\build\can.o(i._ZN4mbed3CANC1E7PinNameS1_) refers to .\build\loramac.o(t._ZN4mbed8CallbackIFvvEEaSERKS2_) for mbed::Callback<void()>::operator =(const mbed::Callback<void()>&)
    .\build\can.o(i._ZN4mbed3CANC1E7PinNameS1_) refers to .\build\at_cellularsms.o(t._ZN4mbed8CallbackIFvvEED1Ev) for mbed::Callback<void()>::~Callback()
    .\build\can.o(i._ZN4mbed3CANC1E7PinNameS1_) refers to .\build\can_api.o(i.can_init) for can_init
    .\build\can.o(i._ZN4mbed3CANC1E7PinNameS1_) refers to .\build\can_api.o(i.can_irq_init) for can_irq_init
    .\build\can.o(i._ZN4mbed3CANC1E7PinNameS1_) refers to .\build\can.o(.constdata__ZTVN4mbed3CANE) for vtable for mbed::CAN
    .\build\can.o(i._ZN4mbed3CANC1E7PinNameS1_) refers to .\build\can.o(i.<Func2>) for <Func2>
    .\build\can.o(i._ZN4mbed3CANC1E7PinNameS1_) refers to .\build\can.o(i._ZN4mbed3CAN12_irq_handlerEj10CanIrqType) for mbed::CAN::_irq_handler(unsigned, CanIrqType)
    .\build\can.o(i._ZN4mbed3CANC1E7PinNameS1_i) refers to D:\Keil_v5\ARM\ARMCC\Bin\..\lib\armlib\c_w.l(rt_memclr_w.o)(.text) for __aeabi_memclr4
    .\build\can.o(i._ZN4mbed3CANC1E7PinNameS1_i) refers to D:\Keil_v5\ARM\ARMCC\Bin\..\lib\cpplib\cpprt_w.l(aeabi_vec_ctor_nocookie_nodtor.o)(i.__aeabi_vec_ctor_nocookie_nodtor) for __aeabi_vec_ctor_nocookie_nodtor
    .\build\can.o(i._ZN4mbed3CANC1E7PinNameS1_i) refers to .\build\mutex.o(i._ZN4rtos5MutexC1Ev) for rtos::Mutex::Mutex()
    .\build\can.o(i._ZN4mbed3CANC1E7PinNameS1_i) refers to .\build\can.o(t._ZN4mbed8CallbackIFvvEEC1EPS1_) for mbed::Callback<void()>::Callback(void(*)())
    .\build\can.o(i._ZN4mbed3CANC1E7PinNameS1_i) refers to .\build\loramac.o(t._ZN4mbed8CallbackIFvvEEaSERKS2_) for mbed::Callback<void()>::operator =(const mbed::Callback<void()>&)
    .\build\can.o(i._ZN4mbed3CANC1E7PinNameS1_i) refers to .\build\at_cellularsms.o(t._ZN4mbed8CallbackIFvvEED1Ev) for mbed::Callback<void()>::~Callback()
    .\build\can.o(i._ZN4mbed3CANC1E7PinNameS1_i) refers to .\build\can_api.o(i.can_init_freq) for can_init_freq
    .\build\can.o(i._ZN4mbed3CANC1E7PinNameS1_i) refers to .\build\can_api.o(i.can_irq_init) for can_irq_init
    .\build\can.o(i._ZN4mbed3CANC1E7PinNameS1_i) refers to .\build\can.o(.constdata__ZTVN4mbed3CANE) for vtable for mbed::CAN
    .\build\can.o(i._ZN4mbed3CANC1E7PinNameS1_i) refers to .\build\can.o(i.<Func2>) for <Func2>
    .\build\can.o(i._ZN4mbed3CANC1E7PinNameS1_i) refers to .\build\can.o(i._ZN4mbed3CAN12_irq_handlerEj10CanIrqType) for mbed::CAN::_irq_handler(unsigned, CanIrqType)
    .\build\can.o(i._ZN4mbed3CAND0Ev) refers to .\build\can.o(i._ZN4mbed3CAND1Ev) for mbed::CAN::~CAN()
    .\build\can.o(i._ZN4mbed3CAND0Ev) refers to .\build\mbed_retarget.o(i._ZdlPv) for operator delete (void*)
    .\build\can.o(i._ZN4mbed3CAND1Ev) refers to .\build\can.o(t._ZN4mbed8CallbackIFvvEEC1EPS1_) for mbed::Callback<void()>::Callback(void(*)())
    .\build\can.o(i._ZN4mbed3CAND1Ev) refers to .\build\can.o(i._ZN4mbed3CAN6attachENS_8CallbackIFvvEEENS0_7IrqTypeE) for mbed::CAN::attach(mbed::Callback<void()>, mbed::CAN::IrqType)
    .\build\can.o(i._ZN4mbed3CAND1Ev) refers to .\build\at_cellularsms.o(t._ZN4mbed8CallbackIFvvEED1Ev) for mbed::Callback<void()>::~Callback()
    .\build\can.o(i._ZN4mbed3CAND1Ev) refers to .\build\can_api.o(i.can_irq_free) for can_irq_free
    .\build\can.o(i._ZN4mbed3CAND1Ev) refers to .\build\can_api.o(i.can_free) for can_free
    .\build\can.o(i._ZN4mbed3CAND1Ev) refers to .\build\mutex.o(i._ZN4rtos5MutexD1Ev) for rtos::Mutex::~Mutex()
    .\build\can.o(i._ZN4mbed3CAND1Ev) refers to D:\Keil_v5\ARM\ARMCC\Bin\..\lib\cpplib\cpprt_w.l(aeabi_vec_dtor_noexceptions.o)(.text) for __aeabi_vec_dtor
    .\build\can.o(i._ZN4mbed3CAND1Ev) refers to .\build\can.o(.constdata__ZTVN4mbed3CANE) for vtable for mbed::CAN
    .\build\can.o(.ARM.exidx) refers to .\build\can.o(i.<Func2>) for i.<Func2>
    .\build\can.o(.ARM.exidx) refers to .\build\can.o(i._ZN4mbed3CAN12_irq_handlerEj10CanIrqType) for i._ZN4mbed3CAN12_irq_handlerEj10CanIrqType
    .\build\can.o(.ARM.exidx) refers to .\build\can.o(i._ZN4mbed3CANC1E7PinNameS1_) for i._ZN4mbed3CANC1E7PinNameS1_
    .\build\can.o(.ARM.exidx) refers to .\build\can.o(i._ZN4mbed3CANC1E7PinNameS1_i) for i._ZN4mbed3CANC1E7PinNameS1_i
    .\build\can.o(.ARM.exidx) refers to .\build\can.o(i._ZN4mbed3CAN6attachENS_8CallbackIFvvEEENS0_7IrqTypeE) for i._ZN4mbed3CAN6attachENS_8CallbackIFvvEEENS0_7IrqTypeE
    .\build\can.o(.ARM.exidx) refers to .\build\can.o(i._ZN4mbed3CAND1Ev) for i._ZN4mbed3CAND1Ev
    .\build\can.o(.ARM.exidx) refers to .\build\can.o(i._ZN4mbed3CAND0Ev) for i._ZN4mbed3CAND0Ev
    .\build\can.o(.ARM.exidx) refers to .\build\can.o(i._ZN4mbed3CAN9frequencyEi) for i._ZN4mbed3CAN9frequencyEi
    .\build\can.o(.ARM.exidx) refers to .\build\can.o(i._ZN4mbed3CAN5writeENS_10CANMessageE) for i._ZN4mbed3CAN5writeENS_10CANMessageE
    .\build\can.o(.ARM.exidx) refers to .\build\can.o(i._ZN4mbed3CAN4readERNS_10CANMessageEi) for i._ZN4mbed3CAN4readERNS_10CANMessageEi
    .\build\can.o(.ARM.exidx) refers to .\build\can.o(i._ZN4mbed3CAN5resetEv) for i._ZN4mbed3CAN5resetEv
    .\build\can.o(.ARM.exidx) refers to .\build\can.o(i._ZN4mbed3CAN7monitorEb) for i._ZN4mbed3CAN7monitorEb
    .\build\can.o(.ARM.exidx) refers to .\build\can.o(i._ZN4mbed3CAN4modeENS0_4ModeE) for i._ZN4mbed3CAN4modeENS0_4ModeE
    .\build\can.o(.ARM.exidx) refers to .\build\can.o(i._ZN4mbed3CAN6filterEjj9CANFormati) for i._ZN4mbed3CAN6filterEjj9CANFormati
    .\build\can.o(.ARM.exidx) refers to .\build\can.o(i._ZN4mbed3CAN7rderrorEv) for i._ZN4mbed3CAN7rderrorEv
    .\build\can.o(.ARM.exidx) refers to .\build\can.o(i._ZN4mbed3CAN7tderrorEv) for i._ZN4mbed3CAN7tderrorEv
    .\build\can.o(.ARM.exidx) refers to .\build\can.o(i._ZN4mbed3CAN4lockEv) for i._ZN4mbed3CAN4lockEv
    .\build\can.o(.ARM.exidx) refers to .\build\can.o(i._ZN4mbed3CAN6unlockEv) for i._ZN4mbed3CAN6unlockEv
    .\build\can_api.o(i.CAN1_SCE_IRQHandler) refers to .\build\can_api.o(i.can_irq) for can_irq
    .\build\can_api.o(i.USB_HP_CAN1_TX_IRQHandler) refers to .\build\can_api.o(i.can_irq) for can_irq
    .\build\can_api.o(i.USB_LP_CAN1_RX0_IRQHandler) refers to .\build\can_api.o(i.can_irq) for can_irq
    .\build\can_api.o(i.can_filter) refers to .\build\stm32f1xx_hal_can.o(i.HAL_CAN_ConfigFilter) for HAL_CAN_ConfigFilter
    .\build\can_api.o(i.can_frequency) refers to .\build\stm32f1xx_hal_rcc.o(i.HAL_RCC_GetPCLK1Freq) for HAL_RCC_GetPCLK1Freq
    .\build\can_api.o(i.can_frequency) refers to .\build\can_api.o(i.can_speed) for can_speed
    .\build\can_api.o(i.can_frequency) refers to .\build\stm32f1xx_hal.o(i.HAL_GetTick) for HAL_GetTick
    .\build\can_api.o(i.can_frequency) refers to .\build\mbed_error.o(i.error) for error
    .\build\can_api.o(i.can_init) refers to .\build\can_api.o(i.can_init_freq) for can_init_freq
    .\build\can_api.o(i.can_init_freq) refers to .\build\mbed_pinmap_common.o(i.pinmap_peripheral) for pinmap_peripheral
    .\build\can_api.o(i.can_init_freq) refers to .\build\mbed_pinmap_common.o(i.pinmap_merge) for pinmap_merge
    .\build\can_api.o(i.can_init_freq) refers to .\build\mbed_assert.o(i.mbed_assert_internal) for mbed_assert_internal
    .\build\can_api.o(i.can_init_freq) refers to .\build\mbed_pinmap_common.o(i.pinmap_pinout) for pinmap_pinout
    .\build\can_api.o(i.can_init_freq) refers to .\build\pinmap.o(i.pin_mode) for pin_mode
    .\build\can_api.o(i.can_init_freq) refers to .\build\can_api.o(i.can_registers_init) for can_registers_init
    .\build\can_api.o(i.can_init_freq) refers to .\build\can_api.o(i.can_filter) for can_filter
    .\build\can_api.o(i.can_init_freq) refers to .\build\peripheralpins.o(.constdata) for PinMap_CAN_RD
    .\build\can_api.o(i.can_init_freq) refers to .\build\peripheralpins.o(.constdata) for PinMap_CAN_TD
    .\build\can_api.o(i.can_irq) refers to .\build\can_api.o(.data) for .data
    .\build\can_api.o(i.can_irq_free) refers to .\build\can_api.o(.data) for .data
    .\build\can_api.o(i.can_irq_init) refers to .\build\can_api.o(.data) for .data
    .\build\can_api.o(i.can_irq_set) refers to .\build\can_api.o(i.USB_LP_CAN1_RX0_IRQHandler) for USB_LP_CAN1_RX0_IRQHandler
    .\build\can_api.o(i.can_irq_set) refers to .\build\can_api.o(i.USB_HP_CAN1_TX_IRQHandler) for USB_HP_CAN1_TX_IRQHandler
    .\build\can_api.o(i.can_irq_set) refers to .\build\can_api.o(i.CAN1_SCE_IRQHandler) for CAN1_SCE_IRQHandler
    .\build\can_api.o(i.can_monitor) refers to .\build\can_api.o(i.can_mode) for can_mode
    .\build\can_api.o(i.can_registers_init) refers to .\build\stm32f1xx_hal_can.o(i.HAL_CAN_Init) for HAL_CAN_Init
    .\build\can_api.o(i.can_registers_init) refers to .\build\mbed_error.o(i.error) for error
    .\build\can_api.o(i.can_registers_init) refers to .\build\can_api.o(i.can_frequency) for can_frequency
    .\build\can_api.o(i.can_reset) refers to .\build\can_api.o(i.can_registers_init) for can_registers_init
    .\build\can_api.o(i.can_speed) refers to .\build\can_api.o(.constdata) for .constdata
    .\build\ccm.o(i.ccm_auth_crypt) refers to D:\Keil_v5\ARM\ARMCC\Bin\..\lib\armlib\c_w.l(rt_memcpy_v6.o)(.text) for __aeabi_memcpy
    .\build\ccm.o(i.ccm_auth_crypt) refers to .\build\cipher.o(i.mbedtls_cipher_update) for mbedtls_cipher_update
    .\build\ccm.o(i.ccm_auth_crypt) refers to D:\Keil_v5\ARM\ARMCC\Bin\..\lib\armlib\c_w.l(rt_memclr.o)(.text) for __aeabi_memclr
    .\build\ccm.o(i.mbedtls_ccm_auth_decrypt) refers to .\build\ccm.o(i.ccm_auth_crypt) for ccm_auth_crypt
    .\build\ccm.o(i.mbedtls_ccm_auth_decrypt) refers to .\build\ccm.o(i.mbedtls_zeroize) for mbedtls_zeroize
    .\build\ccm.o(i.mbedtls_ccm_encrypt_and_tag) refers to .\build\ccm.o(i.ccm_auth_crypt) for ccm_auth_crypt
    .\build\ccm.o(i.mbedtls_ccm_free) refers to .\build\cipher.o(i.mbedtls_cipher_free) for mbedtls_cipher_free
    .\build\ccm.o(i.mbedtls_ccm_free) refers to .\build\ccm.o(i.mbedtls_zeroize) for mbedtls_zeroize
    .\build\ccm.o(i.mbedtls_ccm_init) refers to D:\Keil_v5\ARM\ARMCC\Bin\..\lib\armlib\c_w.l(rt_memclr_w.o)(.text) for __aeabi_memclr4
    .\build\ccm.o(i.mbedtls_ccm_self_test) refers to D:\Keil_v5\ARM\ARMCC\Bin\..\lib\armlib\c_w.l(_printf_percent.o)(.ARM.Collect$$_printf_percent$$00000000) for _printf_percent
    .\build\ccm.o(i.mbedtls_ccm_self_test) refers to D:\Keil_v5\ARM\ARMCC\Bin\..\lib\armlib\c_w.l(_printf_u.o)(.ARM.Collect$$_printf_percent$$0000000A) for _printf_u
    .\build\ccm.o(i.mbedtls_ccm_self_test) refers to D:\Keil_v5\ARM\ARMCC\Bin\..\lib\armlib\c_w.l(_printf_dec.o)(.text) for _printf_int_dec
    .\build\ccm.o(i.mbedtls_ccm_self_test) refers to .\build\ccm.o(i.mbedtls_ccm_init) for mbedtls_ccm_init
    .\build\ccm.o(i.mbedtls_ccm_self_test) refers to .\build\ccm.o(i.mbedtls_ccm_setkey) for mbedtls_ccm_setkey
    .\build\ccm.o(i.mbedtls_ccm_self_test) refers to D:\Keil_v5\ARM\ARMCC\Bin\..\lib\armlib\c_w.l(__2printf.o)(.text) for __2printf
    .\build\ccm.o(i.mbedtls_ccm_self_test) refers to .\build\ccm.o(i.mbedtls_ccm_encrypt_and_tag) for mbedtls_ccm_encrypt_and_tag
    .\build\ccm.o(i.mbedtls_ccm_self_test) refers to D:\Keil_v5\ARM\ARMCC\Bin\..\lib\armlib\c_w.l(memcmp.o)(.text) for memcmp
    .\build\ccm.o(i.mbedtls_ccm_self_test) refers to .\build\ccm.o(i.mbedtls_ccm_auth_decrypt) for mbedtls_ccm_auth_decrypt
    .\build\ccm.o(i.mbedtls_ccm_self_test) refers to .\build\ccm.o(i.mbedtls_ccm_free) for mbedtls_ccm_free
    .\build\ccm.o(i.mbedtls_ccm_self_test) refers to .\build\ccm.o(.constdata) for .constdata
    .\build\ccm.o(i.mbedtls_ccm_setkey) refers to .\build\cipher.o(i.mbedtls_cipher_info_from_values) for mbedtls_cipher_info_from_values
    .\build\ccm.o(i.mbedtls_ccm_setkey) refers to .\build\cipher.o(i.mbedtls_cipher_free) for mbedtls_cipher_free
    .\build\ccm.o(i.mbedtls_ccm_setkey) refers to .\build\cipher.o(i.mbedtls_cipher_setup) for mbedtls_cipher_setup
    .\build\ccm.o(i.mbedtls_ccm_setkey) refers to .\build\cipher.o(i.mbedtls_cipher_setkey) for mbedtls_cipher_setkey
    .\build\cellularutil.o(i._ZN18mbed_cellular_util11prefer_ipv6EPcjS0_j) refers to D:\Keil_v5\ARM\ARMCC\Bin\..\lib\armlib\c_w.l(strchr.o)(.text) for strchr
    .\build\cellularutil.o(i._ZN18mbed_cellular_util11prefer_ipv6EPcjS0_j) refers to D:\Keil_v5\ARM\ARMCC\Bin\..\lib\armlib\c_w.l(strlen.o)(.text) for strlen
    .\build\cellularutil.o(i._ZN18mbed_cellular_util11prefer_ipv6EPcjS0_j) refers to D:\Keil_v5\ARM\ARMCC\Bin\..\lib\armlib\c_w.l(strncpy.o)(.text) for strncpy
    .\build\cellularutil.o(i._ZN18mbed_cellular_util12convert_ipv6EPc) refers to D:\Keil_v5\ARM\ARMCC\Bin\..\lib\armlib\c_w.l(strlen.o)(.text) for strlen
    .\build\cellularutil.o(i._ZN18mbed_cellular_util12convert_ipv6EPc) refers to D:\Keil_v5\ARM\ARMCC\Bin\..\lib\armlib\c_w.l(strtol.o)(.text) for strtol
    .\build\cellularutil.o(i._ZN18mbed_cellular_util12convert_ipv6EPc) refers to .\build\cellularutil.o(i._ZN18mbed_cellular_util19char_str_to_hex_strEPKctPcb) for mbed_cellular_util::char_str_to_hex_str(const char*, unsigned short, char*, bool)
    .\build\cellularutil.o(i._ZN18mbed_cellular_util14int_to_hex_strEhPc) refers to .\build\cellularutil.o(i._ZN18mbed_cellular_util19char_str_to_hex_strEPKctPcb) for mbed_cellular_util::char_str_to_hex_str(const char*, unsigned short, char*, bool)
    .\build\cellularutil.o(i._ZN18mbed_cellular_util19char_str_to_hex_strEPKctPcb) refers to .\build\cellularutil.o(.constdata) for .constdata
    .\build\cellularutil.o(i._ZN18mbed_cellular_util19get_dynamic_ip_portEv) refers to .\build\cellularutil.o(.data) for .data
    .\build\cellularutil.o(i._ZN18mbed_cellular_util19hex_str_to_char_strEPKctPc) refers to .\build\cellularutil.o(i._ZN18mbed_cellular_util14hex_str_to_intEPKci) for mbed_cellular_util::hex_str_to_int(const char*, int)
    .\build\cellularutil.o(i._ZN18mbed_cellular_util21separate_ip_addressesEPcS0_jS0_j) refers to D:\Keil_v5\ARM\ARMCC\Bin\..\lib\armlib\c_w.l(strchr.o)(.text) for strchr
    .\build\cellularutil.o(i._ZN18mbed_cellular_util21separate_ip_addressesEPcS0_jS0_j) refers to D:\Keil_v5\ARM\ARMCC\Bin\..\lib\armlib\c_w.l(strstr.o)(.text) for strstr
    .\build\cellularutil.o(i._ZN18mbed_cellular_util21separate_ip_addressesEPcS0_jS0_j) refers to D:\Keil_v5\ARM\ARMCC\Bin\..\lib\armlib\c_w.l(rt_memcpy_v6.o)(.text) for __aeabi_memcpy
    .\build\cellularutil.o(i._ZN18mbed_cellular_util21separate_ip_addressesEPcS0_jS0_j) refers to D:\Keil_v5\ARM\ARMCC\Bin\..\lib\armlib\c_w.l(strlen.o)(.text) for strlen
    .\build\cellularutil.o(i._ZN18mbed_cellular_util21separate_ip_addressesEPcS0_jS0_j) refers to .\build\cellularutil.o(i._ZN18mbed_cellular_util26separate_ip4like_addressesEPcS0_jS0_j) for mbed_cellular_util::separate_ip4like_addresses(char*, char*, unsigned, char*, unsigned)
    .\build\cellularutil.o(i._ZN18mbed_cellular_util26separate_ip4like_addressesEPcS0_jS0_j) refers to D:\Keil_v5\ARM\ARMCC\Bin\..\lib\armlib\c_w.l(strlen.o)(.text) for strlen
    .\build\cellularutil.o(i._ZN18mbed_cellular_util26separate_ip4like_addressesEPcS0_jS0_j) refers to D:\Keil_v5\ARM\ARMCC\Bin\..\lib\armlib\c_w.l(rt_memcpy_v6.o)(.text) for __aeabi_memcpy
    .\build\cellularutil.o(i._ZN18mbed_cellular_util26separate_ip4like_addressesEPcS0_jS0_j) refers to .\build\cellularutil.o(i._ZN18mbed_cellular_util12convert_ipv6EPc) for mbed_cellular_util::convert_ipv6(char*)
    .\build\cellularutil.o(.ARM.exidx) refers to .\build\cellularutil.o(i._ZN18mbed_cellular_util19char_str_to_hex_strEPKctPcb) for i._ZN18mbed_cellular_util19char_str_to_hex_strEPKctPcb
    .\build\cellularutil.o(.ARM.exidx) refers to .\build\cellularutil.o(i._ZN18mbed_cellular_util12convert_ipv6EPc) for i._ZN18mbed_cellular_util12convert_ipv6EPc
    .\build\cellularutil.o(.ARM.exidx) refers to .\build\cellularutil.o(i._ZN18mbed_cellular_util26separate_ip4like_addressesEPcS0_jS0_j) for i._ZN18mbed_cellular_util26separate_ip4like_addressesEPcS0_jS0_j
    .\build\cellularutil.o(.ARM.exidx) refers to .\build\cellularutil.o(i._ZN18mbed_cellular_util21separate_ip_addressesEPcS0_jS0_j) for i._ZN18mbed_cellular_util21separate_ip_addressesEPcS0_jS0_j
    .\build\cellularutil.o(.ARM.exidx) refers to .\build\cellularutil.o(i._ZN18mbed_cellular_util11prefer_ipv6EPcjS0_j) for i._ZN18mbed_cellular_util11prefer_ipv6EPcjS0_j
    .\build\cellularutil.o(.ARM.exidx) refers to .\build\cellularutil.o(i._ZN18mbed_cellular_util14int_to_hex_strEhPc) for i._ZN18mbed_cellular_util14int_to_hex_strEhPc
    .\build\cellularutil.o(.ARM.exidx) refers to .\build\cellularutil.o(i._ZN18mbed_cellular_util14hex_str_to_intEPKci) for i._ZN18mbed_cellular_util14hex_str_to_intEPKci
    .\build\cellularutil.o(.ARM.exidx) refers to .\build\cellularutil.o(i._ZN18mbed_cellular_util19hex_str_to_char_strEPKctPc) for i._ZN18mbed_cellular_util19hex_str_to_char_strEPKctPc
    .\build\cellularutil.o(.ARM.exidx) refers to .\build\cellularutil.o(i._ZN18mbed_cellular_util18uint_to_binary_strEjPcii) for i._ZN18mbed_cellular_util18uint_to_binary_strEjPcii
    .\build\cellularutil.o(.ARM.exidx) refers to .\build\cellularutil.o(i._ZN18mbed_cellular_util19get_dynamic_ip_portEv) for i._ZN18mbed_cellular_util19get_dynamic_ip_portEv
    .\build\chainingblockdevice.o(i._Z10is_alignedyy) refers to D:\Keil_v5\ARM\ARMCC\Bin\..\lib\armlib\c_w.l(lludivv7m.o)(.text) for __aeabi_uldivmod
    .\build\chainingblockdevice.o(i._ZN19ChainingBlockDevice4initEv) refers to .\build\chainingblockdevice.o(i._Z10is_alignedyy) for is_aligned(unsigned long long, unsigned long long)
    .\build\chainingblockdevice.o(i._ZN19ChainingBlockDevice4initEv) refers to .\build\mbed_assert.o(i.mbed_assert_internal) for mbed_assert_internal
    .\build\chainingblockdevice.o(i._ZN19ChainingBlockDevice4readEPvyy) refers to D:\Keil_v5\ARM\ARMCC\Bin\..\lib\armlib\c_w.l(lludivv7m.o)(.text) for __aeabi_uldivmod
    .\build\chainingblockdevice.o(i._ZN19ChainingBlockDevice4readEPvyy) refers to .\build\mbed_assert.o(i.mbed_assert_internal) for mbed_assert_internal
    .\build\chainingblockdevice.o(i._ZN19ChainingBlockDevice5eraseEyy) refers to D:\Keil_v5\ARM\ARMCC\Bin\..\lib\armlib\c_w.l(lludivv7m.o)(.text) for __aeabi_uldivmod
    .\build\chainingblockdevice.o(i._ZN19ChainingBlockDevice5eraseEyy) refers to .\build\mbed_assert.o(i.mbed_assert_internal) for mbed_assert_internal
    .\build\chainingblockdevice.o(i._ZN19ChainingBlockDevice7programEPKvyy) refers to D:\Keil_v5\ARM\ARMCC\Bin\..\lib\armlib\c_w.l(lludivv7m.o)(.text) for __aeabi_uldivmod
    .\build\chainingblockdevice.o(i._ZN19ChainingBlockDevice7programEPKvyy) refers to .\build\mbed_assert.o(i.mbed_assert_internal) for mbed_assert_internal
    .\build\chainingblockdevice.o(i._ZN19ChainingBlockDeviceC1EPP11BlockDevicej) refers to .\build\chainingblockdevice.o(.constdata__ZTV19ChainingBlockDevice) for vtable for ChainingBlockDevice
    .\build\chainingblockdevice.o(.ARM.exidx) refers to .\build\chainingblockdevice.o(i._Z10is_alignedyy) for i._Z10is_alignedyy
    .\build\chainingblockdevice.o(.ARM.exidx) refers to .\build\chainingblockdevice.o(i._ZN19ChainingBlockDeviceC1EPP11BlockDevicej) for i._ZN19ChainingBlockDeviceC1EPP11BlockDevicej
    .\build\chainingblockdevice.o(.ARM.exidx) refers to .\build\chainingblockdevice.o(i._ZN19ChainingBlockDevice4initEv) for i._ZN19ChainingBlockDevice4initEv
    .\build\chainingblockdevice.o(.ARM.exidx) refers to .\build\chainingblockdevice.o(i._ZN19ChainingBlockDevice6deinitEv) for i._ZN19ChainingBlockDevice6deinitEv
    .\build\chainingblockdevice.o(.ARM.exidx) refers to .\build\chainingblockdevice.o(i._ZN19ChainingBlockDevice4syncEv) for i._ZN19ChainingBlockDevice4syncEv
    .\build\chainingblockdevice.o(.ARM.exidx) refers to .\build\chainingblockdevice.o(i._ZN19ChainingBlockDevice4readEPvyy) for i._ZN19ChainingBlockDevice4readEPvyy
    .\build\chainingblockdevice.o(.ARM.exidx) refers to .\build\chainingblockdevice.o(i._ZN19ChainingBlockDevice7programEPKvyy) for i._ZN19ChainingBlockDevice7programEPKvyy
    .\build\chainingblockdevice.o(.ARM.exidx) refers to .\build\chainingblockdevice.o(i._ZN19ChainingBlockDevice5eraseEyy) for i._ZN19ChainingBlockDevice5eraseEyy
    .\build\chainingblockdevice.o(.ARM.exidx) refers to .\build\chainingblockdevice.o(i._ZNK19ChainingBlockDevice13get_read_sizeEv) for i._ZNK19ChainingBlockDevice13get_read_sizeEv
    .\build\chainingblockdevice.o(.ARM.exidx) refers to .\build\chainingblockdevice.o(i._ZNK19ChainingBlockDevice16get_program_sizeEv) for i._ZNK19ChainingBlockDevice16get_program_sizeEv
    .\build\chainingblockdevice.o(.ARM.exidx) refers to .\build\chainingblockdevice.o(i._ZNK19ChainingBlockDevice14get_erase_sizeEv) for i._ZNK19ChainingBlockDevice14get_erase_sizeEv
    .\build\chainingblockdevice.o(.ARM.exidx) refers to .\build\chainingblockdevice.o(i._ZNK19ChainingBlockDevice15get_erase_valueEv) for i._ZNK19ChainingBlockDevice15get_erase_valueEv
    .\build\chainingblockdevice.o(.ARM.exidx) refers to .\build\chainingblockdevice.o(i._ZNK19ChainingBlockDevice4sizeEv) for i._ZNK19ChainingBlockDevice4sizeEv
    .\build\cipher.o(i.mbedtls_cipher_auth_decrypt) refers to .\build\gcm.o(i.mbedtls_gcm_auth_decrypt) for mbedtls_gcm_auth_decrypt
    .\build\cipher.o(i.mbedtls_cipher_auth_decrypt) refers to .\build\ccm.o(i.mbedtls_ccm_auth_decrypt) for mbedtls_ccm_auth_decrypt
    .\build\cipher.o(i.mbedtls_cipher_auth_encrypt) refers to .\build\gcm.o(i.mbedtls_gcm_crypt_and_tag) for mbedtls_gcm_crypt_and_tag
    .\build\cipher.o(i.mbedtls_cipher_auth_encrypt) refers to .\build\ccm.o(i.mbedtls_ccm_encrypt_and_tag) for mbedtls_ccm_encrypt_and_tag
    .\build\cipher.o(i.mbedtls_cipher_check_tag) refers to .\build\gcm.o(i.mbedtls_gcm_finish) for mbedtls_gcm_finish
    .\build\cipher.o(i.mbedtls_cipher_crypt) refers to .\build\cipher.o(i.mbedtls_cipher_set_iv) for mbedtls_cipher_set_iv
    .\build\cipher.o(i.mbedtls_cipher_crypt) refers to .\build\cipher.o(i.mbedtls_cipher_reset) for mbedtls_cipher_reset
    .\build\cipher.o(i.mbedtls_cipher_crypt) refers to .\build\cipher.o(i.mbedtls_cipher_update) for mbedtls_cipher_update
    .\build\cipher.o(i.mbedtls_cipher_crypt) refers to .\build\cipher.o(i.mbedtls_cipher_finish) for mbedtls_cipher_finish
    .\build\cipher.o(i.mbedtls_cipher_finish) refers to .\build\cipher.o(i.mbedtls_cipher_get_block_size) for mbedtls_cipher_get_block_size
    .\build\cipher.o(i.mbedtls_cipher_free) refers to .\build\cipher.o(i.mbedtls_zeroize) for mbedtls_zeroize
    .\build\cipher.o(i.mbedtls_cipher_info_from_string) refers to D:\Keil_v5\ARM\ARMCC\Bin\..\lib\armlib\c_w.l(strcmpv7m.o)(.text) for strcmp
    .\build\cipher.o(i.mbedtls_cipher_info_from_string) refers to .\build\cipher_wrap.o(.constdata) for mbedtls_cipher_definitions
    .\build\cipher.o(i.mbedtls_cipher_info_from_type) refers to .\build\cipher_wrap.o(.constdata) for mbedtls_cipher_definitions
    .\build\cipher.o(i.mbedtls_cipher_info_from_values) refers to .\build\cipher_wrap.o(.constdata) for mbedtls_cipher_definitions
    .\build\cipher.o(i.mbedtls_cipher_init) refers to D:\Keil_v5\ARM\ARMCC\Bin\..\lib\armlib\c_w.l(rt_memclr_w.o)(.text) for __aeabi_memclr4
    .\build\cipher.o(i.mbedtls_cipher_list) refers to .\build\cipher.o(.data) for .data
    .\build\cipher.o(i.mbedtls_cipher_list) refers to .\build\cipher_wrap.o(.constdata) for mbedtls_cipher_definitions
    .\build\cipher.o(i.mbedtls_cipher_list) refers to .\build\cipher_wrap.o(.bss) for mbedtls_cipher_supported
    .\build\cipher.o(i.mbedtls_cipher_set_iv) refers to D:\Keil_v5\ARM\ARMCC\Bin\..\lib\armlib\c_w.l(rt_memcpy_v6.o)(.text) for __aeabi_memcpy
    .\build\cipher.o(i.mbedtls_cipher_set_padding_mode) refers to .\build\cipher.o(i.add_pkcs_padding) for add_pkcs_padding
    .\build\cipher.o(i.mbedtls_cipher_set_padding_mode) refers to .\build\cipher.o(i.get_pkcs_padding) for get_pkcs_padding
    .\build\cipher.o(i.mbedtls_cipher_set_padding_mode) refers to .\build\cipher.o(i.get_no_padding) for get_no_padding
    .\build\cipher.o(i.mbedtls_cipher_setup) refers to D:\Keil_v5\ARM\ARMCC\Bin\..\lib\armlib\c_w.l(rt_memclr_w.o)(.text) for __aeabi_memclr4
    .\build\cipher.o(i.mbedtls_cipher_setup) refers to .\build\cipher.o(i.mbedtls_cipher_set_padding_mode) for mbedtls_cipher_set_padding_mode
    .\build\cipher.o(i.mbedtls_cipher_update) refers to .\build\cipher.o(i.mbedtls_cipher_get_block_size) for mbedtls_cipher_get_block_size
    .\build\cipher.o(i.mbedtls_cipher_update) refers to .\build\gcm.o(i.mbedtls_gcm_update) for mbedtls_gcm_update
    .\build\cipher.o(i.mbedtls_cipher_update) refers to D:\Keil_v5\ARM\ARMCC\Bin\..\lib\armlib\c_w.l(rt_memcpy_v6.o)(.text) for __aeabi_memcpy
    .\build\cipher.o(i.mbedtls_cipher_update_ad) refers to .\build\gcm.o(i.mbedtls_gcm_starts) for mbedtls_gcm_starts
    .\build\cipher.o(i.mbedtls_cipher_write_tag) refers to .\build\gcm.o(i.mbedtls_gcm_finish) for mbedtls_gcm_finish
    .\build\cipher_wrap.o(i.aes_crypt_cbc_wrap) refers to .\build\aes.o(i.mbedtls_aes_crypt_cbc) for mbedtls_aes_crypt_cbc
    .\build\cipher_wrap.o(i.aes_crypt_ecb_wrap) refers to .\build\aes.o(i.mbedtls_aes_crypt_ecb) for mbedtls_aes_crypt_ecb
    .\build\cipher_wrap.o(i.aes_ctx_alloc) refers to D:\Keil_v5\ARM\ARMCC\Bin\..\lib\armlib\c_w.l(calloc.o)(.text) for calloc
    .\build\cipher_wrap.o(i.aes_ctx_alloc) refers to .\build\aes.o(i.mbedtls_aes_init) for mbedtls_aes_init
    .\build\cipher_wrap.o(i.aes_ctx_free) refers to .\build\aes.o(i.mbedtls_aes_free) for mbedtls_aes_free
    .\build\cipher_wrap.o(i.aes_ctx_free) refers to D:\Keil_v5\ARM\ARMCC\Bin\..\lib\armlib\c_w.l(h1_free_mt.o)(.text) for free
    .\build\cipher_wrap.o(i.aes_setkey_dec_wrap) refers to .\build\aes.o(i.mbedtls_aes_setkey_dec) for mbedtls_aes_setkey_dec
    .\build\cipher_wrap.o(i.aes_setkey_enc_wrap) refers to .\build\aes.o(i.mbedtls_aes_setkey_enc) for mbedtls_aes_setkey_enc
    .\build\cipher_wrap.o(i.ccm_aes_setkey_wrap) refers to .\build\ccm.o(i.mbedtls_ccm_setkey) for mbedtls_ccm_setkey
    .\build\cipher_wrap.o(i.ccm_ctx_alloc) refers to D:\Keil_v5\ARM\ARMCC\Bin\..\lib\armlib\c_w.l(calloc.o)(.text) for calloc
    .\build\cipher_wrap.o(i.ccm_ctx_alloc) refers to .\build\ccm.o(i.mbedtls_ccm_init) for mbedtls_ccm_init
    .\build\cipher_wrap.o(i.ccm_ctx_free) refers to .\build\ccm.o(i.mbedtls_ccm_free) for mbedtls_ccm_free
    .\build\cipher_wrap.o(i.ccm_ctx_free) refers to D:\Keil_v5\ARM\ARMCC\Bin\..\lib\armlib\c_w.l(h1_free_mt.o)(.text) for free
    .\build\cipher_wrap.o(i.gcm_aes_setkey_wrap) refers to .\build\gcm.o(i.mbedtls_gcm_setkey) for mbedtls_gcm_setkey
    .\build\cipher_wrap.o(i.gcm_ctx_alloc) refers to D:\Keil_v5\ARM\ARMCC\Bin\..\lib\armlib\c_w.l(calloc.o)(.text) for calloc
    .\build\cipher_wrap.o(i.gcm_ctx_alloc) refers to .\build\gcm.o(i.mbedtls_gcm_init) for mbedtls_gcm_init
    .\build\cipher_wrap.o(i.gcm_ctx_free) refers to .\build\gcm.o(i.mbedtls_gcm_free) for mbedtls_gcm_free
    .\build\cipher_wrap.o(i.gcm_ctx_free) refers to D:\Keil_v5\ARM\ARMCC\Bin\..\lib\armlib\c_w.l(h1_free_mt.o)(.text) for free
    .\build\cipher_wrap.o(.constdata) refers to .\build\cipher_wrap.o(i.aes_crypt_ecb_wrap) for aes_crypt_ecb_wrap
    .\build\cipher_wrap.o(.constdata) refers to .\build\cipher_wrap.o(i.aes_crypt_cbc_wrap) for aes_crypt_cbc_wrap
    .\build\cipher_wrap.o(.constdata) refers to .\build\cipher_wrap.o(i.aes_setkey_enc_wrap) for aes_setkey_enc_wrap
    .\build\cipher_wrap.o(.constdata) refers to .\build\cipher_wrap.o(i.aes_setkey_dec_wrap) for aes_setkey_dec_wrap
    .\build\cipher_wrap.o(.constdata) refers to .\build\cipher_wrap.o(i.aes_ctx_alloc) for aes_ctx_alloc
    .\build\cipher_wrap.o(.constdata) refers to .\build\cipher_wrap.o(i.aes_ctx_free) for aes_ctx_free
    .\build\cipher_wrap.o(.constdata) refers to .\build\cipher_wrap.o(.conststring) for .conststring
    .\build\cipher_wrap.o(.constdata) refers to .\build\cipher_wrap.o(.constdata) for aes_info
    .\build\cipher_wrap.o(.constdata) refers to .\build\cipher_wrap.o(.conststring) for .conststring
    .\build\cipher_wrap.o(.constdata) refers to .\build\cipher_wrap.o(.constdata) for aes_info
    .\build\cipher_wrap.o(.constdata) refers to .\build\cipher_wrap.o(.conststring) for .conststring
    .\build\cipher_wrap.o(.constdata) refers to .\build\cipher_wrap.o(.constdata) for aes_info
    .\build\cipher_wrap.o(.constdata) refers to .\build\cipher_wrap.o(.conststring) for .conststring
    .\build\cipher_wrap.o(.constdata) refers to .\build\cipher_wrap.o(.constdata) for aes_info
    .\build\cipher_wrap.o(.constdata) refers to .\build\cipher_wrap.o(.conststring) for .conststring
    .\build\cipher_wrap.o(.constdata) refers to .\build\cipher_wrap.o(.constdata) for aes_info
    .\build\cipher_wrap.o(.constdata) refers to .\build\cipher_wrap.o(.conststring) for .conststring
    .\build\cipher_wrap.o(.constdata) refers to .\build\cipher_wrap.o(.constdata) for aes_info
    .\build\cipher_wrap.o(.constdata) refers to .\build\cipher_wrap.o(i.gcm_aes_setkey_wrap) for gcm_aes_setkey_wrap
    .\build\cipher_wrap.o(.constdata) refers to .\build\cipher_wrap.o(i.gcm_ctx_alloc) for gcm_ctx_alloc
    .\build\cipher_wrap.o(.constdata) refers to .\build\cipher_wrap.o(i.gcm_ctx_free) for gcm_ctx_free
    .\build\cipher_wrap.o(.constdata) refers to .\build\cipher_wrap.o(.conststring) for .conststring
    .\build\cipher_wrap.o(.constdata) refers to .\build\cipher_wrap.o(.constdata) for gcm_aes_info
    .\build\cipher_wrap.o(.constdata) refers to .\build\cipher_wrap.o(.conststring) for .conststring
    .\build\cipher_wrap.o(.constdata) refers to .\build\cipher_wrap.o(.constdata) for gcm_aes_info
    .\build\cipher_wrap.o(.constdata) refers to .\build\cipher_wrap.o(.conststring) for .conststring
    .\build\cipher_wrap.o(.constdata) refers to .\build\cipher_wrap.o(.constdata) for gcm_aes_info
    .\build\cipher_wrap.o(.constdata) refers to .\build\cipher_wrap.o(i.ccm_aes_setkey_wrap) for ccm_aes_setkey_wrap
    .\build\cipher_wrap.o(.constdata) refers to .\build\cipher_wrap.o(i.ccm_ctx_alloc) for ccm_ctx_alloc
    .\build\cipher_wrap.o(.constdata) refers to .\build\cipher_wrap.o(i.ccm_ctx_free) for ccm_ctx_free
    .\build\cipher_wrap.o(.constdata) refers to .\build\cipher_wrap.o(.conststring) for .conststring
    .\build\cipher_wrap.o(.constdata) refers to .\build\cipher_wrap.o(.constdata) for ccm_aes_info
    .\build\cipher_wrap.o(.constdata) refers to .\build\cipher_wrap.o(.conststring) for .conststring
    .\build\cipher_wrap.o(.constdata) refers to .\build\cipher_wrap.o(.constdata) for ccm_aes_info
    .\build\cipher_wrap.o(.constdata) refers to .\build\cipher_wrap.o(.conststring) for .conststring
    .\build\cipher_wrap.o(.constdata) refers to .\build\cipher_wrap.o(.constdata) for ccm_aes_info
    .\build\cipher_wrap.o(.constdata) refers to .\build\cipher_wrap.o(.constdata) for aes_128_ecb_info
    .\build\cipher_wrap.o(.constdata) refers to .\build\cipher_wrap.o(.constdata) for aes_192_ecb_info
    .\build\cipher_wrap.o(.constdata) refers to .\build\cipher_wrap.o(.constdata) for aes_256_ecb_info
    .\build\cipher_wrap.o(.constdata) refers to .\build\cipher_wrap.o(.constdata) for aes_128_cbc_info
    .\build\cipher_wrap.o(.constdata) refers to .\build\cipher_wrap.o(.constdata) for aes_192_cbc_info
    .\build\cipher_wrap.o(.constdata) refers to .\build\cipher_wrap.o(.constdata) for aes_256_cbc_info
    .\build\cipher_wrap.o(.constdata) refers to .\build\cipher_wrap.o(.constdata) for aes_128_gcm_info
    .\build\cipher_wrap.o(.constdata) refers to .\build\cipher_wrap.o(.constdata) for aes_192_gcm_info
    .\build\cipher_wrap.o(.constdata) refers to .\build\cipher_wrap.o(.constdata) for aes_256_gcm_info
    .\build\cipher_wrap.o(.constdata) refers to .\build\cipher_wrap.o(.constdata) for aes_128_ccm_info
    .\build\cipher_wrap.o(.constdata) refers to .\build\cipher_wrap.o(.constdata) for aes_192_ccm_info
    .\build\cipher_wrap.o(.constdata) refers to .\build\cipher_wrap.o(.constdata) for aes_256_ccm_info
    .\build\cmsis_os1.o(i.osMailAlloc) refers to .\build\rtx_mempool.o(i.osMemoryPoolAlloc) for osMemoryPoolAlloc
    .\build\cmsis_os1.o(i.osMailCAlloc) refers to .\build\rtx_mempool.o(i.osMemoryPoolGetBlockSize) for osMemoryPoolGetBlockSize
    .\build\cmsis_os1.o(i.osMailCAlloc) refers to .\build\rtx_mempool.o(i.osMemoryPoolAlloc) for osMemoryPoolAlloc
    .\build\cmsis_os1.o(i.osMailCAlloc) refers to D:\Keil_v5\ARM\ARMCC\Bin\..\lib\armlib\c_w.l(rt_memclr.o)(.text) for __aeabi_memclr
    .\build\cmsis_os1.o(i.osMailCreate) refers to .\build\rtx_mempool.o(i.osMemoryPoolNew) for osMemoryPoolNew
    .\build\cmsis_os1.o(i.osMailCreate) refers to .\build\rtx_msgqueue.o(i.osMessageQueueNew) for osMessageQueueNew
    .\build\cmsis_os1.o(i.osMailCreate) refers to .\build\rtx_mempool.o(i.osMemoryPoolDelete) for osMemoryPoolDelete
    .\build\cmsis_os1.o(i.osMailCreate) refers to .\build\rtx_msgqueue.o(i.osMessageQueueDelete) for osMessageQueueDelete
    .\build\cmsis_os1.o(i.osMailFree) refers to .\build\rtx_mempool.o(i.osMemoryPoolFree) for osMemoryPoolFree
    .\build\cmsis_os1.o(i.osMailGet) refers to .\build\rtx_msgqueue.o(i.osMessageQueueGet) for osMessageQueueGet
    .\build\cmsis_os1.o(i.osMailPut) refers to .\build\rtx_msgqueue.o(i.osMessageQueuePut) for osMessageQueuePut
    .\build\cmsis_os1.o(i.osMessageCreate) refers to .\build\rtx_msgqueue.o(i.osMessageQueueNew) for osMessageQueueNew
    .\build\cmsis_os1.o(i.osMessageGet) refers to .\build\rtx_msgqueue.o(i.osMessageQueueGet) for osMessageQueueGet
    .\build\cmsis_os1.o(i.osMessagePut) refers to .\build\rtx_msgqueue.o(i.osMessageQueuePut) for osMessageQueuePut
    .\build\cmsis_os1.o(i.osMutexCreate) refers to .\build\rtx_mutex.o(i.osMutexNew) for osMutexNew
    .\build\cmsis_os1.o(i.osPoolAlloc) refers to .\build\rtx_mempool.o(i.osMemoryPoolAlloc) for osMemoryPoolAlloc
    .\build\cmsis_os1.o(i.osPoolCAlloc) refers to .\build\rtx_mempool.o(i.osMemoryPoolGetBlockSize) for osMemoryPoolGetBlockSize
    .\build\cmsis_os1.o(i.osPoolCAlloc) refers to .\build\rtx_mempool.o(i.osMemoryPoolAlloc) for osMemoryPoolAlloc
    .\build\cmsis_os1.o(i.osPoolCAlloc) refers to D:\Keil_v5\ARM\ARMCC\Bin\..\lib\armlib\c_w.l(rt_memclr.o)(.text) for __aeabi_memclr
    .\build\cmsis_os1.o(i.osPoolCreate) refers to .\build\rtx_mempool.o(i.osMemoryPoolNew) for osMemoryPoolNew
    .\build\cmsis_os1.o(i.osPoolFree) refers to .\build\rtx_mempool.o(i.osMemoryPoolFree) for osMemoryPoolFree
    .\build\cmsis_os1.o(i.osSemaphoreCreate) refers to .\build\rtx_semaphore.o(i.osSemaphoreNew) for osSemaphoreNew
    .\build\cmsis_os1.o(i.osSemaphoreWait) refers to .\build\rtx_semaphore.o(i.osSemaphoreAcquire) for osSemaphoreAcquire
    .\build\cmsis_os1.o(i.osSemaphoreWait) refers to .\build\rtx_semaphore.o(i.osSemaphoreGetCount) for osSemaphoreGetCount
    .\build\cmsis_os1.o(i.osSignalClear) refers to .\build\rtx_thread.o(i.osThreadGetId) for osThreadGetId
    .\build\cmsis_os1.o(i.osSignalClear) refers to .\build\rtx_thread.o(i.osThreadFlagsClear) for osThreadFlagsClear
    .\build\cmsis_os1.o(i.osSignalSet) refers to .\build\rtx_thread.o(i.osThreadFlagsSet) for osThreadFlagsSet
    .\build\cmsis_os1.o(i.osSignalWait) refers to .\build\rtx_thread.o(i.osThreadFlagsWait) for osThreadFlagsWait
    .\build\cmsis_os1.o(i.osThreadCreate) refers to .\build\rtx_thread.o(i.osThreadNew) for osThreadNew
    .\build\cmsis_os1.o(i.osTimerCreate) refers to .\build\rtx_timer.o(i.osTimerNew) for osTimerNew
    .\build\conditionvariable.o(i._ZN4rtos17ConditionVariable10notify_allEv) refers to .\build\mutex.o(i._ZN4rtos5Mutex9get_ownerEv) for rtos::Mutex::get_owner()
    .\build\conditionvariable.o(i._ZN4rtos17ConditionVariable10notify_allEv) refers to .\build\thread.o(i._ZN4rtos6Thread6gettidEv) for rtos::Thread::gettid()
    .\build\conditionvariable.o(i._ZN4rtos17ConditionVariable10notify_allEv) refers to .\build\mbed_assert.o(i.mbed_assert_internal) for mbed_assert_internal
    .\build\conditionvariable.o(i._ZN4rtos17ConditionVariable10notify_allEv) refers to .\build\semaphore.o(i._ZN4rtos9Semaphore7releaseEv) for rtos::Semaphore::release()
    .\build\conditionvariable.o(i._ZN4rtos17ConditionVariable10notify_allEv) refers to .\build\conditionvariable.o(i._ZN4rtos17ConditionVariable17_remove_wait_listEPPNS0_6WaiterES2_) for rtos::ConditionVariable::_remove_wait_list(rtos::ConditionVariable::Waiter**, rtos::ConditionVariable::Waiter*)
    .\build\conditionvariable.o(i._ZN4rtos17ConditionVariable10notify_oneEv) refers to .\build\mutex.o(i._ZN4rtos5Mutex9get_ownerEv) for rtos::Mutex::get_owner()
    .\build\conditionvariable.o(i._ZN4rtos17ConditionVariable10notify_oneEv) refers to .\build\thread.o(i._ZN4rtos6Thread6gettidEv) for rtos::Thread::gettid()
    .\build\conditionvariable.o(i._ZN4rtos17ConditionVariable10notify_oneEv) refers to .\build\mbed_assert.o(i.mbed_assert_internal) for mbed_assert_internal
    .\build\conditionvariable.o(i._ZN4rtos17ConditionVariable10notify_oneEv) refers to .\build\semaphore.o(i._ZN4rtos9Semaphore7releaseEv) for rtos::Semaphore::release()
    .\build\conditionvariable.o(i._ZN4rtos17ConditionVariable10notify_oneEv) refers to .\build\conditionvariable.o(i._ZN4rtos17ConditionVariable17_remove_wait_listEPPNS0_6WaiterES2_) for rtos::ConditionVariable::_remove_wait_list(rtos::ConditionVariable::Waiter**, rtos::ConditionVariable::Waiter*)
    .\build\conditionvariable.o(i._ZN4rtos17ConditionVariable10wait_untilEy) refers to .\build\kernel.o(i._ZN4rtos6Kernel12get_ms_countEv) for rtos::Kernel::get_ms_count()
    .\build\conditionvariable.o(i._ZN4rtos17ConditionVariable10wait_untilEy) refers to .\build\conditionvariable.o(i._ZN4rtos17ConditionVariable8wait_forEj) for rtos::ConditionVariable::wait_for(unsigned)
    .\build\conditionvariable.o(i._ZN4rtos17ConditionVariable4waitEv) refers to .\build\conditionvariable.o(i._ZN4rtos17ConditionVariable8wait_forEj) for rtos::ConditionVariable::wait_for(unsigned)
    .\build\conditionvariable.o(i._ZN4rtos17ConditionVariable6WaiterC1Ev) refers to .\build\semaphore.o(i._ZN4rtos9SemaphoreC1Ei) for rtos::Semaphore::Semaphore(int)
    .\build\conditionvariable.o(i._ZN4rtos17ConditionVariable8wait_forEj) refers to .\build\conditionvariable.o(i._ZN4rtos17ConditionVariable6WaiterC1Ev) for rtos::ConditionVariable::Waiter::Waiter()
    .\build\conditionvariable.o(i._ZN4rtos17ConditionVariable8wait_forEj) refers to .\build\mutex.o(i._ZN4rtos5Mutex9get_ownerEv) for rtos::Mutex::get_owner()
    .\build\conditionvariable.o(i._ZN4rtos17ConditionVariable8wait_forEj) refers to .\build\thread.o(i._ZN4rtos6Thread6gettidEv) for rtos::Thread::gettid()
    .\build\conditionvariable.o(i._ZN4rtos17ConditionVariable8wait_forEj) refers to .\build\mbed_assert.o(i.mbed_assert_internal) for mbed_assert_internal
    .\build\conditionvariable.o(i._ZN4rtos17ConditionVariable8wait_forEj) refers to .\build\conditionvariable.o(i._ZN4rtos17ConditionVariable14_add_wait_listEPPNS0_6WaiterES2_) for rtos::ConditionVariable::_add_wait_list(rtos::ConditionVariable::Waiter**, rtos::ConditionVariable::Waiter*)
    .\build\conditionvariable.o(i._ZN4rtos17ConditionVariable8wait_forEj) refers to .\build\mutex.o(i._ZN4rtos5Mutex6unlockEv) for rtos::Mutex::unlock()
    .\build\conditionvariable.o(i._ZN4rtos17ConditionVariable8wait_forEj) refers to .\build\semaphore.o(i._ZN4rtos9Semaphore4waitEj) for rtos::Semaphore::wait(unsigned)
    .\build\conditionvariable.o(i._ZN4rtos17ConditionVariable8wait_forEj) refers to .\build\mutex.o(i._ZN4rtos5Mutex4lockEj) for rtos::Mutex::lock(unsigned)
    .\build\conditionvariable.o(i._ZN4rtos17ConditionVariable8wait_forEj) refers to .\build\conditionvariable.o(i._ZN4rtos17ConditionVariable17_remove_wait_listEPPNS0_6WaiterES2_) for rtos::ConditionVariable::_remove_wait_list(rtos::ConditionVariable::Waiter**, rtos::ConditionVariable::Waiter*)
    .\build\conditionvariable.o(i._ZN4rtos17ConditionVariable8wait_forEj) refers to .\build\semaphore.o(i._ZN4rtos9SemaphoreD1Ev) for rtos::Semaphore::~Semaphore()
    .\build\conditionvariable.o(i._ZN4rtos17ConditionVariableD1Ev) refers to .\build\mbed_assert.o(i.mbed_assert_internal) for mbed_assert_internal
    .\build\conditionvariable.o(.ARM.exidx) refers to .\build\conditionvariable.o(i._ZN4rtos17ConditionVariableC1ERNS_5MutexE) for i._ZN4rtos17ConditionVariableC1ERNS_5MutexE
    .\build\conditionvariable.o(.ARM.exidx) refers to .\build\conditionvariable.o(i._ZN4rtos17ConditionVariable17_remove_wait_listEPPNS0_6WaiterES2_) for i._ZN4rtos17ConditionVariable17_remove_wait_listEPPNS0_6WaiterES2_
    .\build\conditionvariable.o(.ARM.exidx) refers to .\build\conditionvariable.o(i._ZN4rtos17ConditionVariable14_add_wait_listEPPNS0_6WaiterES2_) for i._ZN4rtos17ConditionVariable14_add_wait_listEPPNS0_6WaiterES2_
    .\build\conditionvariable.o(.ARM.exidx) refers to .\build\conditionvariable.o(i._ZN4rtos17ConditionVariable6WaiterC1Ev) for i._ZN4rtos17ConditionVariable6WaiterC1Ev
    .\build\conditionvariable.o(.ARM.exidx) refers to .\build\conditionvariable.o(i._ZN4rtos17ConditionVariable8wait_forEj) for i._ZN4rtos17ConditionVariable8wait_forEj
    .\build\conditionvariable.o(.ARM.exidx) refers to .\build\conditionvariable.o(i._ZN4rtos17ConditionVariable4waitEv) for i._ZN4rtos17ConditionVariable4waitEv
    .\build\conditionvariable.o(.ARM.exidx) refers to .\build\conditionvariable.o(i._ZN4rtos17ConditionVariable10wait_untilEy) for i._ZN4rtos17ConditionVariable10wait_untilEy
    .\build\conditionvariable.o(.ARM.exidx) refers to .\build\conditionvariable.o(i._ZN4rtos17ConditionVariable10notify_oneEv) for i._ZN4rtos17ConditionVariable10notify_oneEv
    .\build\conditionvariable.o(.ARM.exidx) refers to .\build\conditionvariable.o(i._ZN4rtos17ConditionVariable10notify_allEv) for i._ZN4rtos17ConditionVariable10notify_allEv
    .\build\conditionvariable.o(.ARM.exidx) refers to .\build\conditionvariable.o(i._ZN4rtos17ConditionVariableD1Ev) for i._ZN4rtos17ConditionVariableD1Ev
    .\build\dir.o(i._ZN4mbed3Dir4readEP6dirent) refers to .\build\mbed_assert.o(i.mbed_assert_internal) for mbed_assert_internal
    .\build\dir.o(i._ZN4mbed3Dir4readEP6dirent) refers to D:\Keil_v5\ARM\ARMCC\Bin\..\lib\armlib\c_w.l(rt_memclr.o)(.text) for __aeabi_memclr
    .\build\dir.o(i._ZN4mbed3Dir4seekEl) refers to .\build\mbed_assert.o(i.mbed_assert_internal) for mbed_assert_internal
    .\build\dir.o(i._ZN4mbed3Dir4sizeEv) refers to .\build\mbed_assert.o(i.mbed_assert_internal) for mbed_assert_internal
    .\build\dir.o(i._ZN4mbed3Dir4tellEv) refers to .\build\mbed_assert.o(i.mbed_assert_internal) for mbed_assert_internal
    .\build\dir.o(i._ZN4mbed3Dir6rewindEv) refers to .\build\mbed_assert.o(i.mbed_assert_internal) for mbed_assert_internal
    .\build\dir.o(i._ZN4mbed3DirC1EPNS_10FileSystemEPKc) refers to .\build\dir.o(i._ZN4mbed3Dir4openEPNS_10FileSystemEPKc) for mbed::Dir::open(mbed::FileSystem*, const char*)
    .\build\dir.o(i._ZN4mbed3DirC1EPNS_10FileSystemEPKc) refers to .\build\dir.o(.constdata__ZTVN4mbed3DirE) for vtable for mbed::Dir
    .\build\dir.o(i._ZN4mbed3DirC1Ev) refers to .\build\dir.o(.constdata__ZTVN4mbed3DirE) for vtable for mbed::Dir
    .\build\dir.o(i._ZN4mbed3DirD0Ev) refers to .\build\dir.o(i._ZN4mbed3DirD1Ev) for mbed::Dir::~Dir()
    .\build\dir.o(i._ZN4mbed3DirD0Ev) refers to .\build\mbed_retarget.o(i._ZdlPv) for operator delete (void*)
    .\build\dir.o(i._ZN4mbed3DirD1Ev) refers to .\build\dir.o(i._ZN4mbed3Dir5closeEv) for mbed::Dir::close()
    .\build\dir.o(i._ZN4mbed3DirD1Ev) refers to .\build\dir.o(.constdata__ZTVN4mbed3DirE) for vtable for mbed::Dir
    .\build\dir.o(.ARM.exidx) refers to .\build\dir.o(i._ZN4mbed3DirC1Ev) for i._ZN4mbed3DirC1Ev
    .\build\dir.o(.ARM.exidx) refers to .\build\dir.o(i._ZN4mbed3Dir4openEPNS_10FileSystemEPKc) for i._ZN4mbed3Dir4openEPNS_10FileSystemEPKc
    .\build\dir.o(.ARM.exidx) refers to .\build\dir.o(i._ZN4mbed3DirC1EPNS_10FileSystemEPKc) for i._ZN4mbed3DirC1EPNS_10FileSystemEPKc
    .\build\dir.o(.ARM.exidx) refers to .\build\dir.o(i._ZN4mbed3Dir5closeEv) for i._ZN4mbed3Dir5closeEv
    .\build\dir.o(.ARM.exidx) refers to .\build\dir.o(i._ZN4mbed3DirD1Ev) for i._ZN4mbed3DirD1Ev
    .\build\dir.o(.ARM.exidx) refers to .\build\dir.o(i._ZN4mbed3DirD0Ev) for i._ZN4mbed3DirD0Ev
    .\build\dir.o(.ARM.exidx) refers to .\build\dir.o(i._ZN4mbed3Dir4readEP6dirent) for i._ZN4mbed3Dir4readEP6dirent
    .\build\dir.o(.ARM.exidx) refers to .\build\dir.o(i._ZN4mbed3Dir4seekEl) for i._ZN4mbed3Dir4seekEl
    .\build\dir.o(.ARM.exidx) refers to .\build\dir.o(i._ZN4mbed3Dir4tellEv) for i._ZN4mbed3Dir4tellEv
    .\build\dir.o(.ARM.exidx) refers to .\build\dir.o(i._ZN4mbed3Dir6rewindEv) for i._ZN4mbed3Dir6rewindEv
    .\build\dir.o(.ARM.exidx) refers to .\build\dir.o(i._ZN4mbed3Dir4sizeEv) for i._ZN4mbed3Dir4sizeEv
    .\build\ecdsa.o(i.derive_mpi) refers to .\build\bignum.o(i.mbedtls_mpi_read_binary) for mbedtls_mpi_read_binary
    .\build\ecdsa.o(i.derive_mpi) refers to .\build\bignum.o(i.mbedtls_mpi_shift_r) for mbedtls_mpi_shift_r
    .\build\ecdsa.o(i.derive_mpi) refers to .\build\bignum.o(i.mbedtls_mpi_cmp_mpi) for mbedtls_mpi_cmp_mpi
    .\build\ecdsa.o(i.derive_mpi) refers to .\build\bignum.o(i.mbedtls_mpi_sub_mpi) for mbedtls_mpi_sub_mpi
    .\build\ecdsa.o(i.ecdsa_signature_to_asn1) refers to .\build\asn1write.o(i.mbedtls_asn1_write_mpi) for mbedtls_asn1_write_mpi
    .\build\ecdsa.o(i.ecdsa_signature_to_asn1) refers to .\build\asn1write.o(i.mbedtls_asn1_write_len) for mbedtls_asn1_write_len
    .\build\ecdsa.o(i.ecdsa_signature_to_asn1) refers to .\build\asn1write.o(i.mbedtls_asn1_write_tag) for mbedtls_asn1_write_tag
    .\build\ecdsa.o(i.ecdsa_signature_to_asn1) refers to D:\Keil_v5\ARM\ARMCC\Bin\..\lib\armlib\c_w.l(rt_memcpy_v6.o)(.text) for __aeabi_memcpy
    .\build\ecdsa.o(i.mbedtls_ecdsa_free) refers to .\build\ecp.o(i.mbedtls_ecp_keypair_free) for mbedtls_ecp_keypair_free
    .\build\ecdsa.o(i.mbedtls_ecdsa_from_keypair) refers to .\build\ecp.o(i.mbedtls_ecp_group_copy) for mbedtls_ecp_group_copy
    .\build\ecdsa.o(i.mbedtls_ecdsa_from_keypair) refers to .\build\bignum.o(i.mbedtls_mpi_copy) for mbedtls_mpi_copy
    .\build\ecdsa.o(i.mbedtls_ecdsa_from_keypair) refers to .\build\ecp.o(i.mbedtls_ecp_copy) for mbedtls_ecp_copy
    .\build\ecdsa.o(i.mbedtls_ecdsa_from_keypair) refers to .\build\ecdsa.o(i.mbedtls_ecdsa_free) for mbedtls_ecdsa_free
    .\build\ecdsa.o(i.mbedtls_ecdsa_genkey) refers to .\build\ecp_curves.o(i.mbedtls_ecp_group_load) for mbedtls_ecp_group_load
    .\build\ecdsa.o(i.mbedtls_ecdsa_genkey) refers to .\build\ecp.o(i.mbedtls_ecp_gen_keypair) for mbedtls_ecp_gen_keypair
    .\build\ecdsa.o(i.mbedtls_ecdsa_init) refers to .\build\ecp.o(i.mbedtls_ecp_keypair_init) for mbedtls_ecp_keypair_init
    .\build\ecdsa.o(i.mbedtls_ecdsa_read_signature) refers to .\build\bignum.o(i.mbedtls_mpi_init) for mbedtls_mpi_init
    .\build\ecdsa.o(i.mbedtls_ecdsa_read_signature) refers to .\build\asn1parse.o(i.mbedtls_asn1_get_tag) for mbedtls_asn1_get_tag
    .\build\ecdsa.o(i.mbedtls_ecdsa_read_signature) refers to .\build\asn1parse.o(i.mbedtls_asn1_get_mpi) for mbedtls_asn1_get_mpi
    .\build\ecdsa.o(i.mbedtls_ecdsa_read_signature) refers to .\build\ecdsa.o(i.mbedtls_ecdsa_verify) for mbedtls_ecdsa_verify
    .\build\ecdsa.o(i.mbedtls_ecdsa_read_signature) refers to .\build\bignum.o(i.mbedtls_mpi_free) for mbedtls_mpi_free
    .\build\ecdsa.o(i.mbedtls_ecdsa_sign) refers to .\build\bignum.o(i.mbedtls_mpi_cmp_int) for mbedtls_mpi_cmp_int
    .\build\ecdsa.o(i.mbedtls_ecdsa_sign) refers to .\build\bignum.o(i.mbedtls_mpi_cmp_mpi) for mbedtls_mpi_cmp_mpi
    .\build\ecdsa.o(i.mbedtls_ecdsa_sign) refers to .\build\ecp.o(i.mbedtls_ecp_point_init) for mbedtls_ecp_point_init
    .\build\ecdsa.o(i.mbedtls_ecdsa_sign) refers to .\build\bignum.o(i.mbedtls_mpi_init) for mbedtls_mpi_init
    .\build\ecdsa.o(i.mbedtls_ecdsa_sign) refers to .\build\ecp.o(i.mbedtls_ecp_gen_keypair) for mbedtls_ecp_gen_keypair
    .\build\ecdsa.o(i.mbedtls_ecdsa_sign) refers to .\build\bignum.o(i.mbedtls_mpi_mod_mpi) for mbedtls_mpi_mod_mpi
    .\build\ecdsa.o(i.mbedtls_ecdsa_sign) refers to .\build\ecdsa.o(i.derive_mpi) for derive_mpi
    .\build\ecdsa.o(i.mbedtls_ecdsa_sign) refers to .\build\bignum.o(i.mbedtls_mpi_fill_random) for mbedtls_mpi_fill_random
    .\build\ecdsa.o(i.mbedtls_ecdsa_sign) refers to .\build\bignum.o(i.mbedtls_mpi_shift_r) for mbedtls_mpi_shift_r
    .\build\ecdsa.o(i.mbedtls_ecdsa_sign) refers to .\build\bignum.o(i.mbedtls_mpi_mul_mpi) for mbedtls_mpi_mul_mpi
    .\build\ecdsa.o(i.mbedtls_ecdsa_sign) refers to .\build\bignum.o(i.mbedtls_mpi_add_mpi) for mbedtls_mpi_add_mpi
    .\build\ecdsa.o(i.mbedtls_ecdsa_sign) refers to .\build\bignum.o(i.mbedtls_mpi_inv_mod) for mbedtls_mpi_inv_mod
    .\build\ecdsa.o(i.mbedtls_ecdsa_sign) refers to .\build\ecp.o(i.mbedtls_ecp_point_free) for mbedtls_ecp_point_free
    .\build\ecdsa.o(i.mbedtls_ecdsa_sign) refers to .\build\bignum.o(i.mbedtls_mpi_free) for mbedtls_mpi_free
    .\build\ecdsa.o(i.mbedtls_ecdsa_sign_det) refers to .\build\md.o(i.mbedtls_md_info_from_type) for mbedtls_md_info_from_type
    .\build\ecdsa.o(i.mbedtls_ecdsa_sign_det) refers to .\build\bignum.o(i.mbedtls_mpi_init) for mbedtls_mpi_init
    .\build\ecdsa.o(i.mbedtls_ecdsa_sign_det) refers to .\build\hmac_drbg.o(i.mbedtls_hmac_drbg_init) for mbedtls_hmac_drbg_init
    .\build\ecdsa.o(i.mbedtls_ecdsa_sign_det) refers to .\build\bignum.o(i.mbedtls_mpi_write_binary) for mbedtls_mpi_write_binary
    .\build\ecdsa.o(i.mbedtls_ecdsa_sign_det) refers to .\build\ecdsa.o(i.derive_mpi) for derive_mpi
    .\build\ecdsa.o(i.mbedtls_ecdsa_sign_det) refers to .\build\hmac_drbg.o(i.mbedtls_hmac_drbg_seed_buf) for mbedtls_hmac_drbg_seed_buf
    .\build\ecdsa.o(i.mbedtls_ecdsa_sign_det) refers to .\build\ecdsa.o(i.mbedtls_ecdsa_sign) for mbedtls_ecdsa_sign
    .\build\ecdsa.o(i.mbedtls_ecdsa_sign_det) refers to .\build\hmac_drbg.o(i.mbedtls_hmac_drbg_free) for mbedtls_hmac_drbg_free
    .\build\ecdsa.o(i.mbedtls_ecdsa_sign_det) refers to .\build\bignum.o(i.mbedtls_mpi_free) for mbedtls_mpi_free
    .\build\ecdsa.o(i.mbedtls_ecdsa_sign_det) refers to .\build\hmac_drbg.o(i.mbedtls_hmac_drbg_random) for mbedtls_hmac_drbg_random
    .\build\ecdsa.o(i.mbedtls_ecdsa_verify) refers to .\build\ecp.o(i.mbedtls_ecp_point_init) for mbedtls_ecp_point_init
    .\build\ecdsa.o(i.mbedtls_ecdsa_verify) refers to .\build\bignum.o(i.mbedtls_mpi_init) for mbedtls_mpi_init
    .\build\ecdsa.o(i.mbedtls_ecdsa_verify) refers to .\build\bignum.o(i.mbedtls_mpi_cmp_int) for mbedtls_mpi_cmp_int
    .\build\ecdsa.o(i.mbedtls_ecdsa_verify) refers to .\build\bignum.o(i.mbedtls_mpi_cmp_mpi) for mbedtls_mpi_cmp_mpi
    .\build\ecdsa.o(i.mbedtls_ecdsa_verify) refers to .\build\ecp.o(i.mbedtls_ecp_check_pubkey) for mbedtls_ecp_check_pubkey
    .\build\ecdsa.o(i.mbedtls_ecdsa_verify) refers to .\build\ecdsa.o(i.derive_mpi) for derive_mpi
    .\build\ecdsa.o(i.mbedtls_ecdsa_verify) refers to .\build\bignum.o(i.mbedtls_mpi_inv_mod) for mbedtls_mpi_inv_mod
    .\build\ecdsa.o(i.mbedtls_ecdsa_verify) refers to .\build\bignum.o(i.mbedtls_mpi_mul_mpi) for mbedtls_mpi_mul_mpi
    .\build\ecdsa.o(i.mbedtls_ecdsa_verify) refers to .\build\bignum.o(i.mbedtls_mpi_mod_mpi) for mbedtls_mpi_mod_mpi
    .\build\ecdsa.o(i.mbedtls_ecdsa_verify) refers to .\build\ecp.o(i.mbedtls_ecp_muladd) for mbedtls_ecp_muladd
    .\build\ecdsa.o(i.mbedtls_ecdsa_verify) refers to .\build\ecp.o(i.mbedtls_ecp_is_zero) for mbedtls_ecp_is_zero
    .\build\ecdsa.o(i.mbedtls_ecdsa_verify) refers to .\build\ecp.o(i.mbedtls_ecp_point_free) for mbedtls_ecp_point_free
    .\build\ecdsa.o(i.mbedtls_ecdsa_verify) refers to .\build\bignum.o(i.mbedtls_mpi_free) for mbedtls_mpi_free
    .\build\ecdsa.o(i.mbedtls_ecdsa_write_signature) refers to .\build\bignum.o(i.mbedtls_mpi_init) for mbedtls_mpi_init
    .\build\ecdsa.o(i.mbedtls_ecdsa_write_signature) refers to .\build\ecdsa.o(i.mbedtls_ecdsa_sign_det) for mbedtls_ecdsa_sign_det
    .\build\ecdsa.o(i.mbedtls_ecdsa_write_signature) refers to .\build\ecdsa.o(i.ecdsa_signature_to_asn1) for ecdsa_signature_to_asn1
    .\build\ecdsa.o(i.mbedtls_ecdsa_write_signature) refers to .\build\bignum.o(i.mbedtls_mpi_free) for mbedtls_mpi_free
    .\build\ecdsa.o(i.mbedtls_ecdsa_write_signature_det) refers to .\build\ecdsa.o(i.mbedtls_ecdsa_write_signature) for mbedtls_ecdsa_write_signature
    .\build\ecp.o(i.ecp_add_mixed) refers to .\build\bignum.o(i.mbedtls_mpi_cmp_int) for mbedtls_mpi_cmp_int
    .\build\ecp.o(i.ecp_add_mixed) refers to .\build\ecp.o(i.mbedtls_ecp_copy) for mbedtls_ecp_copy
    .\build\ecp.o(i.ecp_add_mixed) refers to .\build\bignum.o(i.mbedtls_mpi_init) for mbedtls_mpi_init
    .\build\ecp.o(i.ecp_add_mixed) refers to .\build\bignum.o(i.mbedtls_mpi_mul_mpi) for mbedtls_mpi_mul_mpi
    .\build\ecp.o(i.ecp_add_mixed) refers to .\build\ecp.o(i.ecp_modp) for ecp_modp
    .\build\ecp.o(i.ecp_add_mixed) refers to .\build\bignum.o(i.mbedtls_mpi_sub_mpi) for mbedtls_mpi_sub_mpi
    .\build\ecp.o(i.ecp_add_mixed) refers to .\build\bignum.o(i.mbedtls_mpi_add_mpi) for mbedtls_mpi_add_mpi
    .\build\ecp.o(i.ecp_add_mixed) refers to .\build\ecp.o(i.mbedtls_ecp_set_zero) for mbedtls_ecp_set_zero
    .\build\ecp.o(i.ecp_add_mixed) refers to .\build\ecp.o(i.ecp_double_jac) for ecp_double_jac
    .\build\ecp.o(i.ecp_add_mixed) refers to .\build\bignum.o(i.mbedtls_mpi_mul_int) for mbedtls_mpi_mul_int
    .\build\ecp.o(i.ecp_add_mixed) refers to .\build\bignum.o(i.mbedtls_mpi_sub_abs) for mbedtls_mpi_sub_abs
    .\build\ecp.o(i.ecp_add_mixed) refers to .\build\bignum.o(i.mbedtls_mpi_cmp_mpi) for mbedtls_mpi_cmp_mpi
    .\build\ecp.o(i.ecp_add_mixed) refers to .\build\bignum.o(i.mbedtls_mpi_copy) for mbedtls_mpi_copy
    .\build\ecp.o(i.ecp_add_mixed) refers to .\build\bignum.o(i.mbedtls_mpi_free) for mbedtls_mpi_free
    .\build\ecp.o(i.ecp_add_mixed) refers to .\build\ecp.o(.data) for .data
    .\build\ecp.o(i.ecp_check_pubkey_mx) refers to .\build\bignum.o(i.mbedtls_mpi_size) for mbedtls_mpi_size
    .\build\ecp.o(i.ecp_check_pubkey_sw) refers to .\build\bignum.o(i.mbedtls_mpi_cmp_int) for mbedtls_mpi_cmp_int
    .\build\ecp.o(i.ecp_check_pubkey_sw) refers to .\build\bignum.o(i.mbedtls_mpi_cmp_mpi) for mbedtls_mpi_cmp_mpi
    .\build\ecp.o(i.ecp_check_pubkey_sw) refers to .\build\bignum.o(i.mbedtls_mpi_init) for mbedtls_mpi_init
    .\build\ecp.o(i.ecp_check_pubkey_sw) refers to .\build\bignum.o(i.mbedtls_mpi_mul_mpi) for mbedtls_mpi_mul_mpi
    .\build\ecp.o(i.ecp_check_pubkey_sw) refers to .\build\ecp.o(i.ecp_modp) for ecp_modp
    .\build\ecp.o(i.ecp_check_pubkey_sw) refers to .\build\bignum.o(i.mbedtls_mpi_add_mpi) for mbedtls_mpi_add_mpi
    .\build\ecp.o(i.ecp_check_pubkey_sw) refers to .\build\bignum.o(i.mbedtls_mpi_sub_int) for mbedtls_mpi_sub_int
    .\build\ecp.o(i.ecp_check_pubkey_sw) refers to .\build\bignum.o(i.mbedtls_mpi_sub_abs) for mbedtls_mpi_sub_abs
    .\build\ecp.o(i.ecp_check_pubkey_sw) refers to .\build\bignum.o(i.mbedtls_mpi_free) for mbedtls_mpi_free
    .\build\ecp.o(i.ecp_check_pubkey_sw) refers to .\build\ecp.o(.data) for .data
    .\build\ecp.o(i.ecp_comb_fixed) refers to D:\Keil_v5\ARM\ARMCC\Bin\..\lib\armlib\c_w.l(rt_memclr.o)(.text) for __aeabi_memclr
    .\build\ecp.o(i.ecp_comb_fixed) refers to .\build\bignum.o(i.mbedtls_mpi_get_bit) for mbedtls_mpi_get_bit
    .\build\ecp.o(i.ecp_double_add_mxz) refers to .\build\bignum.o(i.mbedtls_mpi_init) for mbedtls_mpi_init
    .\build\ecp.o(i.ecp_double_add_mxz) refers to .\build\bignum.o(i.mbedtls_mpi_add_mpi) for mbedtls_mpi_add_mpi
    .\build\ecp.o(i.ecp_double_add_mxz) refers to .\build\bignum.o(i.mbedtls_mpi_sub_abs) for mbedtls_mpi_sub_abs
    .\build\ecp.o(i.ecp_double_add_mxz) refers to .\build\bignum.o(i.mbedtls_mpi_cmp_mpi) for mbedtls_mpi_cmp_mpi
    .\build\ecp.o(i.ecp_double_add_mxz) refers to .\build\bignum.o(i.mbedtls_mpi_mul_mpi) for mbedtls_mpi_mul_mpi
    .\build\ecp.o(i.ecp_double_add_mxz) refers to .\build\ecp.o(i.ecp_modp) for ecp_modp
    .\build\ecp.o(i.ecp_double_add_mxz) refers to .\build\bignum.o(i.mbedtls_mpi_sub_mpi) for mbedtls_mpi_sub_mpi
    .\build\ecp.o(i.ecp_double_add_mxz) refers to .\build\bignum.o(i.mbedtls_mpi_cmp_int) for mbedtls_mpi_cmp_int
    .\build\ecp.o(i.ecp_double_add_mxz) refers to .\build\bignum.o(i.mbedtls_mpi_free) for mbedtls_mpi_free
    .\build\ecp.o(i.ecp_double_add_mxz) refers to .\build\ecp.o(.data) for .data
    .\build\ecp.o(i.ecp_double_jac) refers to .\build\bignum.o(i.mbedtls_mpi_init) for mbedtls_mpi_init
    .\build\ecp.o(i.ecp_double_jac) refers to .\build\bignum.o(i.mbedtls_mpi_mul_mpi) for mbedtls_mpi_mul_mpi
    .\build\ecp.o(i.ecp_double_jac) refers to .\build\ecp.o(i.ecp_modp) for ecp_modp
    .\build\ecp.o(i.ecp_double_jac) refers to .\build\bignum.o(i.mbedtls_mpi_add_mpi) for mbedtls_mpi_add_mpi
    .\build\ecp.o(i.ecp_double_jac) refers to .\build\bignum.o(i.mbedtls_mpi_sub_abs) for mbedtls_mpi_sub_abs
    .\build\ecp.o(i.ecp_double_jac) refers to .\build\bignum.o(i.mbedtls_mpi_cmp_mpi) for mbedtls_mpi_cmp_mpi
    .\build\ecp.o(i.ecp_double_jac) refers to .\build\bignum.o(i.mbedtls_mpi_sub_mpi) for mbedtls_mpi_sub_mpi
    .\build\ecp.o(i.ecp_double_jac) refers to .\build\bignum.o(i.mbedtls_mpi_cmp_int) for mbedtls_mpi_cmp_int
    .\build\ecp.o(i.ecp_double_jac) refers to .\build\bignum.o(i.mbedtls_mpi_mul_int) for mbedtls_mpi_mul_int
    .\build\ecp.o(i.ecp_double_jac) refers to .\build\bignum.o(i.mbedtls_mpi_shift_l) for mbedtls_mpi_shift_l
    .\build\ecp.o(i.ecp_double_jac) refers to .\build\ecp.o(.data) for .data
    .\build\ecp.o(i.ecp_double_jac) refers to .\build\bignum.o(i.mbedtls_mpi_copy) for mbedtls_mpi_copy
    .\build\ecp.o(i.ecp_double_jac) refers to .\build\bignum.o(i.mbedtls_mpi_free) for mbedtls_mpi_free
    .\build\ecp.o(i.ecp_modp) refers to .\build\bignum.o(i.mbedtls_mpi_cmp_int) for mbedtls_mpi_cmp_int
    .\build\ecp.o(i.ecp_modp) refers to .\build\bignum.o(i.mbedtls_mpi_mod_mpi) for mbedtls_mpi_mod_mpi
    .\build\ecp.o(i.ecp_modp) refers to .\build\bignum.o(i.mbedtls_mpi_bitlen) for mbedtls_mpi_bitlen
    .\build\ecp.o(i.ecp_modp) refers to .\build\bignum.o(i.mbedtls_mpi_add_mpi) for mbedtls_mpi_add_mpi
    .\build\ecp.o(i.ecp_modp) refers to .\build\bignum.o(i.mbedtls_mpi_sub_abs) for mbedtls_mpi_sub_abs
    .\build\ecp.o(i.ecp_modp) refers to .\build\bignum.o(i.mbedtls_mpi_cmp_mpi) for mbedtls_mpi_cmp_mpi
    .\build\ecp.o(i.ecp_mul_comb) refers to .\build\bignum.o(i.mbedtls_mpi_init) for mbedtls_mpi_init
    .\build\ecp.o(i.ecp_mul_comb) refers to .\build\bignum.o(i.mbedtls_mpi_get_bit) for mbedtls_mpi_get_bit
    .\build\ecp.o(i.ecp_mul_comb) refers to .\build\bignum.o(i.mbedtls_mpi_cmp_mpi) for mbedtls_mpi_cmp_mpi
    .\build\ecp.o(i.ecp_mul_comb) refers to D:\Keil_v5\ARM\ARMCC\Bin\..\lib\armlib\c_w.l(calloc.o)(.text) for calloc
    .\build\ecp.o(i.ecp_mul_comb) refers to .\build\ecp.o(i.ecp_precompute_comb) for ecp_precompute_comb
    .\build\ecp.o(i.ecp_mul_comb) refers to .\build\bignum.o(i.mbedtls_mpi_copy) for mbedtls_mpi_copy
    .\build\ecp.o(i.ecp_mul_comb) refers to .\build\bignum.o(i.mbedtls_mpi_sub_mpi) for mbedtls_mpi_sub_mpi
    .\build\ecp.o(i.ecp_mul_comb) refers to .\build\bignum.o(i.mbedtls_mpi_safe_cond_assign) for mbedtls_mpi_safe_cond_assign
    .\build\ecp.o(i.ecp_mul_comb) refers to .\build\ecp.o(i.ecp_comb_fixed) for ecp_comb_fixed
    .\build\ecp.o(i.ecp_mul_comb) refers to .\build\ecp.o(i.ecp_mul_comb_core) for ecp_mul_comb_core
    .\build\ecp.o(i.ecp_mul_comb) refers to .\build\ecp.o(i.ecp_safe_invert_jac) for ecp_safe_invert_jac
    .\build\ecp.o(i.ecp_mul_comb) refers to .\build\ecp.o(i.ecp_normalize_jac) for ecp_normalize_jac
    .\build\ecp.o(i.ecp_mul_comb) refers to .\build\ecp.o(i.mbedtls_ecp_point_free) for mbedtls_ecp_point_free
    .\build\ecp.o(i.ecp_mul_comb) refers to D:\Keil_v5\ARM\ARMCC\Bin\..\lib\armlib\c_w.l(h1_free_mt.o)(.text) for free
    .\build\ecp.o(i.ecp_mul_comb) refers to .\build\bignum.o(i.mbedtls_mpi_free) for mbedtls_mpi_free
    .\build\ecp.o(i.ecp_mul_comb_core) refers to .\build\ecp.o(i.mbedtls_ecp_point_init) for mbedtls_ecp_point_init
    .\build\ecp.o(i.ecp_mul_comb_core) refers to .\build\ecp.o(i.ecp_select_comb) for ecp_select_comb
    .\build\ecp.o(i.ecp_mul_comb_core) refers to .\build\bignum.o(i.mbedtls_mpi_lset) for mbedtls_mpi_lset
    .\build\ecp.o(i.ecp_mul_comb_core) refers to .\build\ecp.o(i.ecp_randomize_jac) for ecp_randomize_jac
    .\build\ecp.o(i.ecp_mul_comb_core) refers to .\build\ecp.o(i.ecp_double_jac) for ecp_double_jac
    .\build\ecp.o(i.ecp_mul_comb_core) refers to .\build\ecp.o(i.ecp_add_mixed) for ecp_add_mixed
    .\build\ecp.o(i.ecp_mul_comb_core) refers to .\build\ecp.o(i.mbedtls_ecp_point_free) for mbedtls_ecp_point_free
    .\build\ecp.o(i.ecp_mul_mxz) refers to .\build\ecp.o(i.mbedtls_ecp_point_init) for mbedtls_ecp_point_init
    .\build\ecp.o(i.ecp_mul_mxz) refers to .\build\bignum.o(i.mbedtls_mpi_init) for mbedtls_mpi_init
    .\build\ecp.o(i.ecp_mul_mxz) refers to .\build\bignum.o(i.mbedtls_mpi_copy) for mbedtls_mpi_copy
    .\build\ecp.o(i.ecp_mul_mxz) refers to .\build\ecp.o(i.mbedtls_ecp_copy) for mbedtls_ecp_copy
    .\build\ecp.o(i.ecp_mul_mxz) refers to .\build\bignum.o(i.mbedtls_mpi_lset) for mbedtls_mpi_lset
    .\build\ecp.o(i.ecp_mul_mxz) refers to .\build\bignum.o(i.mbedtls_mpi_free) for mbedtls_mpi_free
    .\build\ecp.o(i.ecp_mul_mxz) refers to .\build\bignum.o(i.mbedtls_mpi_sub_abs) for mbedtls_mpi_sub_abs
    .\build\ecp.o(i.ecp_mul_mxz) refers to .\build\bignum.o(i.mbedtls_mpi_cmp_mpi) for mbedtls_mpi_cmp_mpi
    .\build\ecp.o(i.ecp_mul_mxz) refers to .\build\ecp.o(i.ecp_randomize_mxz) for ecp_randomize_mxz
    .\build\ecp.o(i.ecp_mul_mxz) refers to .\build\bignum.o(i.mbedtls_mpi_bitlen) for mbedtls_mpi_bitlen
    .\build\ecp.o(i.ecp_mul_mxz) refers to .\build\bignum.o(i.mbedtls_mpi_get_bit) for mbedtls_mpi_get_bit
    .\build\ecp.o(i.ecp_mul_mxz) refers to .\build\bignum.o(i.mbedtls_mpi_safe_cond_swap) for mbedtls_mpi_safe_cond_swap
    .\build\ecp.o(i.ecp_mul_mxz) refers to .\build\ecp.o(i.ecp_double_add_mxz) for ecp_double_add_mxz
    .\build\ecp.o(i.ecp_mul_mxz) refers to .\build\ecp.o(i.ecp_normalize_mxz) for ecp_normalize_mxz
    .\build\ecp.o(i.ecp_mul_mxz) refers to .\build\ecp.o(i.mbedtls_ecp_point_free) for mbedtls_ecp_point_free
    .\build\ecp.o(i.ecp_normalize_jac) refers to .\build\bignum.o(i.mbedtls_mpi_cmp_int) for mbedtls_mpi_cmp_int
    .\build\ecp.o(i.ecp_normalize_jac) refers to .\build\bignum.o(i.mbedtls_mpi_init) for mbedtls_mpi_init
    .\build\ecp.o(i.ecp_normalize_jac) refers to .\build\bignum.o(i.mbedtls_mpi_inv_mod) for mbedtls_mpi_inv_mod
    .\build\ecp.o(i.ecp_normalize_jac) refers to .\build\bignum.o(i.mbedtls_mpi_mul_mpi) for mbedtls_mpi_mul_mpi
    .\build\ecp.o(i.ecp_normalize_jac) refers to .\build\ecp.o(i.ecp_modp) for ecp_modp
    .\build\ecp.o(i.ecp_normalize_jac) refers to .\build\bignum.o(i.mbedtls_mpi_lset) for mbedtls_mpi_lset
    .\build\ecp.o(i.ecp_normalize_jac) refers to .\build\bignum.o(i.mbedtls_mpi_free) for mbedtls_mpi_free
    .\build\ecp.o(i.ecp_normalize_jac) refers to .\build\ecp.o(.data) for .data
    .\build\ecp.o(i.ecp_normalize_jac_many) refers to .\build\ecp.o(i.ecp_normalize_jac) for ecp_normalize_jac
    .\build\ecp.o(i.ecp_normalize_jac_many) refers to D:\Keil_v5\ARM\ARMCC\Bin\..\lib\armlib\c_w.l(calloc.o)(.text) for calloc
    .\build\ecp.o(i.ecp_normalize_jac_many) refers to .\build\bignum.o(i.mbedtls_mpi_init) for mbedtls_mpi_init
    .\build\ecp.o(i.ecp_normalize_jac_many) refers to .\build\bignum.o(i.mbedtls_mpi_copy) for mbedtls_mpi_copy
    .\build\ecp.o(i.ecp_normalize_jac_many) refers to .\build\bignum.o(i.mbedtls_mpi_mul_mpi) for mbedtls_mpi_mul_mpi
    .\build\ecp.o(i.ecp_normalize_jac_many) refers to .\build\ecp.o(i.ecp_modp) for ecp_modp
    .\build\ecp.o(i.ecp_normalize_jac_many) refers to .\build\bignum.o(i.mbedtls_mpi_inv_mod) for mbedtls_mpi_inv_mod
    .\build\ecp.o(i.ecp_normalize_jac_many) refers to .\build\bignum.o(i.mbedtls_mpi_shrink) for mbedtls_mpi_shrink
    .\build\ecp.o(i.ecp_normalize_jac_many) refers to .\build\bignum.o(i.mbedtls_mpi_free) for mbedtls_mpi_free
    .\build\ecp.o(i.ecp_normalize_jac_many) refers to D:\Keil_v5\ARM\ARMCC\Bin\..\lib\armlib\c_w.l(h1_free_mt.o)(.text) for free
    .\build\ecp.o(i.ecp_normalize_jac_many) refers to .\build\ecp.o(.data) for .data
    .\build\ecp.o(i.ecp_normalize_mxz) refers to .\build\bignum.o(i.mbedtls_mpi_inv_mod) for mbedtls_mpi_inv_mod
    .\build\ecp.o(i.ecp_normalize_mxz) refers to .\build\bignum.o(i.mbedtls_mpi_mul_mpi) for mbedtls_mpi_mul_mpi
    .\build\ecp.o(i.ecp_normalize_mxz) refers to .\build\ecp.o(i.ecp_modp) for ecp_modp
    .\build\ecp.o(i.ecp_normalize_mxz) refers to .\build\bignum.o(i.mbedtls_mpi_lset) for mbedtls_mpi_lset
    .\build\ecp.o(i.ecp_normalize_mxz) refers to .\build\ecp.o(.data) for .data
    .\build\ecp.o(i.ecp_precompute_comb) refers to .\build\ecp.o(i.mbedtls_ecp_copy) for mbedtls_ecp_copy
    .\build\ecp.o(i.ecp_precompute_comb) refers to .\build\ecp.o(i.ecp_double_jac) for ecp_double_jac
    .\build\ecp.o(i.ecp_precompute_comb) refers to .\build\ecp.o(i.ecp_normalize_jac_many) for ecp_normalize_jac_many
    .\build\ecp.o(i.ecp_precompute_comb) refers to .\build\ecp.o(i.ecp_add_mixed) for ecp_add_mixed
    .\build\ecp.o(i.ecp_randomize_jac) refers to .\build\bignum.o(i.mbedtls_mpi_init) for mbedtls_mpi_init
    .\build\ecp.o(i.ecp_randomize_jac) refers to .\build\bignum.o(i.mbedtls_mpi_fill_random) for mbedtls_mpi_fill_random
    .\build\ecp.o(i.ecp_randomize_jac) refers to .\build\bignum.o(i.mbedtls_mpi_shift_r) for mbedtls_mpi_shift_r
    .\build\ecp.o(i.ecp_randomize_jac) refers to .\build\bignum.o(i.mbedtls_mpi_cmp_mpi) for mbedtls_mpi_cmp_mpi
    .\build\ecp.o(i.ecp_randomize_jac) refers to .\build\bignum.o(i.mbedtls_mpi_cmp_int) for mbedtls_mpi_cmp_int
    .\build\ecp.o(i.ecp_randomize_jac) refers to .\build\bignum.o(i.mbedtls_mpi_mul_mpi) for mbedtls_mpi_mul_mpi
    .\build\ecp.o(i.ecp_randomize_jac) refers to .\build\ecp.o(i.ecp_modp) for ecp_modp
    .\build\ecp.o(i.ecp_randomize_jac) refers to .\build\bignum.o(i.mbedtls_mpi_free) for mbedtls_mpi_free
    .\build\ecp.o(i.ecp_randomize_jac) refers to .\build\ecp.o(.data) for .data
    .\build\ecp.o(i.ecp_randomize_mxz) refers to .\build\bignum.o(i.mbedtls_mpi_init) for mbedtls_mpi_init
    .\build\ecp.o(i.ecp_randomize_mxz) refers to .\build\bignum.o(i.mbedtls_mpi_fill_random) for mbedtls_mpi_fill_random
    .\build\ecp.o(i.ecp_randomize_mxz) refers to .\build\bignum.o(i.mbedtls_mpi_shift_r) for mbedtls_mpi_shift_r
    .\build\ecp.o(i.ecp_randomize_mxz) refers to .\build\bignum.o(i.mbedtls_mpi_cmp_mpi) for mbedtls_mpi_cmp_mpi
    .\build\ecp.o(i.ecp_randomize_mxz) refers to .\build\bignum.o(i.mbedtls_mpi_cmp_int) for mbedtls_mpi_cmp_int
    .\build\ecp.o(i.ecp_randomize_mxz) refers to .\build\bignum.o(i.mbedtls_mpi_mul_mpi) for mbedtls_mpi_mul_mpi
    .\build\ecp.o(i.ecp_randomize_mxz) refers to .\build\ecp.o(i.ecp_modp) for ecp_modp
    .\build\ecp.o(i.ecp_randomize_mxz) refers to .\build\bignum.o(i.mbedtls_mpi_free) for mbedtls_mpi_free
    .\build\ecp.o(i.ecp_randomize_mxz) refers to .\build\ecp.o(.data) for .data
    .\build\ecp.o(i.ecp_safe_invert_jac) refers to .\build\bignum.o(i.mbedtls_mpi_init) for mbedtls_mpi_init
    .\build\ecp.o(i.ecp_safe_invert_jac) refers to .\build\bignum.o(i.mbedtls_mpi_sub_mpi) for mbedtls_mpi_sub_mpi
    .\build\ecp.o(i.ecp_safe_invert_jac) refers to .\build\bignum.o(i.mbedtls_mpi_cmp_int) for mbedtls_mpi_cmp_int
    .\build\ecp.o(i.ecp_safe_invert_jac) refers to .\build\bignum.o(i.mbedtls_mpi_safe_cond_assign) for mbedtls_mpi_safe_cond_assign
    .\build\ecp.o(i.ecp_safe_invert_jac) refers to .\build\bignum.o(i.mbedtls_mpi_free) for mbedtls_mpi_free
    .\build\ecp.o(i.ecp_select_comb) refers to .\build\bignum.o(i.mbedtls_mpi_safe_cond_assign) for mbedtls_mpi_safe_cond_assign
    .\build\ecp.o(i.ecp_select_comb) refers to .\build\ecp.o(i.ecp_safe_invert_jac) for ecp_safe_invert_jac
    .\build\ecp.o(i.mbedtls_ecp_check_privkey) refers to .\build\ecp.o(i.ecp_get_type) for ecp_get_type
    .\build\ecp.o(i.mbedtls_ecp_check_privkey) refers to .\build\bignum.o(i.mbedtls_mpi_get_bit) for mbedtls_mpi_get_bit
    .\build\ecp.o(i.mbedtls_ecp_check_privkey) refers to .\build\bignum.o(i.mbedtls_mpi_bitlen) for mbedtls_mpi_bitlen
    .\build\ecp.o(i.mbedtls_ecp_check_privkey) refers to .\build\bignum.o(i.mbedtls_mpi_cmp_int) for mbedtls_mpi_cmp_int
    .\build\ecp.o(i.mbedtls_ecp_check_privkey) refers to .\build\bignum.o(i.mbedtls_mpi_cmp_mpi) for mbedtls_mpi_cmp_mpi
    .\build\ecp.o(i.mbedtls_ecp_check_pub_priv) refers to .\build\bignum.o(i.mbedtls_mpi_cmp_mpi) for mbedtls_mpi_cmp_mpi
    .\build\ecp.o(i.mbedtls_ecp_check_pub_priv) refers to .\build\ecp.o(i.mbedtls_ecp_point_init) for mbedtls_ecp_point_init
    .\build\ecp.o(i.mbedtls_ecp_check_pub_priv) refers to .\build\ecp.o(i.mbedtls_ecp_group_init) for mbedtls_ecp_group_init
    .\build\ecp.o(i.mbedtls_ecp_check_pub_priv) refers to .\build\ecp.o(i.mbedtls_ecp_group_copy) for mbedtls_ecp_group_copy
    .\build\ecp.o(i.mbedtls_ecp_check_pub_priv) refers to .\build\ecp.o(i.mbedtls_ecp_mul) for mbedtls_ecp_mul
    .\build\ecp.o(i.mbedtls_ecp_check_pub_priv) refers to .\build\ecp.o(i.mbedtls_ecp_point_free) for mbedtls_ecp_point_free
    .\build\ecp.o(i.mbedtls_ecp_check_pub_priv) refers to .\build\ecp.o(i.mbedtls_ecp_group_free) for mbedtls_ecp_group_free
    .\build\ecp.o(i.mbedtls_ecp_check_pubkey) refers to .\build\bignum.o(i.mbedtls_mpi_cmp_int) for mbedtls_mpi_cmp_int
    .\build\ecp.o(i.mbedtls_ecp_check_pubkey) refers to .\build\ecp.o(i.ecp_get_type) for ecp_get_type
    .\build\ecp.o(i.mbedtls_ecp_check_pubkey) refers to .\build\ecp.o(i.ecp_check_pubkey_mx) for ecp_check_pubkey_mx
    .\build\ecp.o(i.mbedtls_ecp_check_pubkey) refers to .\build\ecp.o(i.ecp_check_pubkey_sw) for ecp_check_pubkey_sw
    .\build\ecp.o(i.mbedtls_ecp_copy) refers to .\build\bignum.o(i.mbedtls_mpi_copy) for mbedtls_mpi_copy
    .\build\ecp.o(i.mbedtls_ecp_curve_info_from_grp_id) refers to .\build\ecp.o(i.mbedtls_ecp_curve_list) for mbedtls_ecp_curve_list
    .\build\ecp.o(i.mbedtls_ecp_curve_info_from_name) refers to .\build\ecp.o(i.mbedtls_ecp_curve_list) for mbedtls_ecp_curve_list
    .\build\ecp.o(i.mbedtls_ecp_curve_info_from_name) refers to D:\Keil_v5\ARM\ARMCC\Bin\..\lib\armlib\c_w.l(strcmpv7m.o)(.text) for strcmp
    .\build\ecp.o(i.mbedtls_ecp_curve_info_from_tls_id) refers to .\build\ecp.o(i.mbedtls_ecp_curve_list) for mbedtls_ecp_curve_list
    .\build\ecp.o(i.mbedtls_ecp_curve_list) refers to .\build\ecp.o(.constdata) for .constdata
    .\build\ecp.o(i.mbedtls_ecp_gen_key) refers to .\build\ecp_curves.o(i.mbedtls_ecp_group_load) for mbedtls_ecp_group_load
    .\build\ecp.o(i.mbedtls_ecp_gen_key) refers to .\build\ecp.o(i.mbedtls_ecp_gen_keypair) for mbedtls_ecp_gen_keypair
    .\build\ecp.o(i.mbedtls_ecp_gen_keypair) refers to .\build\ecp.o(i.mbedtls_ecp_gen_keypair_base) for mbedtls_ecp_gen_keypair_base
    .\build\ecp.o(i.mbedtls_ecp_gen_keypair_base) refers to .\build\ecp.o(i.ecp_get_type) for ecp_get_type
    .\build\ecp.o(i.mbedtls_ecp_gen_keypair_base) refers to .\build\bignum.o(i.mbedtls_mpi_fill_random) for mbedtls_mpi_fill_random
    .\build\ecp.o(i.mbedtls_ecp_gen_keypair_base) refers to .\build\bignum.o(i.mbedtls_mpi_bitlen) for mbedtls_mpi_bitlen
    .\build\ecp.o(i.mbedtls_ecp_gen_keypair_base) refers to .\build\bignum.o(i.mbedtls_mpi_shift_r) for mbedtls_mpi_shift_r
    .\build\ecp.o(i.mbedtls_ecp_gen_keypair_base) refers to .\build\bignum.o(i.mbedtls_mpi_set_bit) for mbedtls_mpi_set_bit
    .\build\ecp.o(i.mbedtls_ecp_gen_keypair_base) refers to .\build\bignum.o(i.mbedtls_mpi_cmp_int) for mbedtls_mpi_cmp_int
    .\build\ecp.o(i.mbedtls_ecp_gen_keypair_base) refers to .\build\bignum.o(i.mbedtls_mpi_cmp_mpi) for mbedtls_mpi_cmp_mpi
    .\build\ecp.o(i.mbedtls_ecp_gen_keypair_base) refers to .\build\ecp.o(i.mbedtls_ecp_mul) for mbedtls_ecp_mul
    .\build\ecp.o(i.mbedtls_ecp_group_copy) refers to .\build\ecp_curves.o(i.mbedtls_ecp_group_load) for mbedtls_ecp_group_load
    .\build\ecp.o(i.mbedtls_ecp_group_free) refers to .\build\bignum.o(i.mbedtls_mpi_free) for mbedtls_mpi_free
    .\build\ecp.o(i.mbedtls_ecp_group_free) refers to .\build\ecp.o(i.mbedtls_ecp_point_free) for mbedtls_ecp_point_free
    .\build\ecp.o(i.mbedtls_ecp_group_free) refers to D:\Keil_v5\ARM\ARMCC\Bin\..\lib\armlib\c_w.l(h1_free_mt.o)(.text) for free
    .\build\ecp.o(i.mbedtls_ecp_group_free) refers to .\build\ecp.o(i.mbedtls_zeroize) for mbedtls_zeroize
    .\build\ecp.o(i.mbedtls_ecp_group_init) refers to D:\Keil_v5\ARM\ARMCC\Bin\..\lib\armlib\c_w.l(rt_memclr_w.o)(.text) for __aeabi_memclr4
    .\build\ecp.o(i.mbedtls_ecp_grp_id_list) refers to .\build\ecp.o(i.mbedtls_ecp_curve_list) for mbedtls_ecp_curve_list
    .\build\ecp.o(i.mbedtls_ecp_grp_id_list) refers to .\build\ecp.o(.data) for .data
    .\build\ecp.o(i.mbedtls_ecp_is_zero) refers to .\build\bignum.o(i.mbedtls_mpi_cmp_int) for mbedtls_mpi_cmp_int
    .\build\ecp.o(i.mbedtls_ecp_keypair_free) refers to .\build\ecp.o(i.mbedtls_ecp_group_free) for mbedtls_ecp_group_free
    .\build\ecp.o(i.mbedtls_ecp_keypair_free) refers to .\build\bignum.o(i.mbedtls_mpi_free) for mbedtls_mpi_free
    .\build\ecp.o(i.mbedtls_ecp_keypair_free) refers to .\build\ecp.o(i.mbedtls_ecp_point_free) for mbedtls_ecp_point_free
    .\build\ecp.o(i.mbedtls_ecp_keypair_init) refers to .\build\ecp.o(i.mbedtls_ecp_group_init) for mbedtls_ecp_group_init
    .\build\ecp.o(i.mbedtls_ecp_keypair_init) refers to .\build\bignum.o(i.mbedtls_mpi_init) for mbedtls_mpi_init
    .\build\ecp.o(i.mbedtls_ecp_keypair_init) refers to .\build\ecp.o(i.mbedtls_ecp_point_init) for mbedtls_ecp_point_init
    .\build\ecp.o(i.mbedtls_ecp_mul) refers to .\build\bignum.o(i.mbedtls_mpi_cmp_int) for mbedtls_mpi_cmp_int
    .\build\ecp.o(i.mbedtls_ecp_mul) refers to .\build\ecp.o(i.mbedtls_ecp_check_privkey) for mbedtls_ecp_check_privkey
    .\build\ecp.o(i.mbedtls_ecp_mul) refers to .\build\ecp.o(i.mbedtls_ecp_check_pubkey) for mbedtls_ecp_check_pubkey
    .\build\ecp.o(i.mbedtls_ecp_mul) refers to .\build\ecp.o(i.ecp_get_type) for ecp_get_type
    .\build\ecp.o(i.mbedtls_ecp_mul) refers to .\build\ecp.o(i.ecp_mul_mxz) for ecp_mul_mxz
    .\build\ecp.o(i.mbedtls_ecp_mul) refers to .\build\ecp.o(i.ecp_mul_comb) for ecp_mul_comb
    .\build\ecp.o(i.mbedtls_ecp_mul_shortcuts) refers to .\build\bignum.o(i.mbedtls_mpi_cmp_int) for mbedtls_mpi_cmp_int
    .\build\ecp.o(i.mbedtls_ecp_mul_shortcuts) refers to .\build\ecp.o(i.mbedtls_ecp_mul) for mbedtls_ecp_mul
    .\build\ecp.o(i.mbedtls_ecp_mul_shortcuts) refers to .\build\ecp.o(i.mbedtls_ecp_copy) for mbedtls_ecp_copy
    .\build\ecp.o(i.mbedtls_ecp_mul_shortcuts) refers to .\build\bignum.o(i.mbedtls_mpi_sub_mpi) for mbedtls_mpi_sub_mpi
    .\build\ecp.o(i.mbedtls_ecp_muladd) refers to .\build\ecp.o(i.ecp_get_type) for ecp_get_type
    .\build\ecp.o(i.mbedtls_ecp_muladd) refers to .\build\ecp.o(i.mbedtls_ecp_point_init) for mbedtls_ecp_point_init
    .\build\ecp.o(i.mbedtls_ecp_muladd) refers to .\build\ecp.o(i.mbedtls_ecp_mul_shortcuts) for mbedtls_ecp_mul_shortcuts
    .\build\ecp.o(i.mbedtls_ecp_muladd) refers to .\build\ecp.o(i.ecp_add_mixed) for ecp_add_mixed
    .\build\ecp.o(i.mbedtls_ecp_muladd) refers to .\build\ecp.o(i.ecp_normalize_jac) for ecp_normalize_jac
    .\build\ecp.o(i.mbedtls_ecp_muladd) refers to .\build\ecp.o(i.mbedtls_ecp_point_free) for mbedtls_ecp_point_free
    .\build\ecp.o(i.mbedtls_ecp_point_cmp) refers to .\build\bignum.o(i.mbedtls_mpi_cmp_mpi) for mbedtls_mpi_cmp_mpi
    .\build\ecp.o(i.mbedtls_ecp_point_free) refers to .\build\bignum.o(i.mbedtls_mpi_free) for mbedtls_mpi_free
    .\build\ecp.o(i.mbedtls_ecp_point_init) refers to .\build\bignum.o(i.mbedtls_mpi_init) for mbedtls_mpi_init
    .\build\ecp.o(i.mbedtls_ecp_point_read_binary) refers to .\build\bignum.o(i.mbedtls_mpi_size) for mbedtls_mpi_size
    .\build\ecp.o(i.mbedtls_ecp_point_read_binary) refers to .\build\ecp.o(i.mbedtls_ecp_set_zero) for mbedtls_ecp_set_zero
    .\build\ecp.o(i.mbedtls_ecp_point_read_binary) refers to .\build\bignum.o(i.mbedtls_mpi_read_binary) for mbedtls_mpi_read_binary
    .\build\ecp.o(i.mbedtls_ecp_point_read_binary) refers to .\build\bignum.o(i.mbedtls_mpi_lset) for mbedtls_mpi_lset
    .\build\ecp.o(i.mbedtls_ecp_point_read_string) refers to .\build\bignum.o(i.mbedtls_mpi_read_string) for mbedtls_mpi_read_string
    .\build\ecp.o(i.mbedtls_ecp_point_read_string) refers to .\build\bignum.o(i.mbedtls_mpi_lset) for mbedtls_mpi_lset
    .\build\ecp.o(i.mbedtls_ecp_point_write_binary) refers to .\build\bignum.o(i.mbedtls_mpi_cmp_int) for mbedtls_mpi_cmp_int
    .\build\ecp.o(i.mbedtls_ecp_point_write_binary) refers to .\build\bignum.o(i.mbedtls_mpi_size) for mbedtls_mpi_size
    .\build\ecp.o(i.mbedtls_ecp_point_write_binary) refers to .\build\bignum.o(i.mbedtls_mpi_write_binary) for mbedtls_mpi_write_binary
    .\build\ecp.o(i.mbedtls_ecp_point_write_binary) refers to .\build\bignum.o(i.mbedtls_mpi_get_bit) for mbedtls_mpi_get_bit
    .\build\ecp.o(i.mbedtls_ecp_self_test) refers to D:\Keil_v5\ARM\ARMCC\Bin\..\lib\armlib\c_w.l(_printf_percent.o)(.ARM.Collect$$_printf_percent$$00000000) for _printf_percent
    .\build\ecp.o(i.mbedtls_ecp_self_test) refers to D:\Keil_v5\ARM\ARMCC\Bin\..\lib\armlib\c_w.l(_printf_u.o)(.ARM.Collect$$_printf_percent$$0000000A) for _printf_u
    .\build\ecp.o(i.mbedtls_ecp_self_test) refers to D:\Keil_v5\ARM\ARMCC\Bin\..\lib\armlib\c_w.l(_printf_dec.o)(.text) for _printf_int_dec
    .\build\ecp.o(i.mbedtls_ecp_self_test) refers to D:\Keil_v5\ARM\ARMCC\Bin\..\lib\armlib\c_w.l(_printf_pad.o)(.text) for _printf_pre_padding
    .\build\ecp.o(i.mbedtls_ecp_self_test) refers to D:\Keil_v5\ARM\ARMCC\Bin\..\lib\armlib\c_w.l(_printf_x.o)(.ARM.Collect$$_printf_percent$$0000000C) for _printf_x
    .\build\ecp.o(i.mbedtls_ecp_self_test) refers to D:\Keil_v5\ARM\ARMCC\Bin\..\lib\armlib\c_w.l(_printf_hex_int_ll_ptr.o)(.text) for _printf_longlong_hex
    .\build\ecp.o(i.mbedtls_ecp_self_test) refers to D:\Keil_v5\ARM\ARMCC\Bin\..\lib\armlib\c_w.l(rt_memcpy_w.o)(.text) for __aeabi_memcpy4
    .\build\ecp.o(i.mbedtls_ecp_self_test) refers to .\build\ecp.o(i.mbedtls_ecp_group_init) for mbedtls_ecp_group_init
    .\build\ecp.o(i.mbedtls_ecp_self_test) refers to .\build\ecp.o(i.mbedtls_ecp_point_init) for mbedtls_ecp_point_init
    .\build\ecp.o(i.mbedtls_ecp_self_test) refers to .\build\bignum.o(i.mbedtls_mpi_init) for mbedtls_mpi_init
    .\build\ecp.o(i.mbedtls_ecp_self_test) refers to .\build\ecp.o(i.mbedtls_ecp_curve_list) for mbedtls_ecp_curve_list
    .\build\ecp.o(i.mbedtls_ecp_self_test) refers to .\build\ecp_curves.o(i.mbedtls_ecp_group_load) for mbedtls_ecp_group_load
    .\build\ecp.o(i.mbedtls_ecp_self_test) refers to D:\Keil_v5\ARM\ARMCC\Bin\..\lib\armlib\c_w.l(__2printf.o)(.text) for __2printf
    .\build\ecp.o(i.mbedtls_ecp_self_test) refers to .\build\bignum.o(i.mbedtls_mpi_lset) for mbedtls_mpi_lset
    .\build\ecp.o(i.mbedtls_ecp_self_test) refers to .\build\ecp.o(i.mbedtls_ecp_mul) for mbedtls_ecp_mul
    .\build\ecp.o(i.mbedtls_ecp_self_test) refers to .\build\bignum.o(i.mbedtls_mpi_read_string) for mbedtls_mpi_read_string
    .\build\ecp.o(i.mbedtls_ecp_self_test) refers to .\build\ecp.o(i.mbedtls_ecp_group_free) for mbedtls_ecp_group_free
    .\build\ecp.o(i.mbedtls_ecp_self_test) refers to .\build\ecp.o(i.mbedtls_ecp_point_free) for mbedtls_ecp_point_free
    .\build\ecp.o(i.mbedtls_ecp_self_test) refers to .\build\bignum.o(i.mbedtls_mpi_free) for mbedtls_mpi_free
    .\build\ecp.o(i.mbedtls_ecp_self_test) refers to .\build\ecp.o(.constdata) for .constdata
    .\build\ecp.o(i.mbedtls_ecp_self_test) refers to .\build\ecp.o(.data) for .data
    .\build\ecp.o(i.mbedtls_ecp_set_zero) refers to .\build\bignum.o(i.mbedtls_mpi_lset) for mbedtls_mpi_lset
    .\build\ecp.o(i.mbedtls_ecp_tls_read_group) refers to .\build\ecp.o(i.mbedtls_ecp_curve_info_from_tls_id) for mbedtls_ecp_curve_info_from_tls_id
    .\build\ecp.o(i.mbedtls_ecp_tls_read_group) refers to .\build\ecp_curves.o(i.mbedtls_ecp_group_load) for mbedtls_ecp_group_load
    .\build\ecp.o(i.mbedtls_ecp_tls_read_point) refers to .\build\ecp.o(i.mbedtls_ecp_point_read_binary) for mbedtls_ecp_point_read_binary
    .\build\ecp.o(i.mbedtls_ecp_tls_write_group) refers to .\build\ecp.o(i.mbedtls_ecp_curve_info_from_grp_id) for mbedtls_ecp_curve_info_from_grp_id
    .\build\ecp.o(i.mbedtls_ecp_tls_write_point) refers to .\build\ecp.o(i.mbedtls_ecp_point_write_binary) for mbedtls_ecp_point_write_binary
    .\build\ecp.o(.constdata) refers to .\build\ecp.o(.conststring) for .conststring
    .\build\ecp_curves.o(i.ecp_group_load) refers to .\build\ecp_curves.o(i.ecp_mpi_load) for ecp_mpi_load
    .\build\ecp_curves.o(i.ecp_group_load) refers to .\build\bignum.o(i.mbedtls_mpi_bitlen) for mbedtls_mpi_bitlen
    .\build\ecp_curves.o(i.ecp_group_load) refers to .\build\ecp_curves.o(.data) for .data
    .\build\ecp_curves.o(i.ecp_mod_p255) refers to D:\Keil_v5\ARM\ARMCC\Bin\..\lib\armlib\c_w.l(rt_memclr_w.o)(.text) for __aeabi_memclr4
    .\build\ecp_curves.o(i.ecp_mod_p255) refers to D:\Keil_v5\ARM\ARMCC\Bin\..\lib\armlib\c_w.l(rt_memcpy_w.o)(.text) for __aeabi_memcpy4
    .\build\ecp_curves.o(i.ecp_mod_p255) refers to .\build\bignum.o(i.mbedtls_mpi_shift_r) for mbedtls_mpi_shift_r
    .\build\ecp_curves.o(i.ecp_mod_p255) refers to .\build\bignum.o(i.mbedtls_mpi_set_bit) for mbedtls_mpi_set_bit
    .\build\ecp_curves.o(i.ecp_mod_p255) refers to .\build\bignum.o(i.mbedtls_mpi_mul_int) for mbedtls_mpi_mul_int
    .\build\ecp_curves.o(i.ecp_mod_p255) refers to .\build\bignum.o(i.mbedtls_mpi_add_abs) for mbedtls_mpi_add_abs
    .\build\ecp_curves.o(i.ecp_mod_p256) refers to D:\Keil_v5\ARM\ARMCC\Bin\..\lib\armlib\c_w.l(rt_memclr_w.o)(.text) for __aeabi_memclr4
    .\build\ecp_curves.o(i.ecp_mod_p256) refers to .\build\bignum.o(i.mbedtls_mpi_grow) for mbedtls_mpi_grow
    .\build\ecp_curves.o(i.ecp_mod_p256) refers to .\build\ecp_curves.o(i.add32) for add32
    .\build\ecp_curves.o(i.ecp_mod_p256) refers to .\build\ecp_curves.o(i.sub32) for sub32
    .\build\ecp_curves.o(i.ecp_mod_p256) refers to .\build\ecp_curves.o(i.fix_negative) for fix_negative
    .\build\ecp_curves.o(i.ecp_mod_p384) refers to D:\Keil_v5\ARM\ARMCC\Bin\..\lib\armlib\c_w.l(rt_memclr_w.o)(.text) for __aeabi_memclr4
    .\build\ecp_curves.o(i.ecp_mod_p384) refers to .\build\bignum.o(i.mbedtls_mpi_grow) for mbedtls_mpi_grow
    .\build\ecp_curves.o(i.ecp_mod_p384) refers to .\build\ecp_curves.o(i.add32) for add32
    .\build\ecp_curves.o(i.ecp_mod_p384) refers to .\build\ecp_curves.o(i.sub32) for sub32
    .\build\ecp_curves.o(i.ecp_mod_p384) refers to .\build\ecp_curves.o(i.fix_negative) for fix_negative
    .\build\ecp_curves.o(i.ecp_use_curve25519) refers to .\build\bignum.o(i.mbedtls_mpi_read_string) for mbedtls_mpi_read_string
    .\build\ecp_curves.o(i.ecp_use_curve25519) refers to .\build\bignum.o(i.mbedtls_mpi_lset) for mbedtls_mpi_lset
    .\build\ecp_curves.o(i.ecp_use_curve25519) refers to .\build\bignum.o(i.mbedtls_mpi_shift_l) for mbedtls_mpi_shift_l
    .\build\ecp_curves.o(i.ecp_use_curve25519) refers to .\build\bignum.o(i.mbedtls_mpi_sub_int) for mbedtls_mpi_sub_int
    .\build\ecp_curves.o(i.ecp_use_curve25519) refers to .\build\bignum.o(i.mbedtls_mpi_bitlen) for mbedtls_mpi_bitlen
    .\build\ecp_curves.o(i.ecp_use_curve25519) refers to .\build\bignum.o(i.mbedtls_mpi_free) for mbedtls_mpi_free
    .\build\ecp_curves.o(i.ecp_use_curve25519) refers to .\build\ecp.o(i.mbedtls_ecp_group_free) for mbedtls_ecp_group_free
    .\build\ecp_curves.o(i.fix_negative) refers to .\build\bignum.o(i.mbedtls_mpi_sub_abs) for mbedtls_mpi_sub_abs
    .\build\ecp_curves.o(i.mbedtls_ecp_group_load) refers to .\build\ecp.o(i.mbedtls_ecp_group_free) for mbedtls_ecp_group_free
    .\build\ecp_curves.o(i.mbedtls_ecp_group_load) refers to .\build\ecp_curves.o(i.ecp_group_load) for ecp_group_load
    .\build\ecp_curves.o(i.mbedtls_ecp_group_load) refers to .\build\ecp_curves.o(i.ecp_use_curve25519) for ecp_use_curve25519
    .\build\ecp_curves.o(i.mbedtls_ecp_group_load) refers to .\build\ecp_curves.o(i.ecp_mod_p256) for ecp_mod_p256
    .\build\ecp_curves.o(i.mbedtls_ecp_group_load) refers to .\build\ecp_curves.o(.constdata) for .constdata
    .\build\ecp_curves.o(i.mbedtls_ecp_group_load) refers to .\build\ecp_curves.o(i.ecp_mod_p384) for ecp_mod_p384
    .\build\ecp_curves.o(i.mbedtls_ecp_group_load) refers to .\build\ecp_curves.o(i.ecp_mod_p255) for ecp_mod_p255
    .\build\equeue.o(i.equeue_alloc) refers to .\build\equeue.o(i.equeue_mem_alloc) for equeue_mem_alloc
    .\build\equeue.o(i.equeue_background) refers to .\build\equeue_mbed.o(i.equeue_mutex_lock) for equeue_mutex_lock
    .\build\equeue.o(i.equeue_background) refers to .\build\equeue_mbed.o(i.equeue_tick) for equeue_tick
    .\build\equeue.o(i.equeue_background) refers to .\build\equeue_mbed.o(i.equeue_mutex_unlock) for equeue_mutex_unlock
    .\build\equeue.o(i.equeue_break) refers to .\build\equeue_mbed.o(i.equeue_mutex_lock) for equeue_mutex_lock
    .\build\equeue.o(i.equeue_break) refers to .\build\equeue_mbed.o(i.equeue_mutex_unlock) for equeue_mutex_unlock
    .\build\equeue.o(i.equeue_break) refers to .\build\equeue_mbed.o(i.equeue_sema_signal) for equeue_sema_signal
    .\build\equeue.o(i.equeue_call) refers to .\build\equeue.o(i.equeue_alloc) for equeue_alloc
    .\build\equeue.o(i.equeue_call) refers to .\build\equeue.o(i.equeue_post) for equeue_post
    .\build\equeue.o(i.equeue_call) refers to .\build\equeue.o(i.ecallback_dispatch) for ecallback_dispatch
    .\build\equeue.o(i.equeue_call_every) refers to .\build\equeue.o(i.equeue_alloc) for equeue_alloc
    .\build\equeue.o(i.equeue_call_every) refers to .\build\equeue.o(i.equeue_event_delay) for equeue_event_delay
    .\build\equeue.o(i.equeue_call_every) refers to .\build\equeue.o(i.equeue_event_period) for equeue_event_period
    .\build\equeue.o(i.equeue_call_every) refers to .\build\equeue.o(i.equeue_post) for equeue_post
    .\build\equeue.o(i.equeue_call_every) refers to .\build\equeue.o(i.ecallback_dispatch) for ecallback_dispatch
    .\build\equeue.o(i.equeue_call_in) refers to .\build\equeue.o(i.equeue_alloc) for equeue_alloc
    .\build\equeue.o(i.equeue_call_in) refers to .\build\equeue.o(i.equeue_event_delay) for equeue_event_delay
    .\build\equeue.o(i.equeue_call_in) refers to .\build\equeue.o(i.equeue_post) for equeue_post
    .\build\equeue.o(i.equeue_call_in) refers to .\build\equeue.o(i.ecallback_dispatch) for ecallback_dispatch
    .\build\equeue.o(i.equeue_cancel) refers to .\build\equeue.o(i.equeue_unqueue) for equeue_unqueue
    .\build\equeue.o(i.equeue_cancel) refers to .\build\equeue.o(i.equeue_dealloc) for equeue_dealloc
    .\build\equeue.o(i.equeue_chain) refers to .\build\equeue.o(i.equeue_alloc) for equeue_alloc
    .\build\equeue.o(i.equeue_chain) refers to .\build\equeue.o(i.equeue_background) for equeue_background
    .\build\equeue.o(i.equeue_chain) refers to .\build\equeue.o(i.equeue_chain_update) for equeue_chain_update
    .\build\equeue.o(i.equeue_chain_dispatch) refers to .\build\equeue.o(i.equeue_dispatch) for equeue_dispatch
    .\build\equeue.o(i.equeue_chain_update) refers to .\build\equeue.o(i.equeue_cancel) for equeue_cancel
    .\build\equeue.o(i.equeue_chain_update) refers to .\build\equeue.o(i.equeue_call_in) for equeue_call_in
    .\build\equeue.o(i.equeue_chain_update) refers to .\build\equeue.o(i.equeue_dealloc) for equeue_dealloc
    .\build\equeue.o(i.equeue_chain_update) refers to .\build\equeue.o(i.equeue_chain_dispatch) for equeue_chain_dispatch
    .\build\equeue.o(i.equeue_create) refers to D:\Keil_v5\ARM\ARMCC\Bin\..\lib\armlib\c_w.l(h1_alloc_mt.o)(.text) for malloc
    .\build\equeue.o(i.equeue_create) refers to .\build\equeue.o(i.equeue_create_inplace) for equeue_create_inplace
    .\build\equeue.o(i.equeue_create_inplace) refers to .\build\equeue_mbed.o(i.equeue_tick) for equeue_tick
    .\build\equeue.o(i.equeue_create_inplace) refers to .\build\equeue_mbed.o(i.equeue_sema_create) for equeue_sema_create
    .\build\equeue.o(i.equeue_create_inplace) refers to .\build\equeue_mbed.o(i.equeue_mutex_create) for equeue_mutex_create
    .\build\equeue.o(i.equeue_dealloc) refers to .\build\equeue.o(i.equeue_mem_dealloc) for equeue_mem_dealloc
    .\build\equeue.o(i.equeue_dequeue) refers to .\build\equeue_mbed.o(i.equeue_mutex_lock) for equeue_mutex_lock
    .\build\equeue.o(i.equeue_dequeue) refers to .\build\equeue_mbed.o(i.equeue_mutex_unlock) for equeue_mutex_unlock
    .\build\equeue.o(i.equeue_destroy) refers to .\build\equeue_mbed.o(i.equeue_mutex_destroy) for equeue_mutex_destroy
    .\build\equeue.o(i.equeue_destroy) refers to .\build\equeue_mbed.o(i.equeue_sema_destroy) for equeue_sema_destroy
    .\build\equeue.o(i.equeue_destroy) refers to D:\Keil_v5\ARM\ARMCC\Bin\..\lib\armlib\c_w.l(h1_free_mt.o)(.text) for free
    .\build\equeue.o(i.equeue_dispatch) refers to .\build\equeue_mbed.o(i.equeue_tick) for equeue_tick
    .\build\equeue.o(i.equeue_dispatch) refers to .\build\equeue.o(i.equeue_dequeue) for equeue_dequeue
    .\build\equeue.o(i.equeue_dispatch) refers to .\build\equeue.o(i.equeue_enqueue) for equeue_enqueue
    .\build\equeue.o(i.equeue_dispatch) refers to .\build\equeue.o(i.equeue_incid) for equeue_incid
    .\build\equeue.o(i.equeue_dispatch) refers to .\build\equeue.o(i.equeue_dealloc) for equeue_dealloc
    .\build\equeue.o(i.equeue_dispatch) refers to .\build\equeue_mbed.o(i.equeue_mutex_lock) for equeue_mutex_lock
    .\build\equeue.o(i.equeue_dispatch) refers to .\build\equeue_mbed.o(i.equeue_mutex_unlock) for equeue_mutex_unlock
    .\build\equeue.o(i.equeue_dispatch) refers to .\build\equeue_mbed.o(i.equeue_sema_wait) for equeue_sema_wait
    .\build\equeue.o(i.equeue_enqueue) refers to .\build\equeue_mbed.o(i.equeue_mutex_lock) for equeue_mutex_lock
    .\build\equeue.o(i.equeue_enqueue) refers to .\build\equeue_mbed.o(i.equeue_mutex_unlock) for equeue_mutex_unlock
    .\build\equeue.o(i.equeue_mem_alloc) refers to .\build\equeue_mbed.o(i.equeue_mutex_lock) for equeue_mutex_lock
    .\build\equeue.o(i.equeue_mem_alloc) refers to .\build\equeue_mbed.o(i.equeue_mutex_unlock) for equeue_mutex_unlock
    .\build\equeue.o(i.equeue_mem_dealloc) refers to .\build\equeue_mbed.o(i.equeue_mutex_lock) for equeue_mutex_lock
    .\build\equeue.o(i.equeue_mem_dealloc) refers to .\build\equeue_mbed.o(i.equeue_mutex_unlock) for equeue_mutex_unlock
    .\build\equeue.o(i.equeue_post) refers to .\build\equeue_mbed.o(i.equeue_tick) for equeue_tick
    .\build\equeue.o(i.equeue_post) refers to .\build\equeue.o(i.equeue_enqueue) for equeue_enqueue
    .\build\equeue.o(i.equeue_post) refers to .\build\equeue_mbed.o(i.equeue_sema_signal) for equeue_sema_signal
    .\build\equeue.o(i.equeue_unqueue) refers to .\build\equeue_mbed.o(i.equeue_mutex_lock) for equeue_mutex_lock
    .\build\equeue.o(i.equeue_unqueue) refers to .\build\equeue_mbed.o(i.equeue_mutex_unlock) for equeue_mutex_unlock
    .\build\equeue.o(i.equeue_unqueue) refers to .\build\equeue.o(i.equeue_incid) for equeue_incid
    .\build\equeue_mbed.o(i._Z16equeue_tick_initv) refers to .\build\timer.o(i._ZN4mbed5TimerC1Ev) for mbed::Timer::Timer()
    .\build\equeue_mbed.o(i._Z16equeue_tick_initv) refers to .\build\timerevent.o(i._ZN4mbed10TimerEventC2Ev) for mbed::TimerEvent::TimerEvent__sub_object()
    .\build\equeue_mbed.o(i._Z16equeue_tick_initv) refers to .\build\can.o(t._ZN4mbed8CallbackIFvvEEC1EPS1_) for mbed::Callback<void()>::Callback(void(*)())
    .\build\equeue_mbed.o(i._Z16equeue_tick_initv) refers to .\build\timer.o(i._ZN4mbed5Timer5startEv) for mbed::Timer::start()
    .\build\equeue_mbed.o(i._Z16equeue_tick_initv) refers to .\build\mbed_critical.o(i.core_util_critical_section_enter) for core_util_critical_section_enter
    .\build\equeue_mbed.o(i._Z16equeue_tick_initv) refers to .\build\mbed_sleep_manager.o(i.sleep_manager_lock_deep_sleep_internal) for sleep_manager_lock_deep_sleep_internal
    .\build\equeue_mbed.o(i._Z16equeue_tick_initv) refers to .\build\at_cellularsms.o(t._ZN4mbed8CallbackIFvvEED1Ev) for mbed::Callback<void()>::~Callback()
    .\build\equeue_mbed.o(i._Z16equeue_tick_initv) refers to .\build\ticker.o(i._ZN4mbed6Ticker5setupEy) for mbed::Ticker::setup(unsigned long long)
    .\build\equeue_mbed.o(i._Z16equeue_tick_initv) refers to .\build\mbed_critical.o(i.core_util_critical_section_exit) for core_util_critical_section_exit
    .\build\equeue_mbed.o(i._Z16equeue_tick_initv) refers to .\build\equeue_mbed.o(.bss) for .bss
    .\build\equeue_mbed.o(i._Z16equeue_tick_initv) refers to .\build\ticker.o(.constdata__ZTVN4mbed6TickerE) for vtable for mbed::Ticker
    .\build\equeue_mbed.o(i._Z16equeue_tick_initv) refers to .\build\equeue_mbed.o(.data) for .data
    .\build\equeue_mbed.o(i._Z16equeue_tick_initv) refers to .\build\equeue_mbed.o(i._Z18equeue_tick_updatev) for equeue_tick_update()
    .\build\equeue_mbed.o(i._Z18equeue_tick_updatev) refers to .\build\timer.o(i._ZN4mbed5Timer7read_msEv) for mbed::Timer::read_ms()
    .\build\equeue_mbed.o(i._Z18equeue_tick_updatev) refers to .\build\timer.o(i._ZN4mbed5Timer5resetEv) for mbed::Timer::reset()
    .\build\equeue_mbed.o(i._Z18equeue_tick_updatev) refers to .\build\equeue_mbed.o(.bss) for .bss
    .\build\equeue_mbed.o(i._Z18equeue_tick_updatev) refers to .\build\equeue_mbed.o(.data) for .data
    .\build\equeue_mbed.o(i.equeue_mutex_lock) refers to .\build\mbed_critical.o(i.core_util_critical_section_enter) for core_util_critical_section_enter
    .\build\equeue_mbed.o(i.equeue_mutex_unlock) refers to .\build\mbed_critical.o(i.core_util_critical_section_exit) for core_util_critical_section_exit
    .\build\equeue_mbed.o(i.equeue_sema_create) refers to .\build\rtx_evflags.o(i.osEventFlagsNew) for osEventFlagsNew
    .\build\equeue_mbed.o(i.equeue_sema_destroy) refers to .\build\rtx_evflags.o(i.osEventFlagsDelete) for osEventFlagsDelete
    .\build\equeue_mbed.o(i.equeue_sema_signal) refers to .\build\rtx_evflags.o(i.osEventFlagsSet) for osEventFlagsSet
    .\build\equeue_mbed.o(i.equeue_sema_wait) refers to .\build\rtx_evflags.o(i.osEventFlagsWait) for osEventFlagsWait
    .\build\equeue_mbed.o(i.equeue_tick) refers to .\build\equeue_mbed.o(i._Z16equeue_tick_initv) for equeue_tick_init()
    .\build\equeue_mbed.o(i.equeue_tick) refers to .\build\timer.o(i._ZN4mbed5Timer7read_msEv) for mbed::Timer::read_ms()
    .\build\equeue_mbed.o(i.equeue_tick) refers to .\build\equeue_mbed.o(.data) for .data
    .\build\equeue_mbed.o(i.equeue_tick) refers to .\build\equeue_mbed.o(.bss) for .bss
    .\build\equeue_mbed.o(.ARM.exidx) refers to .\build\equeue_mbed.o(i._Z18equeue_tick_updatev) for i._Z18equeue_tick_updatev
    .\build\equeue_mbed.o(.ARM.exidx) refers to .\build\equeue_mbed.o(i._Z16equeue_tick_initv) for i._Z16equeue_tick_initv
    .\build\equeue_mbed.o(.ARM.exidx) refers to .\build\equeue_mbed.o(i.equeue_tick) for i.equeue_tick
    .\build\equeue_mbed.o(.ARM.exidx) refers to .\build\equeue_mbed.o(i.equeue_mutex_create) for i.equeue_mutex_create
    .\build\equeue_mbed.o(.ARM.exidx) refers to .\build\equeue_mbed.o(i.equeue_mutex_destroy) for i.equeue_mutex_destroy
    .\build\equeue_mbed.o(.ARM.exidx) refers to .\build\equeue_mbed.o(i.equeue_mutex_lock) for i.equeue_mutex_lock
    .\build\equeue_mbed.o(.ARM.exidx) refers to .\build\equeue_mbed.o(i.equeue_mutex_unlock) for i.equeue_mutex_unlock
    .\build\equeue_mbed.o(.ARM.exidx) refers to .\build\equeue_mbed.o(i.equeue_sema_create) for i.equeue_sema_create
    .\build\equeue_mbed.o(.ARM.exidx) refers to .\build\equeue_mbed.o(i.equeue_sema_destroy) for i.equeue_sema_destroy
    .\build\equeue_mbed.o(.ARM.exidx) refers to .\build\equeue_mbed.o(i.equeue_sema_signal) for i.equeue_sema_signal
    .\build\equeue_mbed.o(.ARM.exidx) refers to .\build\equeue_mbed.o(i.equeue_sema_wait) for i.equeue_sema_wait
    .\build\error.o(i.mbedtls_strerror) refers to D:\Keil_v5\ARM\ARMCC\Bin\..\lib\armlib\c_w.l(_printf_pad.o)(.text) for _printf_pre_padding
    .\build\error.o(i.mbedtls_strerror) refers to D:\Keil_v5\ARM\ARMCC\Bin\..\lib\armlib\c_w.l(_printf_percent.o)(.ARM.Collect$$_printf_percent$$00000000) for _printf_percent
    .\build\error.o(i.mbedtls_strerror) refers to D:\Keil_v5\ARM\ARMCC\Bin\..\lib\armlib\c_w.l(_printf_x.o)(.ARM.Collect$$_printf_percent$$0000000C) for _printf_x
    .\build\error.o(i.mbedtls_strerror) refers to D:\Keil_v5\ARM\ARMCC\Bin\..\lib\armlib\c_w.l(_printf_hex_int_ll_ptr.o)(.text) for _printf_longlong_hex
    .\build\error.o(i.mbedtls_strerror) refers to D:\Keil_v5\ARM\ARMCC\Bin\..\lib\armlib\c_w.l(rt_memclr.o)(.text) for __aeabi_memclr
    .\build\error.o(i.mbedtls_strerror) refers to D:\Keil_v5\ARM\ARMCC\Bin\..\lib\armlib\c_w.l(__2snprintf.o)(.text) for __2snprintf
    .\build\error.o(i.mbedtls_strerror) refers to .\build\error.o(.conststring) for .conststring
    .\build\error.o(i.mbedtls_strerror) refers to D:\Keil_v5\ARM\ARMCC\Bin\..\lib\armlib\c_w.l(strlen.o)(.text) for strlen
    .\build\eventflags.o(i._ZN4rtos10EventFlags11constructorEPKc) refers to .\build\rtx_evflags.o(i.osEventFlagsNew) for osEventFlagsNew
    .\build\eventflags.o(i._ZN4rtos10EventFlags11constructorEPKc) refers to .\build\mbed_assert.o(i.mbed_assert_internal) for mbed_assert_internal
    .\build\eventflags.o(i._ZN4rtos10EventFlags3setEj) refers to .\build\rtx_evflags.o(i.osEventFlagsSet) for osEventFlagsSet
    .\build\eventflags.o(i._ZN4rtos10EventFlags4waitEjjjb) refers to .\build\rtx_evflags.o(i.osEventFlagsWait) for osEventFlagsWait
    .\build\eventflags.o(i._ZN4rtos10EventFlags5clearEj) refers to .\build\rtx_evflags.o(i.osEventFlagsClear) for osEventFlagsClear
    .\build\eventflags.o(i._ZN4rtos10EventFlags8wait_allEjjb) refers to .\build\eventflags.o(i._ZN4rtos10EventFlags4waitEjjjb) for rtos::EventFlags::wait(unsigned, unsigned, unsigned, bool)
    .\build\eventflags.o(i._ZN4rtos10EventFlags8wait_anyEjjb) refers to .\build\eventflags.o(i._ZN4rtos10EventFlags4waitEjjjb) for rtos::EventFlags::wait(unsigned, unsigned, unsigned, bool)
    .\build\eventflags.o(i._ZN4rtos10EventFlagsC1EPKc) refers to .\build\eventflags.o(i._ZN4rtos10EventFlags11constructorEPKc) for rtos::EventFlags::constructor(const char*)
    .\build\eventflags.o(i._ZN4rtos10EventFlagsC1Ev) refers to .\build\eventflags.o(i._ZN4rtos10EventFlags11constructorEPKc) for rtos::EventFlags::constructor(const char*)
    .\build\eventflags.o(i._ZN4rtos10EventFlagsD1Ev) refers to .\build\rtx_evflags.o(i.osEventFlagsDelete) for osEventFlagsDelete
    .\build\eventflags.o(i._ZNK4rtos10EventFlags3getEv) refers to .\build\rtx_evflags.o(i.osEventFlagsGet) for osEventFlagsGet
    .\build\eventflags.o(.ARM.exidx) refers to .\build\eventflags.o(i._ZN4rtos10EventFlags11constructorEPKc) for i._ZN4rtos10EventFlags11constructorEPKc
    .\build\eventflags.o(.ARM.exidx) refers to .\build\eventflags.o(i._ZN4rtos10EventFlagsC1Ev) for i._ZN4rtos10EventFlagsC1Ev
    .\build\eventflags.o(.ARM.exidx) refers to .\build\eventflags.o(i._ZN4rtos10EventFlagsC1EPKc) for i._ZN4rtos10EventFlagsC1EPKc
    .\build\eventflags.o(.ARM.exidx) refers to .\build\eventflags.o(i._ZN4rtos10EventFlags3setEj) for i._ZN4rtos10EventFlags3setEj
    .\build\eventflags.o(.ARM.exidx) refers to .\build\eventflags.o(i._ZN4rtos10EventFlags5clearEj) for i._ZN4rtos10EventFlags5clearEj
    .\build\eventflags.o(.ARM.exidx) refers to .\build\eventflags.o(i._ZNK4rtos10EventFlags3getEv) for i._ZNK4rtos10EventFlags3getEv
    .\build\eventflags.o(.ARM.exidx) refers to .\build\eventflags.o(i._ZN4rtos10EventFlags4waitEjjjb) for i._ZN4rtos10EventFlags4waitEjjjb
    .\build\eventflags.o(.ARM.exidx) refers to .\build\eventflags.o(i._ZN4rtos10EventFlags8wait_allEjjb) for i._ZN4rtos10EventFlags8wait_allEjjb
    .\build\eventflags.o(.ARM.exidx) refers to .\build\eventflags.o(i._ZN4rtos10EventFlags8wait_anyEjjb) for i._ZN4rtos10EventFlags8wait_anyEjjb
    .\build\eventflags.o(.ARM.exidx) refers to .\build\eventflags.o(i._ZN4rtos10EventFlagsD1Ev) for i._ZN4rtos10EventFlagsD1Ev
    .\build\eventqueue.o(i._ZN6events10EventQueue10backgroundEN4mbed8CallbackIFviEEE) refers to .\build\eventqueue.o(t._ZN4mbed8CallbackIFviEED1Ev) for mbed::Callback<void(int)>::~Callback()
    .\build\eventqueue.o(i._ZN6events10EventQueue10backgroundEN4mbed8CallbackIFviEEE) refers to .\build\equeue.o(i.equeue_background) for equeue_background
    .\build\eventqueue.o(i._ZN6events10EventQueue10backgroundEN4mbed8CallbackIFviEEE) refers to .\build\eventqueue.o(t._ZN4mbed8CallbackIFviEE5thunkEPvi) for mbed::Callback<void(int)>::thunk(void*, int)
    .\build\eventqueue.o(i._ZN6events10EventQueue14break_dispatchEv) refers to .\build\equeue.o(i.equeue_break) for equeue_break
    .\build\eventqueue.o(i._ZN6events10EventQueue4tickEv) refers to .\build\equeue_mbed.o(i.equeue_tick) for equeue_tick
    .\build\eventqueue.o(i._ZN6events10EventQueue5chainEPS0_) refers to .\build\equeue.o(i.equeue_chain) for equeue_chain
    .\build\eventqueue.o(i._ZN6events10EventQueue6cancelEi) refers to .\build\equeue.o(i.equeue_cancel) for equeue_cancel
    .\build\eventqueue.o(i._ZN6events10EventQueue8dispatchEi) refers to .\build\equeue.o(i.equeue_dispatch) for equeue_dispatch
    .\build\eventqueue.o(i._ZN6events10EventQueueC1EjPh) refers to .\build\equeue.o(i.equeue_create_inplace) for equeue_create_inplace
    .\build\eventqueue.o(i._ZN6events10EventQueueC1EjPh) refers to .\build\equeue.o(i.equeue_create) for equeue_create
    .\build\eventqueue.o(i._ZN6events10EventQueueD1Ev) refers to .\build\equeue.o(i.equeue_destroy) for equeue_destroy
    .\build\eventqueue.o(i._ZN6events10EventQueueD1Ev) refers to .\build\eventqueue.o(t._ZN4mbed8CallbackIFviEED1Ev) for mbed::Callback<void(int)>::~Callback()
    .\build\eventqueue.o(.ARM.exidx) refers to .\build\eventqueue.o(i._ZN6events10EventQueueC1EjPh) for i._ZN6events10EventQueueC1EjPh
    .\build\eventqueue.o(.ARM.exidx) refers to .\build\eventqueue.o(i._ZN6events10EventQueueD1Ev) for i._ZN6events10EventQueueD1Ev
    .\build\eventqueue.o(.ARM.exidx) refers to .\build\eventqueue.o(i._ZN6events10EventQueue8dispatchEi) for i._ZN6events10EventQueue8dispatchEi
    .\build\eventqueue.o(.ARM.exidx) refers to .\build\eventqueue.o(i._ZN6events10EventQueue14break_dispatchEv) for i._ZN6events10EventQueue14break_dispatchEv
    .\build\eventqueue.o(.ARM.exidx) refers to .\build\eventqueue.o(i._ZN6events10EventQueue4tickEv) for i._ZN6events10EventQueue4tickEv
    .\build\eventqueue.o(.ARM.exidx) refers to .\build\eventqueue.o(i._ZN6events10EventQueue6cancelEi) for i._ZN6events10EventQueue6cancelEi
    .\build\eventqueue.o(.ARM.exidx) refers to .\build\eventqueue.o(i._ZN6events10EventQueue10backgroundEN4mbed8CallbackIFviEEE) for i._ZN6events10EventQueue10backgroundEN4mbed8CallbackIFviEEE
    .\build\eventqueue.o(.ARM.exidx) refers to .\build\eventqueue.o(i._ZN6events10EventQueue5chainEPS0_) for i._ZN6events10EventQueue5chainEPS0_
    .\build\except.o(.text) refers to .\build\mbed_rtx_fault_handler.o(.bss) for mbed_fault_context
    .\build\except.o(.text) refers to .\build\mbed_rtx_fault_handler.o(i.mbed_fault_handler) for mbed_fault_handler
    .\build\except.o(.text) refers to .\build\rtx_kernel.o(.data.os) for osRtxInfo
    .\build\exhaustibleblockdevice.o(i._ZN22ExhaustibleBlockDevice4initEv) refers to D:\Keil_v5\ARM\ARMCC\Bin\..\lib\armlib\c_w.l(lludivv7m.o)(.text) for __aeabi_uldivmod
    .\build\exhaustibleblockdevice.o(i._ZN22ExhaustibleBlockDevice4initEv) refers to .\build\mbed_retarget.o(i._Znaj) for operator new[] (unsigned)
    .\build\exhaustibleblockdevice.o(i._ZN22ExhaustibleBlockDevice5eraseEyy) refers to D:\Keil_v5\ARM\ARMCC\Bin\..\lib\armlib\c_w.l(lludivv7m.o)(.text) for __aeabi_uldivmod
    .\build\exhaustibleblockdevice.o(i._ZN22ExhaustibleBlockDevice5eraseEyy) refers to .\build\mbed_assert.o(i.mbed_assert_internal) for mbed_assert_internal
    .\build\exhaustibleblockdevice.o(i._ZN22ExhaustibleBlockDevice7programEPKvyy) refers to D:\Keil_v5\ARM\ARMCC\Bin\..\lib\armlib\c_w.l(lludivv7m.o)(.text) for __aeabi_uldivmod
    .\build\exhaustibleblockdevice.o(i._ZN22ExhaustibleBlockDevice7programEPKvyy) refers to .\build\mbed_assert.o(i.mbed_assert_internal) for mbed_assert_internal
    .\build\exhaustibleblockdevice.o(i._ZN22ExhaustibleBlockDeviceC1EP11BlockDevicej) refers to .\build\exhaustibleblockdevice.o(.constdata__ZTV22ExhaustibleBlockDevice) for vtable for ExhaustibleBlockDevice
    .\build\exhaustibleblockdevice.o(i._ZN22ExhaustibleBlockDeviceD0Ev) refers to .\build\exhaustibleblockdevice.o(i._ZN22ExhaustibleBlockDeviceD1Ev) for ExhaustibleBlockDevice::~ExhaustibleBlockDevice()
    .\build\exhaustibleblockdevice.o(i._ZN22ExhaustibleBlockDeviceD0Ev) refers to .\build\mbed_retarget.o(i._ZdlPv) for operator delete (void*)
    .\build\exhaustibleblockdevice.o(i._ZN22ExhaustibleBlockDeviceD1Ev) refers to .\build\mbed_retarget.o(i._ZdaPv) for operator delete[] (void*)
    .\build\exhaustibleblockdevice.o(i._ZN22ExhaustibleBlockDeviceD1Ev) refers to .\build\exhaustibleblockdevice.o(.constdata__ZTV22ExhaustibleBlockDevice) for vtable for ExhaustibleBlockDevice
    .\build\exhaustibleblockdevice.o(.ARM.exidx) refers to .\build\exhaustibleblockdevice.o(i._ZN22ExhaustibleBlockDeviceC1EP11BlockDevicej) for i._ZN22ExhaustibleBlockDeviceC1EP11BlockDevicej
    .\build\exhaustibleblockdevice.o(.ARM.exidx) refers to .\build\exhaustibleblockdevice.o(i._ZN22ExhaustibleBlockDeviceD1Ev) for i._ZN22ExhaustibleBlockDeviceD1Ev
    .\build\exhaustibleblockdevice.o(.ARM.exidx) refers to .\build\exhaustibleblockdevice.o(i._ZN22ExhaustibleBlockDeviceD0Ev) for i._ZN22ExhaustibleBlockDeviceD0Ev
    .\build\exhaustibleblockdevice.o(.ARM.exidx) refers to .\build\exhaustibleblockdevice.o(i._ZN22ExhaustibleBlockDevice4initEv) for i._ZN22ExhaustibleBlockDevice4initEv
    .\build\exhaustibleblockdevice.o(.ARM.exidx) refers to .\build\exhaustibleblockdevice.o(i._ZN22ExhaustibleBlockDevice6deinitEv) for i._ZN22ExhaustibleBlockDevice6deinitEv
    .\build\exhaustibleblockdevice.o(.ARM.exidx) refers to .\build\exhaustibleblockdevice.o(i._ZN22ExhaustibleBlockDevice4syncEv) for i._ZN22ExhaustibleBlockDevice4syncEv
    .\build\exhaustibleblockdevice.o(.ARM.exidx) refers to .\build\exhaustibleblockdevice.o(i._ZN22ExhaustibleBlockDevice4readEPvyy) for i._ZN22ExhaustibleBlockDevice4readEPvyy
    .\build\exhaustibleblockdevice.o(.ARM.exidx) refers to .\build\exhaustibleblockdevice.o(i._ZN22ExhaustibleBlockDevice7programEPKvyy) for i._ZN22ExhaustibleBlockDevice7programEPKvyy
    .\build\exhaustibleblockdevice.o(.ARM.exidx) refers to .\build\exhaustibleblockdevice.o(i._ZN22ExhaustibleBlockDevice5eraseEyy) for i._ZN22ExhaustibleBlockDevice5eraseEyy
    .\build\exhaustibleblockdevice.o(.ARM.exidx) refers to .\build\exhaustibleblockdevice.o(i._ZNK22ExhaustibleBlockDevice13get_read_sizeEv) for i._ZNK22ExhaustibleBlockDevice13get_read_sizeEv
    .\build\exhaustibleblockdevice.o(.ARM.exidx) refers to .\build\exhaustibleblockdevice.o(i._ZNK22ExhaustibleBlockDevice16get_program_sizeEv) for i._ZNK22ExhaustibleBlockDevice16get_program_sizeEv
    .\build\exhaustibleblockdevice.o(.ARM.exidx) refers to .\build\exhaustibleblockdevice.o(i._ZNK22ExhaustibleBlockDevice14get_erase_sizeEv) for i._ZNK22ExhaustibleBlockDevice14get_erase_sizeEv
    .\build\exhaustibleblockdevice.o(.ARM.exidx) refers to .\build\exhaustibleblockdevice.o(i._ZNK22ExhaustibleBlockDevice15get_erase_valueEv) for i._ZNK22ExhaustibleBlockDevice15get_erase_valueEv
    .\build\exhaustibleblockdevice.o(.ARM.exidx) refers to .\build\exhaustibleblockdevice.o(i._ZNK22ExhaustibleBlockDevice4sizeEv) for i._ZNK22ExhaustibleBlockDevice4sizeEv
    .\build\fatfilesystem.o(i._Z15fat_path_prefixiPKc) refers to D:\Keil_v5\ARM\ARMCC\Bin\..\lib\armlib\c_w.l(strlen.o)(.text) for strlen
    .\build\fatfilesystem.o(i._Z15fat_path_prefixiPKc) refers to .\build\mbed_retarget.o(i._Znaj) for operator new[] (unsigned)
    .\build\fatfilesystem.o(i._Z15fat_path_prefixiPKc) refers to D:\Keil_v5\ARM\ARMCC\Bin\..\lib\armlib\c_w.l(strcpy.o)(.text) for strcpy
    .\build\fatfilesystem.o(i._Z15fat_path_prefixiPKc) refers to .\build\fatfilesystem.o(t._ZN4mbed8CallbackIFvPKcEEC1EPS3_) for mbed::Callback<void(const char*)>::Callback(void(*)(const char*))
    .\build\fatfilesystem.o(i._Z15fat_path_prefixiPKc) refers to .\build\fatfilesystem.o(t._ZN8DeferredIPKcEC1ES1_N4mbed8CallbackIFvS1_EEE) for Deferred<const char*>::Deferred(const char*, mbed::Callback<void(const char*)>)
    .\build\fatfilesystem.o(i._Z15fat_path_prefixiPKc) refers to .\build\fatfilesystem.o(t._ZN4mbed8CallbackIFvPKcEED1Ev) for mbed::Callback<void(const char*)>::~Callback()
    .\build\fatfilesystem.o(i._Z15fat_path_prefixiPKc) refers to .\build\fatfilesystem.o(i._Z8dodeletePKc) for dodelete(const char*)
    .\build\fatfilesystem.o(i._Z20disk_get_sector_sizeh) refers to .\build\mbed_assert.o(i.mbed_assert_internal) for mbed_assert_internal
    .\build\fatfilesystem.o(i._Z20disk_get_sector_sizeh) refers to .\build\fatfilesystem.o(.bss) for .bss
    .\build\fatfilesystem.o(i._Z21disk_get_sector_counth) refers to .\build\fatfilesystem.o(i._Z20disk_get_sector_sizeh) for disk_get_sector_size(unsigned char)
    .\build\fatfilesystem.o(i._Z21disk_get_sector_counth) refers to D:\Keil_v5\ARM\ARMCC\Bin\..\lib\armlib\c_w.l(lludivv7m.o)(.text) for __aeabi_uldivmod
    .\build\fatfilesystem.o(i._Z21disk_get_sector_counth) refers to .\build\mbed_assert.o(i.mbed_assert_internal) for mbed_assert_internal
    .\build\fatfilesystem.o(i._Z21disk_get_sector_counth) refers to .\build\fatfilesystem.o(.bss) for .bss
    .\build\fatfilesystem.o(i._Z8debug_ifiPKcz) refers to D:\Keil_v5\ARM\ARMCC\Bin\..\lib\armlib\c_w.l(c89vfprintf.o)(.text) for __c89vfprintf
    .\build\fatfilesystem.o(i._Z8debug_ifiPKcz) refers to D:\Keil_v5\ARM\ARMCC\Bin\..\lib\armlib\c_w.l(stdio_streams.o)(.bss) for __stderr
    .\build\fatfilesystem.o(i._Z8dodeletePKc) refers to .\build\mbed_retarget.o(i._ZdaPv) for operator delete[] (void*)
    .\build\fatfilesystem.o(i._ZN13FATFileSystem10dir_rewindEPv) refers to .\build\ff.o(i.f_readdir) for f_readdir
    .\build\fatfilesystem.o(i._ZN13FATFileSystem10file_closeEPv) refers to .\build\ff.o(i.f_close) for f_close
    .\build\fatfilesystem.o(i._ZN13FATFileSystem10file_closeEPv) refers to .\build\mbed_retarget.o(i._ZdlPv) for operator delete (void*)
    .\build\fatfilesystem.o(i._ZN13FATFileSystem10file_closeEPv) refers to .\build\fatfilesystem.o(i._Z15fat_error_remap7FRESULT) for fat_error_remap(FRESULT)
    .\build\fatfilesystem.o(i._ZN13FATFileSystem10file_writeEPvPKvj) refers to .\build\ff.o(i.f_write) for f_write
    .\build\fatfilesystem.o(i._ZN13FATFileSystem10file_writeEPvPKvj) refers to .\build\fatfilesystem.o(i._Z8debug_ifiPKcz) for debug_if(int, const char*, ...)
    .\build\fatfilesystem.o(i._ZN13FATFileSystem10file_writeEPvPKvj) refers to .\build\fatfilesystem.o(i._Z15fat_error_remap7FRESULT) for fat_error_remap(FRESULT)
    .\build\fatfilesystem.o(i._ZN13FATFileSystem4lockEv) refers to .\build\mbed_retarget.o(t._ZN12SingletonPtrIN4rtos5MutexEEptEv) for SingletonPtr<rtos::Mutex>::operator ->()
    .\build\fatfilesystem.o(i._ZN13FATFileSystem4lockEv) refers to .\build\mutex.o(i._ZN4rtos5Mutex4lockEj) for rtos::Mutex::lock(unsigned)
    .\build\fatfilesystem.o(i._ZN13FATFileSystem4lockEv) refers to .\build\fatfilesystem.o(.bss) for .bss
    .\build\fatfilesystem.o(i._ZN13FATFileSystem4statEPKcP4stat) refers to .\build\fatfilesystem.o(i._Z15fat_path_prefixiPKc) for fat_path_prefix(int, const char*)
    .\build\fatfilesystem.o(i._ZN13FATFileSystem4statEPKcP4stat) refers to D:\Keil_v5\ARM\ARMCC\Bin\..\lib\armlib\c_w.l(rt_memclr_w.o)(.text) for __aeabi_memclr4
    .\build\fatfilesystem.o(i._ZN13FATFileSystem4statEPKcP4stat) refers to .\build\ff.o(i.f_stat) for f_stat
    .\build\fatfilesystem.o(i._ZN13FATFileSystem4statEPKcP4stat) refers to .\build\fatfilesystem.o(i._Z15fat_error_remap7FRESULT) for fat_error_remap(FRESULT)
    .\build\fatfilesystem.o(i._ZN13FATFileSystem4statEPKcP4stat) refers to .\build\fatfilesystem.o(t._ZN8DeferredIPKcED1Ev) for Deferred<const char*>::~Deferred()
    .\build\fatfilesystem.o(i._ZN13FATFileSystem5mkdirEPKcj) refers to .\build\fatfilesystem.o(i._Z15fat_path_prefixiPKc) for fat_path_prefix(int, const char*)
    .\build\fatfilesystem.o(i._ZN13FATFileSystem5mkdirEPKcj) refers to .\build\ff.o(i.f_mkdir) for f_mkdir
    .\build\fatfilesystem.o(i._ZN13FATFileSystem5mkdirEPKcj) refers to .\build\fatfilesystem.o(i._Z8debug_ifiPKcz) for debug_if(int, const char*, ...)
    .\build\fatfilesystem.o(i._ZN13FATFileSystem5mkdirEPKcj) refers to .\build\fatfilesystem.o(i._Z15fat_error_remap7FRESULT) for fat_error_remap(FRESULT)
    .\build\fatfilesystem.o(i._ZN13FATFileSystem5mkdirEPKcj) refers to .\build\fatfilesystem.o(t._ZN8DeferredIPKcED1Ev) for Deferred<const char*>::~Deferred()
    .\build\fatfilesystem.o(i._ZN13FATFileSystem5mountEP11BlockDeviceb) refers to .\build\filebase.o(i._ZN4mbed8FileBase7getNameEv) for mbed::FileBase::getName()
    .\build\fatfilesystem.o(i._ZN13FATFileSystem5mountEP11BlockDeviceb) refers to .\build\fatfilesystem.o(i._Z8debug_ifiPKcz) for debug_if(int, const char*, ...)
    .\build\fatfilesystem.o(i._ZN13FATFileSystem5mountEP11BlockDeviceb) refers to .\build\ff.o(i.f_mount) for f_mount
    .\build\fatfilesystem.o(i._ZN13FATFileSystem5mountEP11BlockDeviceb) refers to .\build\fatfilesystem.o(i._Z15fat_error_remap7FRESULT) for fat_error_remap(FRESULT)
    .\build\fatfilesystem.o(i._ZN13FATFileSystem5mountEP11BlockDeviceb) refers to .\build\fatfilesystem.o(.bss) for .bss
    .\build\fatfilesystem.o(i._ZN13FATFileSystem6formatEP11BlockDevicey) refers to .\build\fatfilesystem.o(i._ZN13FATFileSystemC1EPKcP11BlockDevice) for FATFileSystem::FATFileSystem(const char*, BlockDevice*)
    .\build\fatfilesystem.o(i._ZN13FATFileSystem6formatEP11BlockDevicey) refers to .\build\fatfilesystem.o(i._ZN13FATFileSystem5mountEP11BlockDeviceb) for FATFileSystem::mount(BlockDevice*, bool)
    .\build\fatfilesystem.o(i._ZN13FATFileSystem6formatEP11BlockDevicey) refers to .\build\fatfilesystem.o(i._ZN13FATFileSystemD1Ev) for FATFileSystem::~FATFileSystem()
    .\build\fatfilesystem.o(i._ZN13FATFileSystem6formatEP11BlockDevicey) refers to .\build\fatfilesystem.o(i._ZN13FATFileSystem4lockEv) for FATFileSystem::lock()
    .\build\fatfilesystem.o(i._ZN13FATFileSystem6formatEP11BlockDevicey) refers to .\build\ff.o(i.f_mkfs) for f_mkfs
    .\build\fatfilesystem.o(i._ZN13FATFileSystem6formatEP11BlockDevicey) refers to .\build\fatfilesystem.o(i._ZN13FATFileSystem6unlockEv) for FATFileSystem::unlock()
    .\build\fatfilesystem.o(i._ZN13FATFileSystem6formatEP11BlockDevicey) refers to .\build\fatfilesystem.o(i._Z15fat_error_remap7FRESULT) for fat_error_remap(FRESULT)
    .\build\fatfilesystem.o(i._ZN13FATFileSystem6formatEP11BlockDevicey) refers to .\build\fatfilesystem.o(i._ZN13FATFileSystem7unmountEv) for FATFileSystem::unmount()
    .\build\fatfilesystem.o(i._ZN13FATFileSystem6removeEPKc) refers to .\build\fatfilesystem.o(i._Z15fat_path_prefixiPKc) for fat_path_prefix(int, const char*)
    .\build\fatfilesystem.o(i._ZN13FATFileSystem6removeEPKc) refers to .\build\ff.o(i.f_unlink) for f_unlink
    .\build\fatfilesystem.o(i._ZN13FATFileSystem6removeEPKc) refers to .\build\fatfilesystem.o(i._Z8debug_ifiPKcz) for debug_if(int, const char*, ...)
    .\build\fatfilesystem.o(i._ZN13FATFileSystem6removeEPKc) refers to .\build\fatfilesystem.o(i._Z15fat_error_remap7FRESULT) for fat_error_remap(FRESULT)
    .\build\fatfilesystem.o(i._ZN13FATFileSystem6removeEPKc) refers to .\build\fatfilesystem.o(t._ZN8DeferredIPKcED1Ev) for Deferred<const char*>::~Deferred()
    .\build\fatfilesystem.o(i._ZN13FATFileSystem6renameEPKcS1_) refers to .\build\fatfilesystem.o(i._Z15fat_path_prefixiPKc) for fat_path_prefix(int, const char*)
    .\build\fatfilesystem.o(i._ZN13FATFileSystem6renameEPKcS1_) refers to .\build\ff.o(i.f_rename) for f_rename
    .\build\fatfilesystem.o(i._ZN13FATFileSystem6renameEPKcS1_) refers to .\build\fatfilesystem.o(i._Z8debug_ifiPKcz) for debug_if(int, const char*, ...)
    .\build\fatfilesystem.o(i._ZN13FATFileSystem6renameEPKcS1_) refers to .\build\fatfilesystem.o(i._Z15fat_error_remap7FRESULT) for fat_error_remap(FRESULT)
    .\build\fatfilesystem.o(i._ZN13FATFileSystem6renameEPKcS1_) refers to .\build\fatfilesystem.o(t._ZN8DeferredIPKcED1Ev) for Deferred<const char*>::~Deferred()
    .\build\fatfilesystem.o(i._ZN13FATFileSystem6unlockEv) refers to .\build\mbed_retarget.o(t._ZN12SingletonPtrIN4rtos5MutexEEptEv) for SingletonPtr<rtos::Mutex>::operator ->()
    .\build\fatfilesystem.o(i._ZN13FATFileSystem6unlockEv) refers to .\build\mutex.o(i._ZN4rtos5Mutex6unlockEv) for rtos::Mutex::unlock()
    .\build\fatfilesystem.o(i._ZN13FATFileSystem6unlockEv) refers to .\build\fatfilesystem.o(.bss) for .bss
    .\build\fatfilesystem.o(i._ZN13FATFileSystem7statvfsEPKcP7statvfs) refers to D:\Keil_v5\ARM\ARMCC\Bin\..\lib\armlib\c_w.l(rt_memclr_w.o)(.text) for __aeabi_memclr4
    .\build\fatfilesystem.o(i._ZN13FATFileSystem7statvfsEPKcP7statvfs) refers to .\build\ff.o(i.f_getfree) for f_getfree
    .\build\fatfilesystem.o(i._ZN13FATFileSystem7statvfsEPKcP7statvfs) refers to .\build\fatfilesystem.o(i._Z15fat_error_remap7FRESULT) for fat_error_remap(FRESULT)
    .\build\fatfilesystem.o(i._ZN13FATFileSystem7unmountEv) refers to .\build\ff.o(i.f_mount) for f_mount
    .\build\fatfilesystem.o(i._ZN13FATFileSystem7unmountEv) refers to .\build\fatfilesystem.o(i._Z15fat_error_remap7FRESULT) for fat_error_remap(FRESULT)
    .\build\fatfilesystem.o(i._ZN13FATFileSystem7unmountEv) refers to .\build\fatfilesystem.o(.bss) for .bss
    .\build\fatfilesystem.o(i._ZN13FATFileSystem8dir_openEPPvPKc) refers to .\build\mbed_retarget.o(i._Znwj) for operator new(unsigned)
    .\build\fatfilesystem.o(i._ZN13FATFileSystem8dir_openEPPvPKc) refers to .\build\fatfilesystem.o(i._Z15fat_path_prefixiPKc) for fat_path_prefix(int, const char*)
    .\build\fatfilesystem.o(i._ZN13FATFileSystem8dir_openEPPvPKc) refers to .\build\ff.o(i.f_opendir) for f_opendir
    .\build\fatfilesystem.o(i._ZN13FATFileSystem8dir_openEPPvPKc) refers to .\build\fatfilesystem.o(i._Z8debug_ifiPKcz) for debug_if(int, const char*, ...)
    .\build\fatfilesystem.o(i._ZN13FATFileSystem8dir_openEPPvPKc) refers to .\build\mbed_retarget.o(i._ZdlPv) for operator delete (void*)
    .\build\fatfilesystem.o(i._ZN13FATFileSystem8dir_openEPPvPKc) refers to .\build\fatfilesystem.o(i._Z15fat_error_remap7FRESULT) for fat_error_remap(FRESULT)
    .\build\fatfilesystem.o(i._ZN13FATFileSystem8dir_openEPPvPKc) refers to .\build\fatfilesystem.o(t._ZN8DeferredIPKcED1Ev) for Deferred<const char*>::~Deferred()
    .\build\fatfilesystem.o(i._ZN13FATFileSystem8dir_readEPvP6dirent) refers to .\build\ff.o(i.f_readdir) for f_readdir
    .\build\fatfilesystem.o(i._ZN13FATFileSystem8dir_readEPvP6dirent) refers to .\build\fatfilesystem.o(i._Z15fat_error_remap7FRESULT) for fat_error_remap(FRESULT)
    .\build\fatfilesystem.o(i._ZN13FATFileSystem8dir_readEPvP6dirent) refers to D:\Keil_v5\ARM\ARMCC\Bin\..\lib\armlib\c_w.l(strncpy.o)(.text) for strncpy
    .\build\fatfilesystem.o(i._ZN13FATFileSystem8dir_seekEPvl) refers to .\build\ff.o(i.f_readdir) for f_readdir
    .\build\fatfilesystem.o(i._ZN13FATFileSystem8reformatEP11BlockDevicei) refers to .\build\fatfilesystem.o(i._ZN13FATFileSystem6formatEP11BlockDevicey) for FATFileSystem::format(BlockDevice*, unsigned long long)
    .\build\fatfilesystem.o(i._ZN13FATFileSystem8reformatEP11BlockDevicei) refers to .\build\fatfilesystem.o(.bss) for .bss
    .\build\fatfilesystem.o(i._ZN13FATFileSystem9dir_closeEPv) refers to .\build\ff.o(i.f_closedir) for f_closedir
    .\build\fatfilesystem.o(i._ZN13FATFileSystem9dir_closeEPv) refers to .\build\mbed_retarget.o(i._ZdlPv) for operator delete (void*)
    .\build\fatfilesystem.o(i._ZN13FATFileSystem9dir_closeEPv) refers to .\build\fatfilesystem.o(i._Z15fat_error_remap7FRESULT) for fat_error_remap(FRESULT)
    .\build\fatfilesystem.o(i._ZN13FATFileSystem9file_openEPPvPKci) refers to .\build\filebase.o(i._ZN4mbed8FileBase7getNameEv) for mbed::FileBase::getName()
    .\build\fatfilesystem.o(i._ZN13FATFileSystem9file_openEPPvPKci) refers to .\build\fatfilesystem.o(i._Z8debug_ifiPKcz) for debug_if(int, const char*, ...)
    .\build\fatfilesystem.o(i._ZN13FATFileSystem9file_openEPPvPKci) refers to .\build\mbed_retarget.o(i._Znwj) for operator new(unsigned)
    .\build\fatfilesystem.o(i._ZN13FATFileSystem9file_openEPPvPKci) refers to .\build\fatfilesystem.o(i._Z15fat_path_prefixiPKc) for fat_path_prefix(int, const char*)
    .\build\fatfilesystem.o(i._ZN13FATFileSystem9file_openEPPvPKci) refers to .\build\ff.o(i.f_open) for f_open
    .\build\fatfilesystem.o(i._ZN13FATFileSystem9file_openEPPvPKci) refers to .\build\mbed_retarget.o(i._ZdlPv) for operator delete (void*)
    .\build\fatfilesystem.o(i._ZN13FATFileSystem9file_openEPPvPKci) refers to .\build\fatfilesystem.o(i._Z15fat_error_remap7FRESULT) for fat_error_remap(FRESULT)
    .\build\fatfilesystem.o(i._ZN13FATFileSystem9file_openEPPvPKci) refers to .\build\fatfilesystem.o(t._ZN8DeferredIPKcED1Ev) for Deferred<const char*>::~Deferred()
    .\build\fatfilesystem.o(i._ZN13FATFileSystem9file_readEPvS0_j) refers to .\build\ff.o(i.f_read) for f_read
    .\build\fatfilesystem.o(i._ZN13FATFileSystem9file_readEPvS0_j) refers to .\build\fatfilesystem.o(i._Z8debug_ifiPKcz) for debug_if(int, const char*, ...)
    .\build\fatfilesystem.o(i._ZN13FATFileSystem9file_readEPvS0_j) refers to .\build\fatfilesystem.o(i._Z15fat_error_remap7FRESULT) for fat_error_remap(FRESULT)
    .\build\fatfilesystem.o(i._ZN13FATFileSystem9file_seekEPvli) refers to .\build\ff.o(i.f_lseek) for f_lseek
    .\build\fatfilesystem.o(i._ZN13FATFileSystem9file_seekEPvli) refers to .\build\fatfilesystem.o(i._Z8debug_ifiPKcz) for debug_if(int, const char*, ...)
    .\build\fatfilesystem.o(i._ZN13FATFileSystem9file_seekEPvli) refers to .\build\fatfilesystem.o(i._Z15fat_error_remap7FRESULT) for fat_error_remap(FRESULT)
    .\build\fatfilesystem.o(i._ZN13FATFileSystem9file_syncEPv) refers to .\build\ff.o(i.f_sync) for f_sync
    .\build\fatfilesystem.o(i._ZN13FATFileSystem9file_syncEPv) refers to .\build\fatfilesystem.o(i._Z8debug_ifiPKcz) for debug_if(int, const char*, ...)
    .\build\fatfilesystem.o(i._ZN13FATFileSystem9file_syncEPv) refers to .\build\fatfilesystem.o(i._Z15fat_error_remap7FRESULT) for fat_error_remap(FRESULT)
    .\build\fatfilesystem.o(i._ZN13FATFileSystemC1EPKcP11BlockDevice) refers to .\build\filesystem.o(i._ZN4mbed10FileSystemC2EPKc) for mbed::FileSystem::FileSystem__sub_object(const char*)
    .\build\fatfilesystem.o(i._ZN13FATFileSystemC1EPKcP11BlockDevice) refers to .\build\fatfilesystem.o(i._ZN13FATFileSystem5mountEP11BlockDevice) for FATFileSystem::mount(BlockDevice*)
    .\build\fatfilesystem.o(i._ZN13FATFileSystemC1EPKcP11BlockDevice) refers to .\build\fatfilesystem.o(.constdata__ZTV13FATFileSystem) for vtable for FATFileSystem
    .\build\fatfilesystem.o(i._ZN13FATFileSystemD0Ev) refers to .\build\fatfilesystem.o(i._ZN13FATFileSystemD1Ev) for FATFileSystem::~FATFileSystem()
    .\build\fatfilesystem.o(i._ZN13FATFileSystemD0Ev) refers to .\build\mbed_retarget.o(i._ZdlPv) for operator delete (void*)
    .\build\fatfilesystem.o(i._ZN13FATFileSystemD1Ev) refers to .\build\fatfilesystem.o(i._ZN13FATFileSystem7unmountEv) for FATFileSystem::unmount()
    .\build\fatfilesystem.o(i._ZN13FATFileSystemD1Ev) refers to .\build\filebase.o(i._ZN4mbed8FileBaseD1Ev) for mbed::FileBase::~FileBase()
    .\build\fatfilesystem.o(i._ZN13FATFileSystemD1Ev) refers to .\build\fatfilesystem.o(.constdata__ZTV13FATFileSystem) for vtable for FATFileSystem
    .\build\fatfilesystem.o(i._ZThn4_N13FATFileSystemD0Ev) refers to .\build\fatfilesystem.o(i._ZN13FATFileSystemD0Ev) for FATFileSystem::~FATFileSystem__deallocating()
    .\build\fatfilesystem.o(i._ZThn4_N13FATFileSystemD1Ev) refers to .\build\fatfilesystem.o(i._ZN13FATFileSystemD1Ev) for FATFileSystem::~FATFileSystem()
    .\build\fatfilesystem.o(i.disk_initialize) refers to .\build\fatfilesystem.o(i._Z8debug_ifiPKcz) for debug_if(int, const char*, ...)
    .\build\fatfilesystem.o(i.disk_initialize) refers to .\build\fatfilesystem.o(.bss) for .bss
    .\build\fatfilesystem.o(i.disk_ioctl) refers to .\build\fatfilesystem.o(i._Z8debug_ifiPKcz) for debug_if(int, const char*, ...)
    .\build\fatfilesystem.o(i.disk_ioctl) refers to .\build\fatfilesystem.o(i._Z21disk_get_sector_counth) for disk_get_sector_count(unsigned char)
    .\build\fatfilesystem.o(i.disk_ioctl) refers to .\build\fatfilesystem.o(i._Z20disk_get_sector_sizeh) for disk_get_sector_size(unsigned char)
    .\build\fatfilesystem.o(i.disk_ioctl) refers to .\build\fatfilesystem.o(.bss) for .bss
    .\build\fatfilesystem.o(i.disk_read) refers to .\build\fatfilesystem.o(i._Z8debug_ifiPKcz) for debug_if(int, const char*, ...)
    .\build\fatfilesystem.o(i.disk_read) refers to .\build\fatfilesystem.o(i._Z20disk_get_sector_sizeh) for disk_get_sector_size(unsigned char)
    .\build\fatfilesystem.o(i.disk_read) refers to .\build\fatfilesystem.o(.bss) for .bss
    .\build\fatfilesystem.o(i.disk_status) refers to .\build\fatfilesystem.o(i._Z8debug_ifiPKcz) for debug_if(int, const char*, ...)
    .\build\fatfilesystem.o(i.disk_write) refers to .\build\fatfilesystem.o(i._Z8debug_ifiPKcz) for debug_if(int, const char*, ...)
    .\build\fatfilesystem.o(i.disk_write) refers to .\build\fatfilesystem.o(i._Z20disk_get_sector_sizeh) for disk_get_sector_size(unsigned char)
    .\build\fatfilesystem.o(i.disk_write) refers to .\build\fatfilesystem.o(.bss) for .bss
    .\build\fatfilesystem.o(i.ff_memalloc) refers to D:\Keil_v5\ARM\ARMCC\Bin\..\lib\armlib\c_w.l(h1_alloc_mt.o)(.text) for malloc
    .\build\fatfilesystem.o(i.ff_memfree) refers to D:\Keil_v5\ARM\ARMCC\Bin\..\lib\armlib\c_w.l(h1_free_mt.o)(.text) for free
    .\build\fatfilesystem.o(i.get_fattime) refers to .\build\mbed_rtc_time.o(i.time) for time
    .\build\fatfilesystem.o(i.get_fattime) refers to D:\Keil_v5\ARM\ARMCC\Bin\..\lib\armlib\c_w.l(localtime.o)(.text) for localtime
    .\build\fatfilesystem.o(.ARM.exidx) refers to .\build\fatfilesystem.o(i._Z15fat_error_remap7FRESULT) for i._Z15fat_error_remap7FRESULT
    .\build\fatfilesystem.o(.ARM.exidx) refers to .\build\fatfilesystem.o(i._Z8dodeletePKc) for i._Z8dodeletePKc
    .\build\fatfilesystem.o(.ARM.exidx) refers to .\build\fatfilesystem.o(i._Z15fat_path_prefixiPKc) for i._Z15fat_path_prefixiPKc
    .\build\fatfilesystem.o(.ARM.exidx) refers to .\build\fatfilesystem.o(i.get_fattime) for i.get_fattime
    .\build\fatfilesystem.o(.ARM.exidx) refers to .\build\fatfilesystem.o(i.ff_memalloc) for i.ff_memalloc
    .\build\fatfilesystem.o(.ARM.exidx) refers to .\build\fatfilesystem.o(i.ff_memfree) for i.ff_memfree
    .\build\fatfilesystem.o(.ARM.exidx) refers to .\build\fatfilesystem.o(i._Z20disk_get_sector_sizeh) for i._Z20disk_get_sector_sizeh
    .\build\fatfilesystem.o(.ARM.exidx) refers to .\build\fatfilesystem.o(i._Z21disk_get_sector_counth) for i._Z21disk_get_sector_counth
    .\build\fatfilesystem.o(.ARM.exidx) refers to .\build\fatfilesystem.o(i.disk_status) for i.disk_status
    .\build\fatfilesystem.o(.ARM.exidx) refers to .\build\fatfilesystem.o(i.disk_initialize) for i.disk_initialize
    .\build\fatfilesystem.o(.ARM.exidx) refers to .\build\fatfilesystem.o(i.disk_read) for i.disk_read
    .\build\fatfilesystem.o(.ARM.exidx) refers to .\build\fatfilesystem.o(i.disk_write) for i.disk_write
    .\build\fatfilesystem.o(.ARM.exidx) refers to .\build\fatfilesystem.o(i.disk_ioctl) for i.disk_ioctl
    .\build\fatfilesystem.o(.ARM.exidx) refers to .\build\fatfilesystem.o(i._ZN13FATFileSystem5mountEP11BlockDevice) for i._ZN13FATFileSystem5mountEP11BlockDevice
    .\build\fatfilesystem.o(.ARM.exidx) refers to .\build\fatfilesystem.o(i._ZN13FATFileSystemC1EPKcP11BlockDevice) for i._ZN13FATFileSystemC1EPKcP11BlockDevice
    .\build\fatfilesystem.o(.ARM.exidx) refers to .\build\fatfilesystem.o(i._ZN13FATFileSystem7unmountEv) for i._ZN13FATFileSystem7unmountEv
    .\build\fatfilesystem.o(.ARM.exidx) refers to .\build\fatfilesystem.o(i._ZN13FATFileSystemD1Ev) for i._ZN13FATFileSystemD1Ev
    .\build\fatfilesystem.o(.ARM.exidx) refers to .\build\fatfilesystem.o(i._ZN13FATFileSystemD0Ev) for i._ZN13FATFileSystemD0Ev
    .\build\fatfilesystem.o(.ARM.exidx) refers to .\build\fatfilesystem.o(i._ZThn4_N13FATFileSystemD0Ev) for i._ZThn4_N13FATFileSystemD0Ev
    .\build\fatfilesystem.o(.ARM.exidx) refers to .\build\fatfilesystem.o(i._ZThn4_N13FATFileSystemD1Ev) for i._ZThn4_N13FATFileSystemD1Ev
    .\build\fatfilesystem.o(.ARM.exidx) refers to .\build\fatfilesystem.o(i._ZN13FATFileSystem6unlockEv) for i._ZN13FATFileSystem6unlockEv
    .\build\fatfilesystem.o(.ARM.exidx) refers to .\build\fatfilesystem.o(i._ZN13FATFileSystem4lockEv) for i._ZN13FATFileSystem4lockEv
    .\build\fatfilesystem.o(.ARM.exidx) refers to .\build\fatfilesystem.o(i._ZN13FATFileSystem5mountEP11BlockDeviceb) for i._ZN13FATFileSystem5mountEP11BlockDeviceb
    .\build\fatfilesystem.o(.ARM.exidx) refers to .\build\fatfilesystem.o(i._ZN13FATFileSystem6formatEP11BlockDevicey) for i._ZN13FATFileSystem6formatEP11BlockDevicey
    .\build\fatfilesystem.o(.ARM.exidx) refers to .\build\fatfilesystem.o(i._ZN13FATFileSystem8reformatEP11BlockDevicei) for i._ZN13FATFileSystem8reformatEP11BlockDevicei
    .\build\fatfilesystem.o(.ARM.exidx) refers to .\build\fatfilesystem.o(i._ZN13FATFileSystem6removeEPKc) for i._ZN13FATFileSystem6removeEPKc
    .\build\fatfilesystem.o(.ARM.exidx) refers to .\build\fatfilesystem.o(i._ZN13FATFileSystem6renameEPKcS1_) for i._ZN13FATFileSystem6renameEPKcS1_
    .\build\fatfilesystem.o(.ARM.exidx) refers to .\build\fatfilesystem.o(i._ZN13FATFileSystem4statEPKcP4stat) for i._ZN13FATFileSystem4statEPKcP4stat
    .\build\fatfilesystem.o(.ARM.exidx) refers to .\build\fatfilesystem.o(i._ZN13FATFileSystem5mkdirEPKcj) for i._ZN13FATFileSystem5mkdirEPKcj
    .\build\fatfilesystem.o(.ARM.exidx) refers to .\build\fatfilesystem.o(i._ZN13FATFileSystem7statvfsEPKcP7statvfs) for i._ZN13FATFileSystem7statvfsEPKcP7statvfs
    .\build\fatfilesystem.o(.ARM.exidx) refers to .\build\fatfilesystem.o(i._ZN13FATFileSystem9file_openEPPvPKci) for i._ZN13FATFileSystem9file_openEPPvPKci
    .\build\fatfilesystem.o(.ARM.exidx) refers to .\build\fatfilesystem.o(i._ZN13FATFileSystem10file_closeEPv) for i._ZN13FATFileSystem10file_closeEPv
    .\build\fatfilesystem.o(.ARM.exidx) refers to .\build\fatfilesystem.o(i._ZN13FATFileSystem9file_readEPvS0_j) for i._ZN13FATFileSystem9file_readEPvS0_j
    .\build\fatfilesystem.o(.ARM.exidx) refers to .\build\fatfilesystem.o(i._ZN13FATFileSystem10file_writeEPvPKvj) for i._ZN13FATFileSystem10file_writeEPvPKvj
    .\build\fatfilesystem.o(.ARM.exidx) refers to .\build\fatfilesystem.o(i._ZN13FATFileSystem9file_syncEPv) for i._ZN13FATFileSystem9file_syncEPv
    .\build\fatfilesystem.o(.ARM.exidx) refers to .\build\fatfilesystem.o(i._ZN13FATFileSystem9file_seekEPvli) for i._ZN13FATFileSystem9file_seekEPvli
    .\build\fatfilesystem.o(.ARM.exidx) refers to .\build\fatfilesystem.o(i._ZN13FATFileSystem9file_tellEPv) for i._ZN13FATFileSystem9file_tellEPv
    .\build\fatfilesystem.o(.ARM.exidx) refers to .\build\fatfilesystem.o(i._ZN13FATFileSystem9file_sizeEPv) for i._ZN13FATFileSystem9file_sizeEPv
    .\build\fatfilesystem.o(.ARM.exidx) refers to .\build\fatfilesystem.o(i._ZN13FATFileSystem8dir_openEPPvPKc) for i._ZN13FATFileSystem8dir_openEPPvPKc
    .\build\fatfilesystem.o(.ARM.exidx) refers to .\build\fatfilesystem.o(i._ZN13FATFileSystem9dir_closeEPv) for i._ZN13FATFileSystem9dir_closeEPv
    .\build\fatfilesystem.o(.ARM.exidx) refers to .\build\fatfilesystem.o(i._ZN13FATFileSystem8dir_readEPvP6dirent) for i._ZN13FATFileSystem8dir_readEPvP6dirent
    .\build\fatfilesystem.o(.ARM.exidx) refers to .\build\fatfilesystem.o(i._ZN13FATFileSystem8dir_seekEPvl) for i._ZN13FATFileSystem8dir_seekEPvl
    .\build\fatfilesystem.o(.ARM.exidx) refers to .\build\fatfilesystem.o(i._ZN13FATFileSystem8dir_tellEPv) for i._ZN13FATFileSystem8dir_tellEPv
    .\build\fatfilesystem.o(.ARM.exidx) refers to .\build\fatfilesystem.o(i._ZN13FATFileSystem10dir_rewindEPv) for i._ZN13FATFileSystem10dir_rewindEPv
    .\build\fatfilesystem.o(.ARM.exidx) refers to .\build\fatfilesystem.o(i._Z8debug_ifiPKcz) for i._Z8debug_ifiPKcz
    .\build\ff.o(i._Z10dir_removeP9FATFS_DIR) refers to .\build\ff.o(i._Z7dir_sdiP9FATFS_DIRm) for dir_sdi(FATFS_DIR*, unsigned long)
    .\build\ff.o(i._Z10dir_removeP9FATFS_DIR) refers to .\build\ff.o(i._Z11move_windowP5FATFSm) for move_window(FATFS*, unsigned long)
    .\build\ff.o(i._Z10dir_removeP9FATFS_DIR) refers to .\build\ff.o(i._Z8dir_nextP9FATFS_DIRi) for dir_next(FATFS_DIR*, int)
    .\build\ff.o(i._Z11create_nameP9FATFS_DIRPPKc) refers to .\build\ff.o(i._Z9tchar2uniPPKc) for tchar2uni(const char**)
    .\build\ff.o(i._Z11create_nameP9FATFS_DIRPPKc) refers to .\build\ff.o(i._Z7chk_chrPKci) for chk_chr(const char*, int)
    .\build\ff.o(i._Z11create_nameP9FATFS_DIRPPKc) refers to .\build\ff.o(i._Z7mem_setPvij) for mem_set(void*, int, unsigned)
    .\build\ff.o(i._Z11create_nameP9FATFS_DIRPPKc) refers to .\build\ffunicode.o(i.ff_uni2oem) for ff_uni2oem
    .\build\ff.o(i._Z11create_nameP9FATFS_DIRPPKc) refers to .\build\ff.o(.constdata) for .constdata
    .\build\ff.o(i._Z11find_volumePPKcPP5FATFSh) refers to .\build\ff.o(i._Z12get_ldnumberPPKc) for get_ldnumber(const char**)
    .\build\ff.o(i._Z11find_volumePPKcPP5FATFSh) refers to .\build\fatfilesystem.o(i.disk_status) for disk_status
    .\build\ff.o(i._Z11find_volumePPKcPP5FATFSh) refers to .\build\fatfilesystem.o(i.disk_initialize) for disk_initialize
    .\build\ff.o(i._Z11find_volumePPKcPP5FATFSh) refers to .\build\fatfilesystem.o(i.disk_ioctl) for disk_ioctl
    .\build\ff.o(i._Z11find_volumePPKcPP5FATFSh) refers to .\build\fatfilesystem.o(i.ff_memalloc) for ff_memalloc
    .\build\ff.o(i._Z11find_volumePPKcPP5FATFSh) refers to .\build\ff.o(i._Z8check_fsP5FATFSm) for check_fs(FATFS*, unsigned long)
    .\build\ff.o(i._Z11find_volumePPKcPP5FATFSh) refers to .\build\ff.o(i._Z8ld_dwordPKh) for ld_dword(const unsigned char*)
    .\build\ff.o(i._Z11find_volumePPKcPP5FATFSh) refers to .\build\ff.o(i._Z7ld_wordPKh) for ld_word(const unsigned char*)
    .\build\ff.o(i._Z11find_volumePPKcPP5FATFSh) refers to .\build\ff.o(i._Z11move_windowP5FATFSm) for move_window(FATFS*, unsigned long)
    .\build\ff.o(i._Z11find_volumePPKcPP5FATFSh) refers to .\build\ff.o(.bss) for .bss
    .\build\ff.o(i._Z11find_volumePPKcPP5FATFSh) refers to .\build\ff.o(.data) for .data
    .\build\ff.o(i._Z11follow_pathP9FATFS_DIRPKc) refers to .\build\ff.o(i._Z7dir_sdiP9FATFS_DIRm) for dir_sdi(FATFS_DIR*, unsigned long)
    .\build\ff.o(i._Z11follow_pathP9FATFS_DIRPKc) refers to .\build\ff.o(i._Z11create_nameP9FATFS_DIRPPKc) for create_name(FATFS_DIR*, const char**)
    .\build\ff.o(i._Z11follow_pathP9FATFS_DIRPKc) refers to .\build\ff.o(i._Z8dir_findP9FATFS_DIR) for dir_find(FATFS_DIR*)
    .\build\ff.o(i._Z11follow_pathP9FATFS_DIRPKc) refers to .\build\ff.o(i._Z8ld_clustP5FATFSPKh) for ld_clust(FATFS*, const unsigned char*)
    .\build\ff.o(i._Z11gen_numnamePhPKhPKtj) refers to .\build\ff.o(i._Z7mem_cpyPvPKvj) for mem_cpy(void*, const void*, unsigned)
    .\build\ff.o(i._Z11gen_numnamePhPKhPKtj) refers to .\build\ff.o(i._Z7dbc_1sth) for dbc_1st(unsigned char)
    .\build\ff.o(i._Z11move_windowP5FATFSm) refers to .\build\ff.o(i._Z11sync_windowP5FATFS) for sync_window(FATFS*)
    .\build\ff.o(i._Z11move_windowP5FATFSm) refers to .\build\fatfilesystem.o(i.disk_read) for disk_read
    .\build\ff.o(i._Z11sync_windowP5FATFS) refers to .\build\fatfilesystem.o(i.disk_write) for disk_write
    .\build\ff.o(i._Z12create_chainP7FFOBJIDm) refers to .\build\ff.o(i._Z7get_fatP7FFOBJIDm) for get_fat(FFOBJID*, unsigned long)
    .\build\ff.o(i._Z12create_chainP7FFOBJIDm) refers to .\build\ff.o(i._Z7put_fatP5FATFSmm) for put_fat(FATFS*, unsigned long, unsigned long)
    .\build\ff.o(i._Z12dir_registerP9FATFS_DIR) refers to .\build\ff.o(i._Z7mem_cpyPvPKvj) for mem_cpy(void*, const void*, unsigned)
    .\build\ff.o(i._Z12dir_registerP9FATFS_DIR) refers to .\build\ff.o(i._Z11gen_numnamePhPKhPKtj) for gen_numname(unsigned char*, const unsigned char*, const unsigned short*, unsigned)
    .\build\ff.o(i._Z12dir_registerP9FATFS_DIR) refers to .\build\ff.o(i._Z8dir_findP9FATFS_DIR) for dir_find(FATFS_DIR*)
    .\build\ff.o(i._Z12dir_registerP9FATFS_DIR) refers to .\build\ff.o(i._Z9dir_allocP9FATFS_DIRj) for dir_alloc(FATFS_DIR*, unsigned)
    .\build\ff.o(i._Z12dir_registerP9FATFS_DIR) refers to .\build\ff.o(i._Z7dir_sdiP9FATFS_DIRm) for dir_sdi(FATFS_DIR*, unsigned long)
    .\build\ff.o(i._Z12dir_registerP9FATFS_DIR) refers to .\build\ff.o(i._Z7sum_sfnPKh) for sum_sfn(const unsigned char*)
    .\build\ff.o(i._Z12dir_registerP9FATFS_DIR) refers to .\build\ff.o(i._Z11move_windowP5FATFSm) for move_window(FATFS*, unsigned long)
    .\build\ff.o(i._Z12dir_registerP9FATFS_DIR) refers to .\build\ff.o(i._Z7put_lfnPKtPhhh) for put_lfn(const unsigned short*, unsigned char*, unsigned char, unsigned char)
    .\build\ff.o(i._Z12dir_registerP9FATFS_DIR) refers to .\build\ff.o(i._Z8dir_nextP9FATFS_DIRi) for dir_next(FATFS_DIR*, int)
    .\build\ff.o(i._Z12dir_registerP9FATFS_DIR) refers to .\build\ff.o(i._Z7mem_setPvij) for mem_set(void*, int, unsigned)
    .\build\ff.o(i._Z12get_fileinfoP9FATFS_DIRP7FILINFO) refers to .\build\ff.o(i._Z7put_utfmPcj) for put_utf(unsigned long, char*, unsigned)
    .\build\ff.o(i._Z12get_fileinfoP9FATFS_DIRP7FILINFO) refers to .\build\ff.o(i._Z8ld_dwordPKh) for ld_dword(const unsigned char*)
    .\build\ff.o(i._Z12get_fileinfoP9FATFS_DIRP7FILINFO) refers to .\build\ff.o(i._Z7ld_wordPKh) for ld_word(const unsigned char*)
    .\build\ff.o(i._Z12get_ldnumberPPKc) refers to .\build\ff.o(.data) for .data
    .\build\ff.o(i._Z12remove_chainP7FFOBJIDmm) refers to .\build\ff.o(i._Z7put_fatP5FATFSmm) for put_fat(FATFS*, unsigned long, unsigned long)
    .\build\ff.o(i._Z12remove_chainP7FFOBJIDmm) refers to .\build\ff.o(i._Z7get_fatP7FFOBJIDm) for get_fat(FFOBJID*, unsigned long)
    .\build\ff.o(i._Z12remove_chainP7FFOBJIDmm) refers to .\build\ff.o(i._Z9clst2sectP5FATFSm) for clst2sect(FATFS*, unsigned long)
    .\build\ff.o(i._Z12remove_chainP7FFOBJIDmm) refers to .\build\fatfilesystem.o(i.disk_ioctl) for disk_ioctl
    .\build\ff.o(i._Z7cmp_lfnPKtPh) refers to .\build\ff.o(i._Z7ld_wordPKh) for ld_word(const unsigned char*)
    .\build\ff.o(i._Z7cmp_lfnPKtPh) refers to .\build\ffunicode.o(i.ff_wtoupper) for ff_wtoupper
    .\build\ff.o(i._Z7cmp_lfnPKtPh) refers to .\build\ff.o(.constdata) for .constdata
    .\build\ff.o(i._Z7dir_sdiP9FATFS_DIRm) refers to .\build\ff.o(i._Z7get_fatP7FFOBJIDm) for get_fat(FFOBJID*, unsigned long)
    .\build\ff.o(i._Z7dir_sdiP9FATFS_DIRm) refers to .\build\ff.o(i._Z9clst2sectP5FATFSm) for clst2sect(FATFS*, unsigned long)
    .\build\ff.o(i._Z7get_fatP7FFOBJIDm) refers to .\build\ff.o(i._Z11move_windowP5FATFSm) for move_window(FATFS*, unsigned long)
    .\build\ff.o(i._Z7get_fatP7FFOBJIDm) refers to .\build\ff.o(i._Z7ld_wordPKh) for ld_word(const unsigned char*)
    .\build\ff.o(i._Z7get_fatP7FFOBJIDm) refers to .\build\ff.o(i._Z8ld_dwordPKh) for ld_dword(const unsigned char*)
    .\build\ff.o(i._Z7put_fatP5FATFSmm) refers to .\build\ff.o(i._Z11move_windowP5FATFSm) for move_window(FATFS*, unsigned long)
    .\build\ff.o(i._Z7put_fatP5FATFSmm) refers to .\build\ff.o(i._Z7st_wordPht) for st_word(unsigned char*, unsigned short)
    .\build\ff.o(i._Z7put_fatP5FATFSmm) refers to .\build\ff.o(i._Z8ld_dwordPKh) for ld_dword(const unsigned char*)
    .\build\ff.o(i._Z7put_fatP5FATFSmm) refers to .\build\ff.o(i._Z8st_dwordPhm) for st_dword(unsigned char*, unsigned long)
    .\build\ff.o(i._Z7put_lfnPKtPhhh) refers to .\build\ff.o(i._Z7st_wordPht) for st_word(unsigned char*, unsigned short)
    .\build\ff.o(i._Z7put_lfnPKtPhhh) refers to .\build\ff.o(.constdata) for .constdata
    .\build\ff.o(i._Z7put_utfmPcj) refers to .\build\ffunicode.o(i.ff_uni2oem) for ff_uni2oem
    .\build\ff.o(i._Z7sync_fsP5FATFS) refers to .\build\ff.o(i._Z11sync_windowP5FATFS) for sync_window(FATFS*)
    .\build\ff.o(i._Z7sync_fsP5FATFS) refers to .\build\ff.o(i._Z7mem_setPvij) for mem_set(void*, int, unsigned)
    .\build\ff.o(i._Z7sync_fsP5FATFS) refers to .\build\ff.o(i._Z7st_wordPht) for st_word(unsigned char*, unsigned short)
    .\build\ff.o(i._Z7sync_fsP5FATFS) refers to .\build\ff.o(i._Z8st_dwordPhm) for st_dword(unsigned char*, unsigned long)
    .\build\ff.o(i._Z7sync_fsP5FATFS) refers to .\build\fatfilesystem.o(i.disk_write) for disk_write
    .\build\ff.o(i._Z7sync_fsP5FATFS) refers to .\build\fatfilesystem.o(i.disk_ioctl) for disk_ioctl
    .\build\ff.o(i._Z8check_fsP5FATFSm) refers to .\build\ff.o(i._Z11move_windowP5FATFSm) for move_window(FATFS*, unsigned long)
    .\build\ff.o(i._Z8check_fsP5FATFSm) refers to .\build\ff.o(i._Z7ld_wordPKh) for ld_word(const unsigned char*)
    .\build\ff.o(i._Z8check_fsP5FATFSm) refers to .\build\ff.o(i._Z7mem_cmpPKvS0_j) for mem_cmp(const void*, const void*, unsigned)
    .\build\ff.o(i._Z8dir_findP9FATFS_DIR) refers to .\build\ff.o(i._Z7dir_sdiP9FATFS_DIRm) for dir_sdi(FATFS_DIR*, unsigned long)
    .\build\ff.o(i._Z8dir_findP9FATFS_DIR) refers to .\build\ff.o(i._Z11move_windowP5FATFSm) for move_window(FATFS*, unsigned long)
    .\build\ff.o(i._Z8dir_findP9FATFS_DIR) refers to .\build\ff.o(i._Z7cmp_lfnPKtPh) for cmp_lfn(const unsigned short*, unsigned char*)
    .\build\ff.o(i._Z8dir_findP9FATFS_DIR) refers to .\build\ff.o(i._Z7sum_sfnPKh) for sum_sfn(const unsigned char*)
    .\build\ff.o(i._Z8dir_findP9FATFS_DIR) refers to .\build\ff.o(i._Z7mem_cmpPKvS0_j) for mem_cmp(const void*, const void*, unsigned)
    .\build\ff.o(i._Z8dir_findP9FATFS_DIR) refers to .\build\ff.o(i._Z8dir_nextP9FATFS_DIRi) for dir_next(FATFS_DIR*, int)
    .\build\ff.o(i._Z8dir_nextP9FATFS_DIRi) refers to .\build\ff.o(i._Z7get_fatP7FFOBJIDm) for get_fat(FFOBJID*, unsigned long)
    .\build\ff.o(i._Z8dir_nextP9FATFS_DIRi) refers to .\build\ff.o(i._Z12create_chainP7FFOBJIDm) for create_chain(FFOBJID*, unsigned long)
    .\build\ff.o(i._Z8dir_nextP9FATFS_DIRi) refers to .\build\ff.o(i._Z9dir_clearP5FATFSm) for dir_clear(FATFS*, unsigned long)
    .\build\ff.o(i._Z8dir_nextP9FATFS_DIRi) refers to .\build\ff.o(i._Z9clst2sectP5FATFSm) for clst2sect(FATFS*, unsigned long)
    .\build\ff.o(i._Z8dir_readP9FATFS_DIRi) refers to .\build\ff.o(i._Z11move_windowP5FATFSm) for move_window(FATFS*, unsigned long)
    .\build\ff.o(i._Z8dir_readP9FATFS_DIRi) refers to .\build\ff.o(i._Z8pick_lfnPtPh) for pick_lfn(unsigned short*, unsigned char*)
    .\build\ff.o(i._Z8dir_readP9FATFS_DIRi) refers to .\build\ff.o(i._Z8dir_nextP9FATFS_DIRi) for dir_next(FATFS_DIR*, int)
    .\build\ff.o(i._Z8dir_readP9FATFS_DIRi) refers to .\build\ff.o(i._Z7sum_sfnPKh) for sum_sfn(const unsigned char*)
    .\build\ff.o(i._Z8ld_clustP5FATFSPKh) refers to .\build\ff.o(i._Z7ld_wordPKh) for ld_word(const unsigned char*)
    .\build\ff.o(i._Z8pick_lfnPtPh) refers to .\build\ff.o(i._Z7ld_wordPKh) for ld_word(const unsigned char*)
    .\build\ff.o(i._Z8pick_lfnPtPh) refers to .\build\ff.o(.constdata) for .constdata
    .\build\ff.o(i._Z8st_clustP5FATFSPhm) refers to .\build\ff.o(i._Z7st_wordPht) for st_word(unsigned char*, unsigned short)
    .\build\ff.o(i._Z8validateP7FFOBJIDPP5FATFS) refers to .\build\fatfilesystem.o(i.disk_status) for disk_status
    .\build\ff.o(i._Z9dir_allocP9FATFS_DIRj) refers to .\build\ff.o(i._Z7dir_sdiP9FATFS_DIRm) for dir_sdi(FATFS_DIR*, unsigned long)
    .\build\ff.o(i._Z9dir_allocP9FATFS_DIRj) refers to .\build\ff.o(i._Z11move_windowP5FATFSm) for move_window(FATFS*, unsigned long)
    .\build\ff.o(i._Z9dir_allocP9FATFS_DIRj) refers to .\build\ff.o(i._Z8dir_nextP9FATFS_DIRi) for dir_next(FATFS_DIR*, int)
    .\build\ff.o(i._Z9dir_clearP5FATFSm) refers to .\build\ff.o(i._Z11sync_windowP5FATFS) for sync_window(FATFS*)
    .\build\ff.o(i._Z9dir_clearP5FATFSm) refers to .\build\ff.o(i._Z9clst2sectP5FATFSm) for clst2sect(FATFS*, unsigned long)
    .\build\ff.o(i._Z9dir_clearP5FATFSm) refers to .\build\ff.o(i._Z7mem_setPvij) for mem_set(void*, int, unsigned)
    .\build\ff.o(i._Z9dir_clearP5FATFSm) refers to .\build\fatfilesystem.o(i.ff_memalloc) for ff_memalloc
    .\build\ff.o(i._Z9dir_clearP5FATFSm) refers to .\build\fatfilesystem.o(i.disk_write) for disk_write
    .\build\ff.o(i._Z9dir_clearP5FATFSm) refers to .\build\fatfilesystem.o(i.ff_memfree) for ff_memfree
    .\build\ff.o(i._Z9tchar2uniPPKc) refers to .\build\ff.o(i._Z7dbc_1sth) for dbc_1st(unsigned char)
    .\build\ff.o(i._Z9tchar2uniPPKc) refers to .\build\ff.o(i._Z7dbc_2ndh) for dbc_2nd(unsigned char)
    .\build\ff.o(i._Z9tchar2uniPPKc) refers to .\build\ffunicode.o(i.ff_oem2uni) for ff_oem2uni
    .\build\ff.o(i.f_chdir) refers to .\build\ff.o(i._Z11find_volumePPKcPP5FATFSh) for find_volume(const char**, FATFS**, unsigned char)
    .\build\ff.o(i.f_chdir) refers to .\build\fatfilesystem.o(i.ff_memalloc) for ff_memalloc
    .\build\ff.o(i.f_chdir) refers to .\build\ff.o(i._Z11follow_pathP9FATFS_DIRPKc) for follow_path(FATFS_DIR*, const char*)
    .\build\ff.o(i.f_chdir) refers to .\build\ff.o(i._Z8ld_clustP5FATFSPKh) for ld_clust(FATFS*, const unsigned char*)
    .\build\ff.o(i.f_chdir) refers to .\build\fatfilesystem.o(i.ff_memfree) for ff_memfree
    .\build\ff.o(i.f_chdrive) refers to .\build\ff.o(i._Z12get_ldnumberPPKc) for get_ldnumber(const char**)
    .\build\ff.o(i.f_chdrive) refers to .\build\ff.o(.data) for .data
    .\build\ff.o(i.f_close) refers to .\build\ff.o(i.f_sync) for f_sync
    .\build\ff.o(i.f_close) refers to .\build\ff.o(i._Z8validateP7FFOBJIDPP5FATFS) for validate(FFOBJID*, FATFS**)
    .\build\ff.o(i.f_closedir) refers to .\build\ff.o(i._Z8validateP7FFOBJIDPP5FATFS) for validate(FFOBJID*, FATFS**)
    .\build\ff.o(i.f_getfree) refers to .\build\ff.o(i._Z11find_volumePPKcPP5FATFSh) for find_volume(const char**, FATFS**, unsigned char)
    .\build\ff.o(i.f_getfree) refers to .\build\ff.o(i._Z7get_fatP7FFOBJIDm) for get_fat(FFOBJID*, unsigned long)
    .\build\ff.o(i.f_getfree) refers to .\build\ff.o(i._Z11move_windowP5FATFSm) for move_window(FATFS*, unsigned long)
    .\build\ff.o(i.f_getfree) refers to .\build\ff.o(i._Z8ld_dwordPKh) for ld_dword(const unsigned char*)
    .\build\ff.o(i.f_getfree) refers to .\build\ff.o(i._Z7ld_wordPKh) for ld_word(const unsigned char*)
    .\build\ff.o(i.f_lseek) refers to .\build\ff.o(i._Z8validateP7FFOBJIDPP5FATFS) for validate(FFOBJID*, FATFS**)
    .\build\ff.o(i.f_lseek) refers to .\build\ff.o(i._Z12create_chainP7FFOBJIDm) for create_chain(FFOBJID*, unsigned long)
    .\build\ff.o(i.f_lseek) refers to .\build\ff.o(i._Z7get_fatP7FFOBJIDm) for get_fat(FFOBJID*, unsigned long)
    .\build\ff.o(i.f_lseek) refers to .\build\ff.o(i._Z9clst2sectP5FATFSm) for clst2sect(FATFS*, unsigned long)
    .\build\ff.o(i.f_mkdir) refers to .\build\ff.o(i._Z11find_volumePPKcPP5FATFSh) for find_volume(const char**, FATFS**, unsigned char)
    .\build\ff.o(i.f_mkdir) refers to .\build\fatfilesystem.o(i.ff_memalloc) for ff_memalloc
    .\build\ff.o(i.f_mkdir) refers to .\build\ff.o(i._Z11follow_pathP9FATFS_DIRPKc) for follow_path(FATFS_DIR*, const char*)
    .\build\ff.o(i.f_mkdir) refers to .\build\ff.o(i._Z12create_chainP7FFOBJIDm) for create_chain(FFOBJID*, unsigned long)
    .\build\ff.o(i.f_mkdir) refers to .\build\ff.o(i._Z11sync_windowP5FATFS) for sync_window(FATFS*)
    .\build\ff.o(i.f_mkdir) refers to .\build\fatfilesystem.o(i.get_fattime) for get_fattime
    .\build\ff.o(i.f_mkdir) refers to .\build\ff.o(i._Z9dir_clearP5FATFSm) for dir_clear(FATFS*, unsigned long)
    .\build\ff.o(i.f_mkdir) refers to .\build\ff.o(i._Z7mem_setPvij) for mem_set(void*, int, unsigned)
    .\build\ff.o(i.f_mkdir) refers to .\build\ff.o(i._Z8st_dwordPhm) for st_dword(unsigned char*, unsigned long)
    .\build\ff.o(i.f_mkdir) refers to .\build\ff.o(i._Z8st_clustP5FATFSPhm) for st_clust(FATFS*, unsigned char*, unsigned long)
    .\build\ff.o(i.f_mkdir) refers to .\build\ff.o(i._Z7mem_cpyPvPKvj) for mem_cpy(void*, const void*, unsigned)
    .\build\ff.o(i.f_mkdir) refers to .\build\ff.o(i._Z12dir_registerP9FATFS_DIR) for dir_register(FATFS_DIR*)
    .\build\ff.o(i.f_mkdir) refers to .\build\ff.o(i._Z12remove_chainP7FFOBJIDmm) for remove_chain(FFOBJID*, unsigned long, unsigned long)
    .\build\ff.o(i.f_mkdir) refers to .\build\fatfilesystem.o(i.ff_memfree) for ff_memfree
    .\build\ff.o(i.f_mkdir) refers to .\build\ff.o(i._Z7sync_fsP5FATFS) for sync_fs(FATFS*)
    .\build\ff.o(i.f_mkfs) refers to .\build\ff.o(i._Z12get_ldnumberPPKc) for get_ldnumber(const char**)
    .\build\ff.o(i.f_mkfs) refers to .\build\fatfilesystem.o(i.disk_initialize) for disk_initialize
    .\build\ff.o(i.f_mkfs) refers to .\build\fatfilesystem.o(i.disk_ioctl) for disk_ioctl
    .\build\ff.o(i.f_mkfs) refers to .\build\fatfilesystem.o(i.ff_memalloc) for ff_memalloc
    .\build\ff.o(i.f_mkfs) refers to .\build\fatfilesystem.o(i.ff_memfree) for ff_memfree
    .\build\ff.o(i.f_mkfs) refers to .\build\ff.o(i._Z7mem_setPvij) for mem_set(void*, int, unsigned)
    .\build\ff.o(i.f_mkfs) refers to .\build\ff.o(i._Z7mem_cpyPvPKvj) for mem_cpy(void*, const void*, unsigned)
    .\build\ff.o(i.f_mkfs) refers to .\build\ff.o(i._Z7st_wordPht) for st_word(unsigned char*, unsigned short)
    .\build\ff.o(i.f_mkfs) refers to .\build\ff.o(i._Z8st_dwordPhm) for st_dword(unsigned char*, unsigned long)
    .\build\ff.o(i.f_mkfs) refers to .\build\fatfilesystem.o(i.get_fattime) for get_fattime
    .\build\ff.o(i.f_mkfs) refers to .\build\ff.o(.bss) for .bss
    .\build\ff.o(i.f_mkfs) refers to .\build\ff.o(.constdata) for .constdata
    .\build\ff.o(i.f_mkfs) refers to .\build\fatfilesystem.o(i.disk_write) for disk_write
    .\build\ff.o(i.f_mount) refers to .\build\ff.o(i._Z12get_ldnumberPPKc) for get_ldnumber(const char**)
    .\build\ff.o(i.f_mount) refers to .\build\fatfilesystem.o(i.ff_memfree) for ff_memfree
    .\build\ff.o(i.f_mount) refers to .\build\ff.o(i._Z11find_volumePPKcPP5FATFSh) for find_volume(const char**, FATFS**, unsigned char)
    .\build\ff.o(i.f_mount) refers to .\build\ff.o(.bss) for .bss
    .\build\ff.o(i.f_open) refers to .\build\ff.o(i._Z11find_volumePPKcPP5FATFSh) for find_volume(const char**, FATFS**, unsigned char)
    .\build\ff.o(i.f_open) refers to .\build\fatfilesystem.o(i.ff_memalloc) for ff_memalloc
    .\build\ff.o(i.f_open) refers to .\build\ff.o(i._Z11follow_pathP9FATFS_DIRPKc) for follow_path(FATFS_DIR*, const char*)
    .\build\ff.o(i.f_open) refers to .\build\ff.o(i._Z12dir_registerP9FATFS_DIR) for dir_register(FATFS_DIR*)
    .\build\ff.o(i.f_open) refers to .\build\ff.o(i._Z8ld_clustP5FATFSPKh) for ld_clust(FATFS*, const unsigned char*)
    .\build\ff.o(i.f_open) refers to .\build\fatfilesystem.o(i.get_fattime) for get_fattime
    .\build\ff.o(i.f_open) refers to .\build\ff.o(i._Z8st_dwordPhm) for st_dword(unsigned char*, unsigned long)
    .\build\ff.o(i.f_open) refers to .\build\ff.o(i._Z8st_clustP5FATFSPhm) for st_clust(FATFS*, unsigned char*, unsigned long)
    .\build\ff.o(i.f_open) refers to .\build\ff.o(i._Z12remove_chainP7FFOBJIDmm) for remove_chain(FFOBJID*, unsigned long, unsigned long)
    .\build\ff.o(i.f_open) refers to .\build\ff.o(i._Z11move_windowP5FATFSm) for move_window(FATFS*, unsigned long)
    .\build\ff.o(i.f_open) refers to .\build\ff.o(i._Z8ld_dwordPKh) for ld_dword(const unsigned char*)
    .\build\ff.o(i.f_open) refers to .\build\ff.o(i._Z7get_fatP7FFOBJIDm) for get_fat(FFOBJID*, unsigned long)
    .\build\ff.o(i.f_open) refers to .\build\ff.o(i._Z9clst2sectP5FATFSm) for clst2sect(FATFS*, unsigned long)
    .\build\ff.o(i.f_open) refers to .\build\fatfilesystem.o(i.ff_memfree) for ff_memfree
    .\build\ff.o(i.f_opendir) refers to .\build\ff.o(i._Z11find_volumePPKcPP5FATFSh) for find_volume(const char**, FATFS**, unsigned char)
    .\build\ff.o(i.f_opendir) refers to .\build\fatfilesystem.o(i.ff_memalloc) for ff_memalloc
    .\build\ff.o(i.f_opendir) refers to .\build\ff.o(i._Z11follow_pathP9FATFS_DIRPKc) for follow_path(FATFS_DIR*, const char*)
    .\build\ff.o(i.f_opendir) refers to .\build\ff.o(i._Z8ld_clustP5FATFSPKh) for ld_clust(FATFS*, const unsigned char*)
    .\build\ff.o(i.f_opendir) refers to .\build\ff.o(i._Z7dir_sdiP9FATFS_DIRm) for dir_sdi(FATFS_DIR*, unsigned long)
    .\build\ff.o(i.f_opendir) refers to .\build\fatfilesystem.o(i.ff_memfree) for ff_memfree
    .\build\ff.o(i.f_read) refers to .\build\ff.o(i._Z8validateP7FFOBJIDPP5FATFS) for validate(FFOBJID*, FATFS**)
    .\build\ff.o(i.f_read) refers to .\build\ff.o(i._Z7get_fatP7FFOBJIDm) for get_fat(FFOBJID*, unsigned long)
    .\build\ff.o(i.f_read) refers to .\build\ff.o(i._Z9clst2sectP5FATFSm) for clst2sect(FATFS*, unsigned long)
    .\build\ff.o(i.f_read) refers to .\build\fatfilesystem.o(i.disk_read) for disk_read
    .\build\ff.o(i.f_read) refers to .\build\ff.o(i._Z7mem_cpyPvPKvj) for mem_cpy(void*, const void*, unsigned)
    .\build\ff.o(i.f_read) refers to .\build\ff.o(i._Z11move_windowP5FATFSm) for move_window(FATFS*, unsigned long)
    .\build\ff.o(i.f_readdir) refers to .\build\ff.o(i._Z8validateP7FFOBJIDPP5FATFS) for validate(FFOBJID*, FATFS**)
    .\build\ff.o(i.f_readdir) refers to .\build\fatfilesystem.o(i.ff_memalloc) for ff_memalloc
    .\build\ff.o(i.f_readdir) refers to .\build\ff.o(i._Z8dir_readP9FATFS_DIRi) for dir_read(FATFS_DIR*, int)
    .\build\ff.o(i.f_readdir) refers to .\build\ff.o(i._Z7dir_sdiP9FATFS_DIRm) for dir_sdi(FATFS_DIR*, unsigned long)
    .\build\ff.o(i.f_readdir) refers to .\build\ff.o(i._Z12get_fileinfoP9FATFS_DIRP7FILINFO) for get_fileinfo(FATFS_DIR*, FILINFO*)
    .\build\ff.o(i.f_readdir) refers to .\build\ff.o(i._Z8dir_nextP9FATFS_DIRi) for dir_next(FATFS_DIR*, int)
    .\build\ff.o(i.f_readdir) refers to .\build\fatfilesystem.o(i.ff_memfree) for ff_memfree
    .\build\ff.o(i.f_rename) refers to .\build\ff.o(i._Z12get_ldnumberPPKc) for get_ldnumber(const char**)
    .\build\ff.o(i.f_rename) refers to .\build\ff.o(i._Z11find_volumePPKcPP5FATFSh) for find_volume(const char**, FATFS**, unsigned char)
    .\build\ff.o(i.f_rename) refers to .\build\fatfilesystem.o(i.ff_memalloc) for ff_memalloc
    .\build\ff.o(i.f_rename) refers to .\build\ff.o(i._Z11follow_pathP9FATFS_DIRPKc) for follow_path(FATFS_DIR*, const char*)
    .\build\ff.o(i.f_rename) refers to .\build\ff.o(i._Z7mem_cpyPvPKvj) for mem_cpy(void*, const void*, unsigned)
    .\build\ff.o(i.f_rename) refers to .\build\ff.o(i._Z12dir_registerP9FATFS_DIR) for dir_register(FATFS_DIR*)
    .\build\ff.o(i.f_rename) refers to .\build\ff.o(i._Z8ld_clustP5FATFSPKh) for ld_clust(FATFS*, const unsigned char*)
    .\build\ff.o(i.f_rename) refers to .\build\ff.o(i._Z9clst2sectP5FATFSm) for clst2sect(FATFS*, unsigned long)
    .\build\ff.o(i.f_rename) refers to .\build\ff.o(i._Z11move_windowP5FATFSm) for move_window(FATFS*, unsigned long)
    .\build\ff.o(i.f_rename) refers to .\build\ff.o(i._Z8st_clustP5FATFSPhm) for st_clust(FATFS*, unsigned char*, unsigned long)
    .\build\ff.o(i.f_rename) refers to .\build\ff.o(i._Z10dir_removeP9FATFS_DIR) for dir_remove(FATFS_DIR*)
    .\build\ff.o(i.f_rename) refers to .\build\ff.o(i._Z7sync_fsP5FATFS) for sync_fs(FATFS*)
    .\build\ff.o(i.f_rename) refers to .\build\fatfilesystem.o(i.ff_memfree) for ff_memfree
    .\build\ff.o(i.f_stat) refers to .\build\ff.o(i._Z11find_volumePPKcPP5FATFSh) for find_volume(const char**, FATFS**, unsigned char)
    .\build\ff.o(i.f_stat) refers to .\build\fatfilesystem.o(i.ff_memalloc) for ff_memalloc
    .\build\ff.o(i.f_stat) refers to .\build\ff.o(i._Z11follow_pathP9FATFS_DIRPKc) for follow_path(FATFS_DIR*, const char*)
    .\build\ff.o(i.f_stat) refers to .\build\ff.o(i._Z12get_fileinfoP9FATFS_DIRP7FILINFO) for get_fileinfo(FATFS_DIR*, FILINFO*)
    .\build\ff.o(i.f_stat) refers to .\build\fatfilesystem.o(i.ff_memfree) for ff_memfree
    .\build\ff.o(i.f_sync) refers to .\build\ff.o(i._Z8validateP7FFOBJIDPP5FATFS) for validate(FFOBJID*, FATFS**)
    .\build\ff.o(i.f_sync) refers to .\build\fatfilesystem.o(i.get_fattime) for get_fattime
    .\build\ff.o(i.f_sync) refers to .\build\ff.o(i._Z11move_windowP5FATFSm) for move_window(FATFS*, unsigned long)
    .\build\ff.o(i.f_sync) refers to .\build\ff.o(i._Z8st_clustP5FATFSPhm) for st_clust(FATFS*, unsigned char*, unsigned long)
    .\build\ff.o(i.f_sync) refers to .\build\ff.o(i._Z8st_dwordPhm) for st_dword(unsigned char*, unsigned long)
    .\build\ff.o(i.f_sync) refers to .\build\ff.o(i._Z7st_wordPht) for st_word(unsigned char*, unsigned short)
    .\build\ff.o(i.f_sync) refers to .\build\ff.o(i._Z7sync_fsP5FATFS) for sync_fs(FATFS*)
    .\build\ff.o(i.f_truncate) refers to .\build\ff.o(i._Z8validateP7FFOBJIDPP5FATFS) for validate(FFOBJID*, FATFS**)
    .\build\ff.o(i.f_truncate) refers to .\build\ff.o(i._Z7get_fatP7FFOBJIDm) for get_fat(FFOBJID*, unsigned long)
    .\build\ff.o(i.f_truncate) refers to .\build\ff.o(i._Z12remove_chainP7FFOBJIDmm) for remove_chain(FFOBJID*, unsigned long, unsigned long)
    .\build\ff.o(i.f_unlink) refers to .\build\ff.o(i._Z11find_volumePPKcPP5FATFSh) for find_volume(const char**, FATFS**, unsigned char)
    .\build\ff.o(i.f_unlink) refers to .\build\fatfilesystem.o(i.ff_memalloc) for ff_memalloc
    .\build\ff.o(i.f_unlink) refers to .\build\ff.o(i._Z11follow_pathP9FATFS_DIRPKc) for follow_path(FATFS_DIR*, const char*)
    .\build\ff.o(i.f_unlink) refers to .\build\ff.o(i._Z8ld_clustP5FATFSPKh) for ld_clust(FATFS*, const unsigned char*)
    .\build\ff.o(i.f_unlink) refers to .\build\ff.o(i._Z7dir_sdiP9FATFS_DIRm) for dir_sdi(FATFS_DIR*, unsigned long)
    .\build\ff.o(i.f_unlink) refers to .\build\ff.o(i._Z8dir_readP9FATFS_DIRi) for dir_read(FATFS_DIR*, int)
    .\build\ff.o(i.f_unlink) refers to .\build\ff.o(i._Z10dir_removeP9FATFS_DIR) for dir_remove(FATFS_DIR*)
    .\build\ff.o(i.f_unlink) refers to .\build\ff.o(i._Z12remove_chainP7FFOBJIDmm) for remove_chain(FFOBJID*, unsigned long, unsigned long)
    .\build\ff.o(i.f_unlink) refers to .\build\ff.o(i._Z7sync_fsP5FATFS) for sync_fs(FATFS*)
    .\build\ff.o(i.f_unlink) refers to .\build\fatfilesystem.o(i.ff_memfree) for ff_memfree
    .\build\ff.o(i.f_write) refers to .\build\ff.o(i._Z8validateP7FFOBJIDPP5FATFS) for validate(FFOBJID*, FATFS**)
    .\build\ff.o(i.f_write) refers to .\build\ff.o(i._Z12create_chainP7FFOBJIDm) for create_chain(FFOBJID*, unsigned long)
    .\build\ff.o(i.f_write) refers to .\build\ff.o(i._Z11sync_windowP5FATFS) for sync_window(FATFS*)
    .\build\ff.o(i.f_write) refers to .\build\ff.o(i._Z9clst2sectP5FATFSm) for clst2sect(FATFS*, unsigned long)
    .\build\ff.o(i.f_write) refers to .\build\fatfilesystem.o(i.disk_write) for disk_write
    .\build\ff.o(i.f_write) refers to .\build\ff.o(i._Z7mem_cpyPvPKvj) for mem_cpy(void*, const void*, unsigned)
    .\build\ff.o(i.f_write) refers to .\build\ff.o(i._Z11move_windowP5FATFSm) for move_window(FATFS*, unsigned long)
    .\build\ff.o(i.f_write) refers to .\build\ff.o(i.f_sync) for f_sync
    .\build\ff.o(.ARM.exidx) refers to .\build\ff.o(i._Z7ld_wordPKh) for i._Z7ld_wordPKh
    .\build\ff.o(.ARM.exidx) refers to .\build\ff.o(i._Z8ld_dwordPKh) for i._Z8ld_dwordPKh
    .\build\ff.o(.ARM.exidx) refers to .\build\ff.o(i._Z7st_wordPht) for i._Z7st_wordPht
    .\build\ff.o(.ARM.exidx) refers to .\build\ff.o(i._Z8st_dwordPhm) for i._Z8st_dwordPhm
    .\build\ff.o(.ARM.exidx) refers to .\build\ff.o(i._Z7mem_cpyPvPKvj) for i._Z7mem_cpyPvPKvj
    .\build\ff.o(.ARM.exidx) refers to .\build\ff.o(i._Z7mem_setPvij) for i._Z7mem_setPvij
    .\build\ff.o(.ARM.exidx) refers to .\build\ff.o(i._Z7mem_cmpPKvS0_j) for i._Z7mem_cmpPKvS0_j
    .\build\ff.o(.ARM.exidx) refers to .\build\ff.o(i._Z7chk_chrPKci) for i._Z7chk_chrPKci
    .\build\ff.o(.ARM.exidx) refers to .\build\ff.o(i._Z7dbc_1sth) for i._Z7dbc_1sth
    .\build\ff.o(.ARM.exidx) refers to .\build\ff.o(i._Z7dbc_2ndh) for i._Z7dbc_2ndh
    .\build\ff.o(.ARM.exidx) refers to .\build\ff.o(i._Z9tchar2uniPPKc) for i._Z9tchar2uniPPKc
    .\build\ff.o(.ARM.exidx) refers to .\build\ff.o(i._Z7put_utfmPcj) for i._Z7put_utfmPcj
    .\build\ff.o(.ARM.exidx) refers to .\build\ff.o(i._Z11sync_windowP5FATFS) for i._Z11sync_windowP5FATFS
    .\build\ff.o(.ARM.exidx) refers to .\build\ff.o(i._Z11move_windowP5FATFSm) for i._Z11move_windowP5FATFSm
    .\build\ff.o(.ARM.exidx) refers to .\build\ff.o(i._Z7sync_fsP5FATFS) for i._Z7sync_fsP5FATFS
    .\build\ff.o(.ARM.exidx) refers to .\build\ff.o(i._Z9clst2sectP5FATFSm) for i._Z9clst2sectP5FATFSm
    .\build\ff.o(.ARM.exidx) refers to .\build\ff.o(i._Z7get_fatP7FFOBJIDm) for i._Z7get_fatP7FFOBJIDm
    .\build\ff.o(.ARM.exidx) refers to .\build\ff.o(i._Z7put_fatP5FATFSmm) for i._Z7put_fatP5FATFSmm
    .\build\ff.o(.ARM.exidx) refers to .\build\ff.o(i._Z12remove_chainP7FFOBJIDmm) for i._Z12remove_chainP7FFOBJIDmm
    .\build\ff.o(.ARM.exidx) refers to .\build\ff.o(i._Z12create_chainP7FFOBJIDm) for i._Z12create_chainP7FFOBJIDm
    .\build\ff.o(.ARM.exidx) refers to .\build\ff.o(i._Z9dir_clearP5FATFSm) for i._Z9dir_clearP5FATFSm
    .\build\ff.o(.ARM.exidx) refers to .\build\ff.o(i._Z7dir_sdiP9FATFS_DIRm) for i._Z7dir_sdiP9FATFS_DIRm
    .\build\ff.o(.ARM.exidx) refers to .\build\ff.o(i._Z8dir_nextP9FATFS_DIRi) for i._Z8dir_nextP9FATFS_DIRi
    .\build\ff.o(.ARM.exidx) refers to .\build\ff.o(i._Z9dir_allocP9FATFS_DIRj) for i._Z9dir_allocP9FATFS_DIRj
    .\build\ff.o(.ARM.exidx) refers to .\build\ff.o(i._Z8ld_clustP5FATFSPKh) for i._Z8ld_clustP5FATFSPKh
    .\build\ff.o(.ARM.exidx) refers to .\build\ff.o(i._Z8st_clustP5FATFSPhm) for i._Z8st_clustP5FATFSPhm
    .\build\ff.o(.ARM.exidx) refers to .\build\ff.o(i._Z7cmp_lfnPKtPh) for i._Z7cmp_lfnPKtPh
    .\build\ff.o(.ARM.exidx) refers to .\build\ff.o(i._Z8pick_lfnPtPh) for i._Z8pick_lfnPtPh
    .\build\ff.o(.ARM.exidx) refers to .\build\ff.o(i._Z7put_lfnPKtPhhh) for i._Z7put_lfnPKtPhhh
    .\build\ff.o(.ARM.exidx) refers to .\build\ff.o(i._Z11gen_numnamePhPKhPKtj) for i._Z11gen_numnamePhPKhPKtj
    .\build\ff.o(.ARM.exidx) refers to .\build\ff.o(i._Z7sum_sfnPKh) for i._Z7sum_sfnPKh
    .\build\ff.o(.ARM.exidx) refers to .\build\ff.o(i._Z8dir_readP9FATFS_DIRi) for i._Z8dir_readP9FATFS_DIRi
    .\build\ff.o(.ARM.exidx) refers to .\build\ff.o(i._Z8dir_findP9FATFS_DIR) for i._Z8dir_findP9FATFS_DIR
    .\build\ff.o(.ARM.exidx) refers to .\build\ff.o(i._Z12dir_registerP9FATFS_DIR) for i._Z12dir_registerP9FATFS_DIR
    .\build\ff.o(.ARM.exidx) refers to .\build\ff.o(i._Z10dir_removeP9FATFS_DIR) for i._Z10dir_removeP9FATFS_DIR
    .\build\ff.o(.ARM.exidx) refers to .\build\ff.o(i._Z12get_fileinfoP9FATFS_DIRP7FILINFO) for i._Z12get_fileinfoP9FATFS_DIRP7FILINFO
    .\build\ff.o(.ARM.exidx) refers to .\build\ff.o(i._Z11create_nameP9FATFS_DIRPPKc) for i._Z11create_nameP9FATFS_DIRPPKc
    .\build\ff.o(.ARM.exidx) refers to .\build\ff.o(i._Z11follow_pathP9FATFS_DIRPKc) for i._Z11follow_pathP9FATFS_DIRPKc
    .\build\ff.o(.ARM.exidx) refers to .\build\ff.o(i._Z12get_ldnumberPPKc) for i._Z12get_ldnumberPPKc
    .\build\ff.o(.ARM.exidx) refers to .\build\ff.o(i._Z8check_fsP5FATFSm) for i._Z8check_fsP5FATFSm
    .\build\ff.o(.ARM.exidx) refers to .\build\ff.o(i._Z11find_volumePPKcPP5FATFSh) for i._Z11find_volumePPKcPP5FATFSh
    .\build\ff.o(.ARM.exidx) refers to .\build\ff.o(i._Z8validateP7FFOBJIDPP5FATFS) for i._Z8validateP7FFOBJIDPP5FATFS
    .\build\ff.o(.ARM.exidx) refers to .\build\ff.o(i.f_mount) for i.f_mount
    .\build\ff.o(.ARM.exidx) refers to .\build\ff.o(i.f_open) for i.f_open
    .\build\ff.o(.ARM.exidx) refers to .\build\ff.o(i.f_read) for i.f_read
    .\build\ff.o(.ARM.exidx) refers to .\build\ff.o(i.f_sync) for i.f_sync
    .\build\ff.o(.ARM.exidx) refers to .\build\ff.o(i.f_write) for i.f_write
    .\build\ff.o(.ARM.exidx) refers to .\build\ff.o(i.f_close) for i.f_close
    .\build\ff.o(.ARM.exidx) refers to .\build\ff.o(i.f_chdrive) for i.f_chdrive
    .\build\ff.o(.ARM.exidx) refers to .\build\ff.o(i.f_chdir) for i.f_chdir
    .\build\ff.o(.ARM.exidx) refers to .\build\ff.o(i.f_lseek) for i.f_lseek
    .\build\ff.o(.ARM.exidx) refers to .\build\ff.o(i.f_opendir) for i.f_opendir
    .\build\ff.o(.ARM.exidx) refers to .\build\ff.o(i.f_closedir) for i.f_closedir
    .\build\ff.o(.ARM.exidx) refers to .\build\ff.o(i.f_readdir) for i.f_readdir
    .\build\ff.o(.ARM.exidx) refers to .\build\ff.o(i.f_stat) for i.f_stat
    .\build\ff.o(.ARM.exidx) refers to .\build\ff.o(i.f_getfree) for i.f_getfree
    .\build\ff.o(.ARM.exidx) refers to .\build\ff.o(i.f_truncate) for i.f_truncate
    .\build\ff.o(.ARM.exidx) refers to .\build\ff.o(i.f_unlink) for i.f_unlink
    .\build\ff.o(.ARM.exidx) refers to .\build\ff.o(i.f_mkdir) for i.f_mkdir
    .\build\ff.o(.ARM.exidx) refers to .\build\ff.o(i.f_rename) for i.f_rename
    .\build\ff.o(.ARM.exidx) refers to .\build\ff.o(i.f_mkfs) for i.f_mkfs
    .\build\ffunicode.o(i.ff_oem2uni) refers to .\build\ffunicode.o(.constdata) for .constdata
    .\build\ffunicode.o(i.ff_uni2oem) refers to .\build\ffunicode.o(.constdata) for .constdata
    .\build\ffunicode.o(i.ff_wtoupper) refers to .\build\ffunicode.o(.constdata) for .constdata
    .\build\ffunicode.o(.ARM.exidx) refers to .\build\ffunicode.o(i.ff_uni2oem) for i.ff_uni2oem
    .\build\ffunicode.o(.ARM.exidx) refers to .\build\ffunicode.o(i.ff_oem2uni) for i.ff_oem2uni
    .\build\ffunicode.o(.ARM.exidx) refers to .\build\ffunicode.o(i.ff_wtoupper) for i.ff_wtoupper
    .\build\file.o(i._ZN4mbed4File4readEPvj) refers to .\build\mbed_assert.o(i.mbed_assert_internal) for mbed_assert_internal
    .\build\file.o(i._ZN4mbed4File4seekEli) refers to .\build\mbed_assert.o(i.mbed_assert_internal) for mbed_assert_internal
    .\build\file.o(i._ZN4mbed4File4sizeEv) refers to .\build\mbed_assert.o(i.mbed_assert_internal) for mbed_assert_internal
    .\build\file.o(i._ZN4mbed4File4syncEv) refers to .\build\mbed_assert.o(i.mbed_assert_internal) for mbed_assert_internal
    .\build\file.o(i._ZN4mbed4File4tellEv) refers to .\build\mbed_assert.o(i.mbed_assert_internal) for mbed_assert_internal
    .\build\file.o(i._ZN4mbed4File5writeEPKvj) refers to .\build\mbed_assert.o(i.mbed_assert_internal) for mbed_assert_internal
    .\build\file.o(i._ZN4mbed4File6isattyEv) refers to .\build\mbed_assert.o(i.mbed_assert_internal) for mbed_assert_internal
    .\build\file.o(i._ZN4mbed4File6rewindEv) refers to .\build\mbed_assert.o(i.mbed_assert_internal) for mbed_assert_internal
    .\build\file.o(i._ZN4mbed4FileC1EPNS_10FileSystemEPKci) refers to .\build\file.o(i._ZN4mbed4File4openEPNS_10FileSystemEPKci) for mbed::File::open(mbed::FileSystem*, const char*, int)
    .\build\file.o(i._ZN4mbed4FileC1EPNS_10FileSystemEPKci) refers to .\build\file.o(.constdata__ZTVN4mbed4FileE) for vtable for mbed::File
    .\build\file.o(i._ZN4mbed4FileC1Ev) refers to .\build\file.o(.constdata__ZTVN4mbed4FileE) for vtable for mbed::File
    .\build\file.o(i._ZN4mbed4FileD0Ev) refers to .\build\file.o(i._ZN4mbed4FileD1Ev) for mbed::File::~File()
    .\build\file.o(i._ZN4mbed4FileD0Ev) refers to .\build\mbed_retarget.o(i._ZdlPv) for operator delete (void*)
    .\build\file.o(i._ZN4mbed4FileD1Ev) refers to .\build\file.o(i._ZN4mbed4File5closeEv) for mbed::File::close()
    .\build\file.o(i._ZN4mbed4FileD1Ev) refers to .\build\file.o(.constdata__ZTVN4mbed4FileE) for vtable for mbed::File
    .\build\file.o(.ARM.exidx) refers to .\build\file.o(i._ZN4mbed4FileC1Ev) for i._ZN4mbed4FileC1Ev
    .\build\file.o(.ARM.exidx) refers to .\build\file.o(i._ZN4mbed4File4openEPNS_10FileSystemEPKci) for i._ZN4mbed4File4openEPNS_10FileSystemEPKci
    .\build\file.o(.ARM.exidx) refers to .\build\file.o(i._ZN4mbed4FileC1EPNS_10FileSystemEPKci) for i._ZN4mbed4FileC1EPNS_10FileSystemEPKci
    .\build\file.o(.ARM.exidx) refers to .\build\file.o(i._ZN4mbed4File5closeEv) for i._ZN4mbed4File5closeEv
    .\build\file.o(.ARM.exidx) refers to .\build\file.o(i._ZN4mbed4FileD1Ev) for i._ZN4mbed4FileD1Ev
    .\build\file.o(.ARM.exidx) refers to .\build\file.o(i._ZN4mbed4FileD0Ev) for i._ZN4mbed4FileD0Ev
    .\build\file.o(.ARM.exidx) refers to .\build\file.o(i._ZN4mbed4File4readEPvj) for i._ZN4mbed4File4readEPvj
    .\build\file.o(.ARM.exidx) refers to .\build\file.o(i._ZN4mbed4File5writeEPKvj) for i._ZN4mbed4File5writeEPKvj
    .\build\file.o(.ARM.exidx) refers to .\build\file.o(i._ZN4mbed4File4syncEv) for i._ZN4mbed4File4syncEv
    .\build\file.o(.ARM.exidx) refers to .\build\file.o(i._ZN4mbed4File6isattyEv) for i._ZN4mbed4File6isattyEv
    .\build\file.o(.ARM.exidx) refers to .\build\file.o(i._ZN4mbed4File4seekEli) for i._ZN4mbed4File4seekEli
    .\build\file.o(.ARM.exidx) refers to .\build\file.o(i._ZN4mbed4File4tellEv) for i._ZN4mbed4File4tellEv
    .\build\file.o(.ARM.exidx) refers to .\build\file.o(i._ZN4mbed4File6rewindEv) for i._ZN4mbed4File6rewindEv
    .\build\file.o(.ARM.exidx) refers to .\build\file.o(i._ZN4mbed4File4sizeEv) for i._ZN4mbed4File4sizeEv
    .\build\filebase.o(i._ZN4mbed8FileBase3getEi) refers to .\build\mbed_retarget.o(t._ZN12SingletonPtrIN4rtos5MutexEEptEv) for SingletonPtr<rtos::Mutex>::operator ->()
    .\build\filebase.o(i._ZN4mbed8FileBase3getEi) refers to .\build\mutex.o(i._ZN4rtos5Mutex4lockEj) for rtos::Mutex::lock(unsigned)
    .\build\filebase.o(i._ZN4mbed8FileBase3getEi) refers to .\build\mutex.o(i._ZN4rtos5Mutex6unlockEv) for rtos::Mutex::unlock()
    .\build\filebase.o(i._ZN4mbed8FileBase3getEi) refers to .\build\filebase.o(.bss) for .bss
    .\build\filebase.o(i._ZN4mbed8FileBase3getEi) refers to .\build\filebase.o(.data) for .data
    .\build\filebase.o(i._ZN4mbed8FileBase6lookupEPKcj) refers to .\build\mbed_retarget.o(t._ZN12SingletonPtrIN4rtos5MutexEEptEv) for SingletonPtr<rtos::Mutex>::operator ->()
    .\build\filebase.o(i._ZN4mbed8FileBase6lookupEPKcj) refers to .\build\mutex.o(i._ZN4rtos5Mutex4lockEj) for rtos::Mutex::lock(unsigned)
    .\build\filebase.o(i._ZN4mbed8FileBase6lookupEPKcj) refers to D:\Keil_v5\ARM\ARMCC\Bin\..\lib\armlib\c_w.l(strncmp.o)(.text) for strncmp
    .\build\filebase.o(i._ZN4mbed8FileBase6lookupEPKcj) refers to D:\Keil_v5\ARM\ARMCC\Bin\..\lib\armlib\c_w.l(strlen.o)(.text) for strlen
    .\build\filebase.o(i._ZN4mbed8FileBase6lookupEPKcj) refers to .\build\mutex.o(i._ZN4rtos5Mutex6unlockEv) for rtos::Mutex::unlock()
    .\build\filebase.o(i._ZN4mbed8FileBase6lookupEPKcj) refers to .\build\filebase.o(.bss) for .bss
    .\build\filebase.o(i._ZN4mbed8FileBase6lookupEPKcj) refers to .\build\filebase.o(.data) for .data
    .\build\filebase.o(i._ZN4mbed8FileBaseC1EPKcNS_8PathTypeE) refers to .\build\mbed_retarget.o(t._ZN12SingletonPtrIN4rtos5MutexEEptEv) for SingletonPtr<rtos::Mutex>::operator ->()
    .\build\filebase.o(i._ZN4mbed8FileBaseC1EPKcNS_8PathTypeE) refers to .\build\mutex.o(i._ZN4rtos5Mutex4lockEj) for rtos::Mutex::lock(unsigned)
    .\build\filebase.o(i._ZN4mbed8FileBaseC1EPKcNS_8PathTypeE) refers to .\build\mutex.o(i._ZN4rtos5Mutex6unlockEv) for rtos::Mutex::unlock()
    .\build\filebase.o(i._ZN4mbed8FileBaseC1EPKcNS_8PathTypeE) refers to .\build\filebase.o(.constdata__ZTVN4mbed8FileBaseE) for vtable for mbed::FileBase
    .\build\filebase.o(i._ZN4mbed8FileBaseC1EPKcNS_8PathTypeE) refers to .\build\filebase.o(.bss) for .bss
    .\build\filebase.o(i._ZN4mbed8FileBaseC1EPKcNS_8PathTypeE) refers to .\build\filebase.o(.data) for .data
    .\build\filebase.o(i._ZN4mbed8FileBaseD0Ev) refers to .\build\filebase.o(i._ZN4mbed8FileBaseD1Ev) for mbed::FileBase::~FileBase()
    .\build\filebase.o(i._ZN4mbed8FileBaseD0Ev) refers to .\build\mbed_retarget.o(i._ZdlPv) for operator delete (void*)
    .\build\filebase.o(i._ZN4mbed8FileBaseD1Ev) refers to .\build\mbed_retarget.o(t._ZN12SingletonPtrIN4rtos5MutexEEptEv) for SingletonPtr<rtos::Mutex>::operator ->()
    .\build\filebase.o(i._ZN4mbed8FileBaseD1Ev) refers to .\build\mutex.o(i._ZN4rtos5Mutex4lockEj) for rtos::Mutex::lock(unsigned)
    .\build\filebase.o(i._ZN4mbed8FileBaseD1Ev) refers to .\build\mutex.o(i._ZN4rtos5Mutex6unlockEv) for rtos::Mutex::unlock()
    .\build\filebase.o(i._ZN4mbed8FileBaseD1Ev) refers to .\build\filebase.o(i._ZN4mbed8FileBase11getPathTypeEv) for mbed::FileBase::getPathType()
    .\build\filebase.o(i._ZN4mbed8FileBaseD1Ev) refers to .\build\mbed_retarget.o(i._ZN4mbed17remove_filehandleEPNS_10FileHandleE) for mbed::remove_filehandle(mbed::FileHandle*)
    .\build\filebase.o(i._ZN4mbed8FileBaseD1Ev) refers to .\build\filebase.o(.constdata__ZTVN4mbed8FileBaseE) for vtable for mbed::FileBase
    .\build\filebase.o(i._ZN4mbed8FileBaseD1Ev) refers to .\build\filebase.o(.bss) for .bss
    .\build\filebase.o(i._ZN4mbed8FileBaseD1Ev) refers to .\build\filebase.o(.data) for .data
    .\build\filebase.o(.ARM.exidx) refers to .\build\filebase.o(i._ZN4mbed8FileBaseC1EPKcNS_8PathTypeE) for i._ZN4mbed8FileBaseC1EPKcNS_8PathTypeE
    .\build\filebase.o(.ARM.exidx) refers to .\build\filebase.o(i._ZN4mbed8FileBase11getPathTypeEv) for i._ZN4mbed8FileBase11getPathTypeEv
    .\build\filebase.o(.ARM.exidx) refers to .\build\filebase.o(i._ZN4mbed8FileBaseD1Ev) for i._ZN4mbed8FileBaseD1Ev
    .\build\filebase.o(.ARM.exidx) refers to .\build\filebase.o(i._ZN4mbed8FileBaseD0Ev) for i._ZN4mbed8FileBaseD0Ev
    .\build\filebase.o(.ARM.exidx) refers to .\build\filebase.o(i._ZN4mbed8FileBase7getNameEv) for i._ZN4mbed8FileBase7getNameEv
    .\build\filebase.o(.ARM.exidx) refers to .\build\filebase.o(i._ZN4mbed8FileBase6lookupEPKcj) for i._ZN4mbed8FileBase6lookupEPKcj
    .\build\filebase.o(.ARM.exidx) refers to .\build\filebase.o(i._ZN4mbed8FileBase3getEi) for i._ZN4mbed8FileBase3getEi
    .\build\filehandle.o(.ARM.exidx) refers to .\build\filehandle.o(i._ZN4mbed10FileHandle4sizeEv) for i._ZN4mbed10FileHandle4sizeEv
    .\build\filepath.o(i._ZN4mbed8FilePath10fileSystemEv) refers to .\build\filepath.o(i._ZN4mbed8FilePath12isFileSystemEv) for mbed::FilePath::isFileSystem()
    .\build\filepath.o(i._ZN4mbed8FilePath12isFileSystemEv) refers to .\build\filebase.o(i._ZN4mbed8FileBase11getPathTypeEv) for mbed::FileBase::getPathType()
    .\build\filepath.o(i._ZN4mbed8FilePath4fileEv) refers to .\build\filepath.o(i._ZN4mbed8FilePath6isFileEv) for mbed::FilePath::isFile()
    .\build\filepath.o(i._ZN4mbed8FilePath6isFileEv) refers to .\build\filebase.o(i._ZN4mbed8FileBase11getPathTypeEv) for mbed::FileBase::getPathType()
    .\build\filepath.o(i._ZN4mbed8FilePathC1EPKc) refers to D:\Keil_v5\ARM\ARMCC\Bin\..\lib\armlib\c_w.l(strspn.o)(.text) for strspn
    .\build\filepath.o(i._ZN4mbed8FilePathC1EPKc) refers to .\build\mbed_assert.o(i.mbed_assert_internal) for mbed_assert_internal
    .\build\filepath.o(i._ZN4mbed8FilePathC1EPKc) refers to .\build\filebase.o(i._ZN4mbed8FileBase6lookupEPKcj) for mbed::FileBase::lookup(const char*, unsigned)
    .\build\filepath.o(.ARM.exidx) refers to .\build\filepath.o(i._ZN4mbed8FilePathC1EPKc) for i._ZN4mbed8FilePathC1EPKc
    .\build\filepath.o(.ARM.exidx) refers to .\build\filepath.o(i._ZN4mbed8FilePath8fileNameEv) for i._ZN4mbed8FilePath8fileNameEv
    .\build\filepath.o(.ARM.exidx) refers to .\build\filepath.o(i._ZN4mbed8FilePath12isFileSystemEv) for i._ZN4mbed8FilePath12isFileSystemEv
    .\build\filepath.o(.ARM.exidx) refers to .\build\filepath.o(i._ZN4mbed8FilePath10fileSystemEv) for i._ZN4mbed8FilePath10fileSystemEv
    .\build\filepath.o(.ARM.exidx) refers to .\build\filepath.o(i._ZN4mbed8FilePath6isFileEv) for i._ZN4mbed8FilePath6isFileEv
    .\build\filepath.o(.ARM.exidx) refers to .\build\filepath.o(i._ZN4mbed8FilePath4fileEv) for i._ZN4mbed8FilePath4fileEv
    .\build\filepath.o(.ARM.exidx) refers to .\build\filepath.o(i._ZN4mbed8FilePath6existsEv) for i._ZN4mbed8FilePath6existsEv
    .\build\filesystem.o(i._ZN4mbed10FileSystem4openEPPNS_10FileHandleEPKci) refers to .\build\mbed_retarget.o(i._Znwj) for operator new(unsigned)
    .\build\filesystem.o(i._ZN4mbed10FileSystem4openEPPNS_10FileHandleEPKci) refers to .\build\file.o(i._ZN4mbed4FileC1Ev) for mbed::File::File()
    .\build\filesystem.o(i._ZN4mbed10FileSystem4openEPPNS_10FileHandleEPKci) refers to .\build\filesystem.o(.constdata__ZTV7ManagedIN4mbed4FileEE) for vtable for Managed<mbed::File>
    .\build\filesystem.o(i._ZN4mbed10FileSystem4openEPPNS_9DirHandleEPKc) refers to .\build\mbed_retarget.o(i._Znwj) for operator new(unsigned)
    .\build\filesystem.o(i._ZN4mbed10FileSystem4openEPPNS_9DirHandleEPKc) refers to .\build\dir.o(i._ZN4mbed3DirC1Ev) for mbed::Dir::Dir()
    .\build\filesystem.o(i._ZN4mbed10FileSystem4openEPPNS_9DirHandleEPKc) refers to .\build\filesystem.o(.constdata__ZTV7ManagedIN4mbed3DirEE) for vtable for Managed<mbed::Dir>
    .\build\filesystem.o(i._ZN4mbed10FileSystem8dir_sizeEPv) refers to .\build\mbed_retarget.o(i._Znwj) for operator new(unsigned)
    .\build\filesystem.o(i._ZN4mbed10FileSystem8dir_sizeEPv) refers to .\build\mbed_retarget.o(i._ZdlPv) for operator delete (void*)
    .\build\filesystem.o(i._ZN4mbed10FileSystemC2EPKc) refers to .\build\filebase.o(i._ZN4mbed8FileBaseC1EPKcNS_8PathTypeE) for mbed::FileBase::FileBase(const char*, mbed::PathType)
    .\build\filesystem.o(i._ZN4mbed10FileSystemC2EPKc) refers to .\build\filesystemhandle.o(.constdata__ZTVN4mbed16FileSystemHandleE) for vtable for mbed::FileSystemHandle
    .\build\filesystem.o(i._ZN4mbed10FileSystemC2EPKc) refers to .\build\filesystem.o(.constdata__ZTVN4mbed10FileSystemE) for vtable for mbed::FileSystem
    .\build\filesystem.o(.ARM.exidx) refers to .\build\filesystem.o(i._ZN4mbed10FileSystemC2EPKc) for i._ZN4mbed10FileSystemC2EPKc
    .\build\filesystem.o(.ARM.exidx) refers to .\build\filesystem.o(i._ZN4mbed10FileSystem8reformatEP11BlockDevice) for i._ZN4mbed10FileSystem8reformatEP11BlockDevice
    .\build\filesystem.o(.ARM.exidx) refers to .\build\filesystem.o(i._ZN4mbed10FileSystem6removeEPKc) for i._ZN4mbed10FileSystem6removeEPKc
    .\build\filesystem.o(.ARM.exidx) refers to .\build\filesystem.o(i._ZN4mbed10FileSystem6renameEPKcS2_) for i._ZN4mbed10FileSystem6renameEPKcS2_
    .\build\filesystem.o(.ARM.exidx) refers to .\build\filesystem.o(i._ZN4mbed10FileSystem4statEPKcP4stat) for i._ZN4mbed10FileSystem4statEPKcP4stat
    .\build\filesystem.o(.ARM.exidx) refers to .\build\filesystem.o(i._ZN4mbed10FileSystem5mkdirEPKcj) for i._ZN4mbed10FileSystem5mkdirEPKcj
    .\build\filesystem.o(.ARM.exidx) refers to .\build\filesystem.o(i._ZN4mbed10FileSystem7statvfsEPKcP7statvfs) for i._ZN4mbed10FileSystem7statvfsEPKcP7statvfs
    .\build\filesystem.o(.ARM.exidx) refers to .\build\filesystem.o(i._ZN4mbed10FileSystem9file_syncEPv) for i._ZN4mbed10FileSystem9file_syncEPv
    .\build\filesystem.o(.ARM.exidx) refers to .\build\filesystem.o(i._ZN4mbed10FileSystem11file_isattyEPv) for i._ZN4mbed10FileSystem11file_isattyEPv
    .\build\filesystem.o(.ARM.exidx) refers to .\build\filesystem.o(i._ZN4mbed10FileSystem9file_tellEPv) for i._ZN4mbed10FileSystem9file_tellEPv
    .\build\filesystem.o(.ARM.exidx) refers to .\build\filesystem.o(i._ZN4mbed10FileSystem11file_rewindEPv) for i._ZN4mbed10FileSystem11file_rewindEPv
    .\build\filesystem.o(.ARM.exidx) refers to .\build\filesystem.o(i._ZN4mbed10FileSystem9file_sizeEPv) for i._ZN4mbed10FileSystem9file_sizeEPv
    .\build\filesystem.o(.ARM.exidx) refers to .\build\filesystem.o(i._ZN4mbed10FileSystem8dir_openEPPvPKc) for i._ZN4mbed10FileSystem8dir_openEPPvPKc
    .\build\filesystem.o(.ARM.exidx) refers to .\build\filesystem.o(i._ZN4mbed10FileSystem9dir_closeEPv) for i._ZN4mbed10FileSystem9dir_closeEPv
    .\build\filesystem.o(.ARM.exidx) refers to .\build\filesystem.o(i._ZN4mbed10FileSystem8dir_readEPvP6dirent) for i._ZN4mbed10FileSystem8dir_readEPvP6dirent
    .\build\filesystem.o(.ARM.exidx) refers to .\build\filesystem.o(i._ZN4mbed10FileSystem8dir_seekEPvl) for i._ZN4mbed10FileSystem8dir_seekEPvl
    .\build\filesystem.o(.ARM.exidx) refers to .\build\filesystem.o(i._ZN4mbed10FileSystem8dir_tellEPv) for i._ZN4mbed10FileSystem8dir_tellEPv
    .\build\filesystem.o(.ARM.exidx) refers to .\build\filesystem.o(i._ZN4mbed10FileSystem10dir_rewindEPv) for i._ZN4mbed10FileSystem10dir_rewindEPv
    .\build\filesystem.o(.ARM.exidx) refers to .\build\filesystem.o(i._ZN4mbed10FileSystem8dir_sizeEPv) for i._ZN4mbed10FileSystem8dir_sizeEPv
    .\build\filesystem.o(.ARM.exidx) refers to .\build\filesystem.o(i._ZN4mbed10FileSystem4openEPPNS_10FileHandleEPKci) for i._ZN4mbed10FileSystem4openEPPNS_10FileHandleEPKci
    .\build\filesystem.o(.ARM.exidx) refers to .\build\filesystem.o(i._ZN4mbed10FileSystem4openEPPNS_9DirHandleEPKc) for i._ZN4mbed10FileSystem4openEPPNS_9DirHandleEPKc
    .\build\filesystemhandle.o(.ARM.exidx) refers to .\build\filesystemhandle.o(i._ZN4mbed16FileSystemHandle4openEPPNS_9DirHandleEPKc) for i._ZN4mbed16FileSystemHandle4openEPPNS_9DirHandleEPKc
    .\build\filesystemhandle.o(.ARM.exidx) refers to .\build\filesystemhandle.o(i._ZN4mbed16FileSystemHandle6removeEPKc) for i._ZN4mbed16FileSystemHandle6removeEPKc
    .\build\filesystemhandle.o(.ARM.exidx) refers to .\build\filesystemhandle.o(i._ZN4mbed16FileSystemHandle6renameEPKcS2_) for i._ZN4mbed16FileSystemHandle6renameEPKcS2_
    .\build\filesystemhandle.o(.ARM.exidx) refers to .\build\filesystemhandle.o(i._ZN4mbed16FileSystemHandle4statEPKcP4stat) for i._ZN4mbed16FileSystemHandle4statEPKcP4stat
    .\build\filesystemhandle.o(.ARM.exidx) refers to .\build\filesystemhandle.o(i._ZN4mbed16FileSystemHandle5mkdirEPKcj) for i._ZN4mbed16FileSystemHandle5mkdirEPKcj
    .\build\filesystemhandle.o(.ARM.exidx) refers to .\build\filesystemhandle.o(i._ZN4mbed16FileSystemHandle7statvfsEPKcP7statvfs) for i._ZN4mbed16FileSystemHandle7statvfsEPKcP7statvfs
    .\build\flash_api.o(i.flash_erase_sector) refers to .\build\flash_api.o(i.flash_unlock) for flash_unlock
    .\build\flash_api.o(i.flash_erase_sector) refers to .\build\stm32f1xx_hal_flash_ex.o(i.HAL_FLASHEx_Erase) for HAL_FLASHEx_Erase
    .\build\flash_api.o(i.flash_erase_sector) refers to .\build\flash_api.o(i.flash_lock) for flash_lock
    .\build\flash_api.o(i.flash_lock) refers to .\build\stm32f1xx_hal_flash.o(i.HAL_FLASH_Lock) for HAL_FLASH_Lock
    .\build\flash_api.o(i.flash_program_page) refers to .\build\flash_api.o(i.flash_unlock) for flash_unlock
    .\build\flash_api.o(i.flash_program_page) refers to .\build\stm32f1xx_hal_flash.o(i.HAL_FLASH_Program) for HAL_FLASH_Program
    .\build\flash_api.o(i.flash_program_page) refers to .\build\flash_api.o(i.flash_lock) for flash_lock
    .\build\flash_api.o(i.flash_unlock) refers to .\build\stm32f1xx_hal_flash.o(i.HAL_FLASH_Unlock) for HAL_FLASH_Unlock
    .\build\flashiap.o(i._ZN4mbed8FlashIAP20is_aligned_to_sectorEjj) refers to .\build\flash_api.o(i.flash_get_sector_size) for flash_get_sector_size
    .\build\flashiap.o(i._ZN4mbed8FlashIAP20is_aligned_to_sectorEjj) refers to .\build\flashiap.o(i._ZN4mbed10is_alignedEjj) for mbed::is_aligned(unsigned, unsigned)
    .\build\flashiap.o(i._ZN4mbed8FlashIAP4initEv) refers to .\build\mbed_retarget.o(t._ZN12SingletonPtrIN4rtos5MutexEEptEv) for SingletonPtr<rtos::Mutex>::operator ->()
    .\build\flashiap.o(i._ZN4mbed8FlashIAP4initEv) refers to .\build\mutex.o(i._ZN4rtos5Mutex4lockEj) for rtos::Mutex::lock(unsigned)
    .\build\flashiap.o(i._ZN4mbed8FlashIAP4initEv) refers to .\build\flash_api.o(i.flash_init) for flash_init
    .\build\flashiap.o(i._ZN4mbed8FlashIAP4initEv) refers to .\build\flashiap.o(i._ZNK4mbed8FlashIAP13get_page_sizeEv) for mbed::FlashIAP::get_page_size() const
    .\build\flashiap.o(i._ZN4mbed8FlashIAP4initEv) refers to .\build\mbed_retarget.o(i._Znaj) for operator new[] (unsigned)
    .\build\flashiap.o(i._ZN4mbed8FlashIAP4initEv) refers to .\build\mutex.o(i._ZN4rtos5Mutex6unlockEv) for rtos::Mutex::unlock()
    .\build\flashiap.o(i._ZN4mbed8FlashIAP4initEv) refers to .\build\flashiap.o(.bss) for .bss
    .\build\flashiap.o(i._ZN4mbed8FlashIAP4readEPvjj) refers to .\build\mbed_retarget.o(t._ZN12SingletonPtrIN4rtos5MutexEEptEv) for SingletonPtr<rtos::Mutex>::operator ->()
    .\build\flashiap.o(i._ZN4mbed8FlashIAP4readEPvjj) refers to .\build\mutex.o(i._ZN4rtos5Mutex4lockEj) for rtos::Mutex::lock(unsigned)
    .\build\flashiap.o(i._ZN4mbed8FlashIAP4readEPvjj) refers to .\build\mbed_flash_api.o(i.flash_read) for flash_read
    .\build\flashiap.o(i._ZN4mbed8FlashIAP4readEPvjj) refers to .\build\mutex.o(i._ZN4rtos5Mutex6unlockEv) for rtos::Mutex::unlock()
    .\build\flashiap.o(i._ZN4mbed8FlashIAP4readEPvjj) refers to .\build\flashiap.o(.bss) for .bss
    .\build\flashiap.o(i._ZN4mbed8FlashIAP5eraseEjj) refers to .\build\flash_api.o(i.flash_get_size) for flash_get_size
    .\build\flashiap.o(i._ZN4mbed8FlashIAP5eraseEjj) refers to .\build\flash_api.o(i.flash_get_start_address) for flash_get_start_address
    .\build\flashiap.o(i._ZN4mbed8FlashIAP5eraseEjj) refers to .\build\flash_api.o(i.flash_get_sector_size) for flash_get_sector_size
    .\build\flashiap.o(i._ZN4mbed8FlashIAP5eraseEjj) refers to .\build\flashiap.o(i._ZN4mbed10is_alignedEjj) for mbed::is_aligned(unsigned, unsigned)
    .\build\flashiap.o(i._ZN4mbed8FlashIAP5eraseEjj) refers to .\build\mbed_retarget.o(t._ZN12SingletonPtrIN4rtos5MutexEEptEv) for SingletonPtr<rtos::Mutex>::operator ->()
    .\build\flashiap.o(i._ZN4mbed8FlashIAP5eraseEjj) refers to .\build\mutex.o(i._ZN4rtos5Mutex4lockEj) for rtos::Mutex::lock(unsigned)
    .\build\flashiap.o(i._ZN4mbed8FlashIAP5eraseEjj) refers to .\build\flash_api.o(i.flash_erase_sector) for flash_erase_sector
    .\build\flashiap.o(i._ZN4mbed8FlashIAP5eraseEjj) refers to .\build\mutex.o(i._ZN4rtos5Mutex6unlockEv) for rtos::Mutex::unlock()
    .\build\flashiap.o(i._ZN4mbed8FlashIAP5eraseEjj) refers to .\build\flashiap.o(.bss) for .bss
    .\build\flashiap.o(i._ZN4mbed8FlashIAP6deinitEv) refers to .\build\mbed_retarget.o(t._ZN12SingletonPtrIN4rtos5MutexEEptEv) for SingletonPtr<rtos::Mutex>::operator ->()
    .\build\flashiap.o(i._ZN4mbed8FlashIAP6deinitEv) refers to .\build\mutex.o(i._ZN4rtos5Mutex4lockEj) for rtos::Mutex::lock(unsigned)
    .\build\flashiap.o(i._ZN4mbed8FlashIAP6deinitEv) refers to .\build\flash_api.o(i.flash_free) for flash_free
    .\build\flashiap.o(i._ZN4mbed8FlashIAP6deinitEv) refers to .\build\mbed_retarget.o(i._ZdaPv) for operator delete[] (void*)
    .\build\flashiap.o(i._ZN4mbed8FlashIAP6deinitEv) refers to .\build\mutex.o(i._ZN4rtos5Mutex6unlockEv) for rtos::Mutex::unlock()
    .\build\flashiap.o(i._ZN4mbed8FlashIAP6deinitEv) refers to .\build\flashiap.o(.bss) for .bss
    .\build\flashiap.o(i._ZN4mbed8FlashIAP7programEPKvjj) refers to .\build\flashiap.o(i._ZNK4mbed8FlashIAP13get_page_sizeEv) for mbed::FlashIAP::get_page_size() const
    .\build\flashiap.o(i._ZN4mbed8FlashIAP7programEPKvjj) refers to .\build\flash_api.o(i.flash_get_size) for flash_get_size
    .\build\flashiap.o(i._ZN4mbed8FlashIAP7programEPKvjj) refers to .\build\flash_api.o(i.flash_get_start_address) for flash_get_start_address
    .\build\flashiap.o(i._ZN4mbed8FlashIAP7programEPKvjj) refers to .\build\flashiap.o(i._ZN4mbed10is_alignedEjj) for mbed::is_aligned(unsigned, unsigned)
    .\build\flashiap.o(i._ZN4mbed8FlashIAP7programEPKvjj) refers to .\build\mbed_retarget.o(t._ZN12SingletonPtrIN4rtos5MutexEEptEv) for SingletonPtr<rtos::Mutex>::operator ->()
    .\build\flashiap.o(i._ZN4mbed8FlashIAP7programEPKvjj) refers to .\build\mutex.o(i._ZN4rtos5Mutex4lockEj) for rtos::Mutex::lock(unsigned)
    .\build\flashiap.o(i._ZN4mbed8FlashIAP7programEPKvjj) refers to .\build\flash_api.o(i.flash_get_sector_size) for flash_get_sector_size
    .\build\flashiap.o(i._ZN4mbed8FlashIAP7programEPKvjj) refers to D:\Keil_v5\ARM\ARMCC\Bin\..\lib\armlib\c_w.l(rt_memcpy_v6.o)(.text) for __aeabi_memcpy
    .\build\flashiap.o(i._ZN4mbed8FlashIAP7programEPKvjj) refers to D:\Keil_v5\ARM\ARMCC\Bin\..\lib\armlib\c_w.l(aeabi_memset.o)(.text) for __aeabi_memset
    .\build\flashiap.o(i._ZN4mbed8FlashIAP7programEPKvjj) refers to .\build\flash_api.o(i.flash_program_page) for flash_program_page
    .\build\flashiap.o(i._ZN4mbed8FlashIAP7programEPKvjj) refers to .\build\mutex.o(i._ZN4rtos5Mutex6unlockEv) for rtos::Mutex::unlock()
    .\build\flashiap.o(i._ZN4mbed8FlashIAP7programEPKvjj) refers to .\build\flashiap.o(.bss) for .bss
    .\build\flashiap.o(i._ZNK4mbed8FlashIAP13get_page_sizeEv) refers to .\build\flash_api.o(i.flash_get_page_size) for flash_get_page_size
    .\build\flashiap.o(i._ZNK4mbed8FlashIAP14get_flash_sizeEv) refers to .\build\flash_api.o(i.flash_get_size) for flash_get_size
    .\build\flashiap.o(i._ZNK4mbed8FlashIAP15get_flash_startEv) refers to .\build\flash_api.o(i.flash_get_start_address) for flash_get_start_address
    .\build\flashiap.o(i._ZNK4mbed8FlashIAP15get_sector_sizeEj) refers to .\build\flash_api.o(i.flash_get_sector_size) for flash_get_sector_size
    .\build\flashiap.o(.ARM.exidx) refers to .\build\flashiap.o(i._ZN4mbed8FlashIAPC1Ev) for i._ZN4mbed8FlashIAPC1Ev
    .\build\flashiap.o(.ARM.exidx) refers to .\build\flashiap.o(i._ZN4mbed8FlashIAPD1Ev) for i._ZN4mbed8FlashIAPD1Ev
    .\build\flashiap.o(.ARM.exidx) refers to .\build\flashiap.o(i._ZNK4mbed8FlashIAP13get_page_sizeEv) for i._ZNK4mbed8FlashIAP13get_page_sizeEv
    .\build\flashiap.o(.ARM.exidx) refers to .\build\flashiap.o(i._ZN4mbed8FlashIAP4initEv) for i._ZN4mbed8FlashIAP4initEv
    .\build\flashiap.o(.ARM.exidx) refers to .\build\flashiap.o(i._ZN4mbed8FlashIAP6deinitEv) for i._ZN4mbed8FlashIAP6deinitEv
    .\build\flashiap.o(.ARM.exidx) refers to .\build\flashiap.o(i._ZN4mbed8FlashIAP4readEPvjj) for i._ZN4mbed8FlashIAP4readEPvjj
    .\build\flashiap.o(.ARM.exidx) refers to .\build\flashiap.o(i._ZN4mbed8FlashIAP7programEPKvjj) for i._ZN4mbed8FlashIAP7programEPKvjj
    .\build\flashiap.o(.ARM.exidx) refers to .\build\flashiap.o(i._ZN4mbed8FlashIAP5eraseEjj) for i._ZN4mbed8FlashIAP5eraseEjj
    .\build\flashiap.o(.ARM.exidx) refers to .\build\flashiap.o(i._ZNK4mbed8FlashIAP15get_sector_sizeEj) for i._ZNK4mbed8FlashIAP15get_sector_sizeEj
    .\build\flashiap.o(.ARM.exidx) refers to .\build\flashiap.o(i._ZNK4mbed8FlashIAP15get_flash_startEv) for i._ZNK4mbed8FlashIAP15get_flash_startEv
    .\build\flashiap.o(.ARM.exidx) refers to .\build\flashiap.o(i._ZNK4mbed8FlashIAP14get_flash_sizeEv) for i._ZNK4mbed8FlashIAP14get_flash_sizeEv
    .\build\flashiap.o(.ARM.exidx) refers to .\build\flashiap.o(i._ZN4mbed8FlashIAP20is_aligned_to_sectorEjj) for i._ZN4mbed8FlashIAP20is_aligned_to_sectorEjj
    .\build\flashiap.o(.ARM.exidx) refers to .\build\flashiap.o(i._ZN4mbed10is_alignedEjj) for i._ZN4mbed10is_alignedEjj
    .\build\gcm.o(i.gcm_gen_table) refers to .\build\cipher.o(i.mbedtls_cipher_update) for mbedtls_cipher_update
    .\build\gcm.o(i.gcm_mult) refers to .\build\gcm.o(.constdata) for .constdata
    .\build\gcm.o(i.mbedtls_gcm_auth_decrypt) refers to .\build\gcm.o(i.mbedtls_gcm_crypt_and_tag) for mbedtls_gcm_crypt_and_tag
    .\build\gcm.o(i.mbedtls_gcm_auth_decrypt) refers to .\build\gcm.o(i.mbedtls_zeroize) for mbedtls_zeroize
    .\build\gcm.o(i.mbedtls_gcm_crypt_and_tag) refers to .\build\gcm.o(i.mbedtls_gcm_starts) for mbedtls_gcm_starts
    .\build\gcm.o(i.mbedtls_gcm_crypt_and_tag) refers to .\build\gcm.o(i.mbedtls_gcm_update) for mbedtls_gcm_update
    .\build\gcm.o(i.mbedtls_gcm_crypt_and_tag) refers to .\build\gcm.o(i.mbedtls_gcm_finish) for mbedtls_gcm_finish
    .\build\gcm.o(i.mbedtls_gcm_finish) refers to D:\Keil_v5\ARM\ARMCC\Bin\..\lib\armlib\c_w.l(rt_memcpy_v6.o)(.text) for __aeabi_memcpy
    .\build\gcm.o(i.mbedtls_gcm_finish) refers to .\build\gcm.o(i.gcm_mult) for gcm_mult
    .\build\gcm.o(i.mbedtls_gcm_free) refers to .\build\cipher.o(i.mbedtls_cipher_free) for mbedtls_cipher_free
    .\build\gcm.o(i.mbedtls_gcm_free) refers to .\build\gcm.o(i.mbedtls_zeroize) for mbedtls_zeroize
    .\build\gcm.o(i.mbedtls_gcm_init) refers to D:\Keil_v5\ARM\ARMCC\Bin\..\lib\armlib\c_w.l(rt_memclr_w.o)(.text) for __aeabi_memclr4
    .\build\gcm.o(i.mbedtls_gcm_self_test) refers to D:\Keil_v5\ARM\ARMCC\Bin\..\lib\armlib\c_w.l(_printf_pad.o)(.text) for _printf_pre_padding
    .\build\gcm.o(i.mbedtls_gcm_self_test) refers to D:\Keil_v5\ARM\ARMCC\Bin\..\lib\armlib\c_w.l(_printf_percent.o)(.ARM.Collect$$_printf_percent$$00000000) for _printf_percent
    .\build\gcm.o(i.mbedtls_gcm_self_test) refers to D:\Keil_v5\ARM\ARMCC\Bin\..\lib\armlib\c_w.l(_printf_d.o)(.ARM.Collect$$_printf_percent$$00000009) for _printf_d
    .\build\gcm.o(i.mbedtls_gcm_self_test) refers to D:\Keil_v5\ARM\ARMCC\Bin\..\lib\armlib\c_w.l(_printf_s.o)(.ARM.Collect$$_printf_percent$$00000014) for _printf_s
    .\build\gcm.o(i.mbedtls_gcm_self_test) refers to D:\Keil_v5\ARM\ARMCC\Bin\..\lib\armlib\c_w.l(_printf_dec.o)(.text) for _printf_int_dec
    .\build\gcm.o(i.mbedtls_gcm_self_test) refers to D:\Keil_v5\ARM\ARMCC\Bin\..\lib\armlib\c_w.l(_printf_str.o)(.text) for _printf_str
    .\build\gcm.o(i.mbedtls_gcm_self_test) refers to .\build\gcm.o(i.mbedtls_gcm_init) for mbedtls_gcm_init
    .\build\gcm.o(i.mbedtls_gcm_self_test) refers to D:\Keil_v5\ARM\ARMCC\Bin\..\lib\armlib\c_w.l(__2printf.o)(.text) for __2printf
    .\build\gcm.o(i.mbedtls_gcm_self_test) refers to .\build\gcm.o(i.mbedtls_gcm_setkey) for mbedtls_gcm_setkey
    .\build\gcm.o(i.mbedtls_gcm_self_test) refers to .\build\gcm.o(i.mbedtls_gcm_crypt_and_tag) for mbedtls_gcm_crypt_and_tag
    .\build\gcm.o(i.mbedtls_gcm_self_test) refers to D:\Keil_v5\ARM\ARMCC\Bin\..\lib\armlib\c_w.l(memcmp.o)(.text) for memcmp
    .\build\gcm.o(i.mbedtls_gcm_self_test) refers to .\build\gcm.o(i.mbedtls_gcm_free) for mbedtls_gcm_free
    .\build\gcm.o(i.mbedtls_gcm_self_test) refers to .\build\gcm.o(i.mbedtls_gcm_starts) for mbedtls_gcm_starts
    .\build\gcm.o(i.mbedtls_gcm_self_test) refers to .\build\gcm.o(i.mbedtls_gcm_update) for mbedtls_gcm_update
    .\build\gcm.o(i.mbedtls_gcm_self_test) refers to .\build\gcm.o(i.mbedtls_gcm_finish) for mbedtls_gcm_finish
    .\build\gcm.o(i.mbedtls_gcm_self_test) refers to .\build\gcm.o(.constdata) for .constdata
    .\build\gcm.o(i.mbedtls_gcm_setkey) refers to .\build\cipher.o(i.mbedtls_cipher_info_from_values) for mbedtls_cipher_info_from_values
    .\build\gcm.o(i.mbedtls_gcm_setkey) refers to .\build\cipher.o(i.mbedtls_cipher_free) for mbedtls_cipher_free
    .\build\gcm.o(i.mbedtls_gcm_setkey) refers to .\build\cipher.o(i.mbedtls_cipher_setup) for mbedtls_cipher_setup
    .\build\gcm.o(i.mbedtls_gcm_setkey) refers to .\build\cipher.o(i.mbedtls_cipher_setkey) for mbedtls_cipher_setkey
    .\build\gcm.o(i.mbedtls_gcm_setkey) refers to .\build\gcm.o(i.gcm_gen_table) for gcm_gen_table
    .\build\gcm.o(i.mbedtls_gcm_starts) refers to D:\Keil_v5\ARM\ARMCC\Bin\..\lib\armlib\c_w.l(rt_memcpy_v6.o)(.text) for __aeabi_memcpy
    .\build\gcm.o(i.mbedtls_gcm_starts) refers to .\build\gcm.o(i.gcm_mult) for gcm_mult
    .\build\gcm.o(i.mbedtls_gcm_starts) refers to .\build\cipher.o(i.mbedtls_cipher_update) for mbedtls_cipher_update
    .\build\gcm.o(i.mbedtls_gcm_update) refers to .\build\cipher.o(i.mbedtls_cipher_update) for mbedtls_cipher_update
    .\build\gcm.o(i.mbedtls_gcm_update) refers to .\build\gcm.o(i.gcm_mult) for gcm_mult
    .\build\gpio_api.o(i.Set_GPIO_Clock) refers to .\build\mbed_error.o(i.error) for error
    .\build\gpio_api.o(i.gpio_init) refers to .\build\gpio_api.o(i.Set_GPIO_Clock) for Set_GPIO_Clock
    .\build\gpio_api.o(i.gpio_init) refers to .\build\gpio_api.o(i.gpio_set) for gpio_set
    .\build\gpio_api.o(i.gpio_init) refers to .\build\pinmap.o(.constdata) for ll_pin_defines
    .\build\gpio_api.o(i.gpio_mode) refers to .\build\pinmap.o(i.pin_mode) for pin_mode
    .\build\gpio_api.o(i.gpio_set) refers to .\build\mbed_assert.o(i.mbed_assert_internal) for mbed_assert_internal
    .\build\gpio_api.o(i.gpio_set) refers to .\build\pinmap.o(i.pin_function) for pin_function
    .\build\gpio_irq_api.o(i.gpio_irq0) refers to .\build\gpio_irq_api.o(i.handle_interrupt_in) for handle_interrupt_in
    .\build\gpio_irq_api.o(i.gpio_irq1) refers to .\build\gpio_irq_api.o(i.handle_interrupt_in) for handle_interrupt_in
    .\build\gpio_irq_api.o(i.gpio_irq2) refers to .\build\gpio_irq_api.o(i.handle_interrupt_in) for handle_interrupt_in
    .\build\gpio_irq_api.o(i.gpio_irq3) refers to .\build\gpio_irq_api.o(i.handle_interrupt_in) for handle_interrupt_in
    .\build\gpio_irq_api.o(i.gpio_irq4) refers to .\build\gpio_irq_api.o(i.handle_interrupt_in) for handle_interrupt_in
    .\build\gpio_irq_api.o(i.gpio_irq5) refers to .\build\gpio_irq_api.o(i.handle_interrupt_in) for handle_interrupt_in
    .\build\gpio_irq_api.o(i.gpio_irq6) refers to .\build\gpio_irq_api.o(i.handle_interrupt_in) for handle_interrupt_in
    .\build\gpio_irq_api.o(i.gpio_irq_free) refers to .\build\gpio_irq_api.o(i.gpio_irq_disable) for gpio_irq_disable
    .\build\gpio_irq_api.o(i.gpio_irq_free) refers to .\build\gpio_irq_device.o(.constdata) for pin_lines_desc
    .\build\gpio_irq_api.o(i.gpio_irq_free) refers to .\build\gpio_irq_api.o(.bss) for .bss
    .\build\gpio_irq_api.o(i.gpio_irq_init) refers to .\build\gpio_api.o(i.Set_GPIO_Clock) for Set_GPIO_Clock
    .\build\gpio_irq_api.o(i.gpio_irq_init) refers to .\build\gpio_irq_api.o(i.gpio_irq_enable) for gpio_irq_enable
    .\build\gpio_irq_api.o(i.gpio_irq_init) refers to .\build\mbed_error.o(i.error) for error
    .\build\gpio_irq_api.o(i.gpio_irq_init) refers to .\build\gpio_irq_device.o(.constdata) for pin_lines_desc
    .\build\gpio_irq_api.o(i.gpio_irq_init) refers to .\build\gpio_irq_api.o(i.gpio_irq0) for gpio_irq0
    .\build\gpio_irq_api.o(i.gpio_irq_init) refers to .\build\gpio_irq_api.o(i.gpio_irq1) for gpio_irq1
    .\build\gpio_irq_api.o(i.gpio_irq_init) refers to .\build\gpio_irq_api.o(i.gpio_irq2) for gpio_irq2
    .\build\gpio_irq_api.o(i.gpio_irq_init) refers to .\build\gpio_irq_api.o(i.gpio_irq3) for gpio_irq3
    .\build\gpio_irq_api.o(i.gpio_irq_init) refers to .\build\gpio_irq_api.o(i.gpio_irq4) for gpio_irq4
    .\build\gpio_irq_api.o(i.gpio_irq_init) refers to .\build\gpio_irq_api.o(i.gpio_irq5) for gpio_irq5
    .\build\gpio_irq_api.o(i.gpio_irq_init) refers to .\build\gpio_irq_api.o(i.gpio_irq6) for gpio_irq6
    .\build\gpio_irq_api.o(i.gpio_irq_init) refers to .\build\gpio_irq_api.o(.bss) for .bss
    .\build\gpio_irq_api.o(i.gpio_irq_init) refers to .\build\gpio_irq_api.o(.data) for .data
    .\build\gpio_irq_api.o(i.handle_interrupt_in) refers to .\build\mbed_error.o(i.error) for error
    .\build\gpio_irq_api.o(i.handle_interrupt_in) refers to .\build\gpio_irq_api.o(.bss) for .bss
    .\build\gpio_irq_api.o(i.handle_interrupt_in) refers to .\build\gpio_irq_api.o(.data) for .data
    .\build\greentea_metrics.o(i._Z14send_heap_infov) refers to .\build\mbed_alloc_wrappers.o(i.mbed_stats_heap_get) for mbed_stats_heap_get
    .\build\greentea_metrics.o(i._Z14send_heap_infov) refers to .\build\greentea_test_env.o(i._Z16greentea_send_kvPKci) for greentea_send_kv(const char*, int)
    .\build\greentea_metrics.o(i._Z23greentea_metrics_reportv) refers to .\build\greentea_metrics.o(i._Z14send_heap_infov) for send_heap_info()
    .\build\greentea_metrics.o(.ARM.exidx) refers to .\build\greentea_metrics.o(i._Z22greentea_metrics_setupv) for i._Z22greentea_metrics_setupv
    .\build\greentea_metrics.o(.ARM.exidx) refers to .\build\greentea_metrics.o(i._Z14send_heap_infov) for i._Z14send_heap_infov
    .\build\greentea_metrics.o(.ARM.exidx) refers to .\build\greentea_metrics.o(i._Z23greentea_metrics_reportv) for i._Z23greentea_metrics_reportv
    .\build\greentea_serial.o(i._ZN14GreenteaSerialC1Ev) refers to .\build\rawserial.o(i._ZN4mbed9RawSerialC1E7PinNameS1_i) for mbed::RawSerial::RawSerial(PinName, PinName, int)
    .\build\greentea_serial.o(i._ZN14GreenteaSerialC1Ev) refers to .\build\greentea_serial.o(.constdata__ZTV14GreenteaSerial) for vtable for GreenteaSerial
    .\build\greentea_serial.o(.ARM.exidx) refers to .\build\greentea_serial.o(i._ZN14GreenteaSerialC1Ev) for i._ZN14GreenteaSerialC1Ev
    .\build\greentea_test_env.o(i.GREENTEA_SETUP) refers to D:\Keil_v5\ARM\ARMCC\Bin\..\lib\armlib\c_w.l(rt_memclr_w.o)(.text) for __aeabi_memclr4
    .\build\greentea_test_env.o(i.GREENTEA_SETUP) refers to .\build\greentea_test_env.o(i._Z22_GREENTEA_SETUP_COMMONiPKcPcj) for _GREENTEA_SETUP_COMMON(int, const char*, char*, unsigned)
    .\build\greentea_test_env.o(i._Z12getNextTokenPci) refers to .\build\greentea_test_env.o(i._Z6gettokPci) for gettok(char*, int)
    .\build\greentea_test_env.o(i._Z12getNextTokenPci) refers to .\build\greentea_test_env.o(.data) for .data
    .\build\greentea_test_env.o(i._Z13ispunctuationi) refers to .\build\greentea_test_env.o(.constdata) for .constdata
    .\build\greentea_test_env.o(i._Z16greentea_send_kvPKcS0_i) refers to .\build\greentea_test_env.o(i._Z23greentea_write_preamblev) for greentea_write_preamble()
    .\build\greentea_test_env.o(i._Z16greentea_send_kvPKcS0_i) refers to .\build\greentea_test_env.o(i._Z21greentea_write_stringPKc) for greentea_write_string(const char*)
    .\build\greentea_test_env.o(i._Z16greentea_send_kvPKcS0_i) refers to .\build\greentea_test_env.o(t._ZN12SingletonPtrI14GreenteaSerialEptEv) for SingletonPtr<GreenteaSerial>::operator ->()
    .\build\greentea_test_env.o(i._Z16greentea_send_kvPKcS0_i) refers to .\build\rawserial.o(i._ZN4mbed9RawSerial4putcEi) for mbed::RawSerial::putc(int)
    .\build\greentea_test_env.o(i._Z16greentea_send_kvPKcS0_i) refers to .\build\greentea_test_env.o(i._Z18greentea_write_inti) for greentea_write_int(int)
    .\build\greentea_test_env.o(i._Z16greentea_send_kvPKcS0_i) refers to .\build\greentea_test_env.o(i._Z24greentea_write_postamblev) for greentea_write_postamble()
    .\build\greentea_test_env.o(i._Z16greentea_send_kvPKcS0_i) refers to .\build\greentea_serial.o(.bss) for greentea_serial
    .\build\greentea_test_env.o(i._Z16greentea_send_kvPKcS0_ii) refers to .\build\greentea_test_env.o(i._Z23greentea_write_preamblev) for greentea_write_preamble()
    .\build\greentea_test_env.o(i._Z16greentea_send_kvPKcS0_ii) refers to .\build\greentea_test_env.o(i._Z21greentea_write_stringPKc) for greentea_write_string(const char*)
    .\build\greentea_test_env.o(i._Z16greentea_send_kvPKcS0_ii) refers to .\build\greentea_test_env.o(t._ZN12SingletonPtrI14GreenteaSerialEptEv) for SingletonPtr<GreenteaSerial>::operator ->()
    .\build\greentea_test_env.o(i._Z16greentea_send_kvPKcS0_ii) refers to .\build\rawserial.o(i._ZN4mbed9RawSerial4putcEi) for mbed::RawSerial::putc(int)
    .\build\greentea_test_env.o(i._Z16greentea_send_kvPKcS0_ii) refers to .\build\greentea_test_env.o(i._Z18greentea_write_inti) for greentea_write_int(int)
    .\build\greentea_test_env.o(i._Z16greentea_send_kvPKcS0_ii) refers to .\build\greentea_test_env.o(i._Z24greentea_write_postamblev) for greentea_write_postamble()
    .\build\greentea_test_env.o(i._Z16greentea_send_kvPKcS0_ii) refers to .\build\greentea_serial.o(.bss) for greentea_serial
    .\build\greentea_test_env.o(i._Z16greentea_send_kvPKci) refers to .\build\greentea_test_env.o(i._Z23greentea_write_preamblev) for greentea_write_preamble()
    .\build\greentea_test_env.o(i._Z16greentea_send_kvPKci) refers to .\build\greentea_test_env.o(i._Z21greentea_write_stringPKc) for greentea_write_string(const char*)
    .\build\greentea_test_env.o(i._Z16greentea_send_kvPKci) refers to .\build\greentea_test_env.o(t._ZN12SingletonPtrI14GreenteaSerialEptEv) for SingletonPtr<GreenteaSerial>::operator ->()
    .\build\greentea_test_env.o(i._Z16greentea_send_kvPKci) refers to .\build\rawserial.o(i._ZN4mbed9RawSerial4putcEi) for mbed::RawSerial::putc(int)
    .\build\greentea_test_env.o(i._Z16greentea_send_kvPKci) refers to .\build\greentea_test_env.o(i._Z18greentea_write_inti) for greentea_write_int(int)
    .\build\greentea_test_env.o(i._Z16greentea_send_kvPKci) refers to .\build\greentea_test_env.o(i._Z24greentea_write_postamblev) for greentea_write_postamble()
    .\build\greentea_test_env.o(i._Z16greentea_send_kvPKci) refers to .\build\greentea_serial.o(.bss) for greentea_serial
    .\build\greentea_test_env.o(i._Z16greentea_send_kvPKcii) refers to .\build\greentea_test_env.o(i._Z23greentea_write_preamblev) for greentea_write_preamble()
    .\build\greentea_test_env.o(i._Z16greentea_send_kvPKcii) refers to .\build\greentea_test_env.o(i._Z21greentea_write_stringPKc) for greentea_write_string(const char*)
    .\build\greentea_test_env.o(i._Z16greentea_send_kvPKcii) refers to .\build\greentea_test_env.o(t._ZN12SingletonPtrI14GreenteaSerialEptEv) for SingletonPtr<GreenteaSerial>::operator ->()
    .\build\greentea_test_env.o(i._Z16greentea_send_kvPKcii) refers to .\build\rawserial.o(i._ZN4mbed9RawSerial4putcEi) for mbed::RawSerial::putc(int)
    .\build\greentea_test_env.o(i._Z16greentea_send_kvPKcii) refers to .\build\greentea_test_env.o(i._Z18greentea_write_inti) for greentea_write_int(int)
    .\build\greentea_test_env.o(i._Z16greentea_send_kvPKcii) refers to .\build\greentea_test_env.o(i._Z24greentea_write_postamblev) for greentea_write_postamble()
    .\build\greentea_test_env.o(i._Z16greentea_send_kvPKcii) refers to .\build\greentea_serial.o(.bss) for greentea_serial
    .\build\greentea_test_env.o(i._Z19GREENTEA_SETUP_UUIDiPKcPcj) refers to .\build\greentea_test_env.o(i._Z22_GREENTEA_SETUP_COMMONiPKcPcj) for _GREENTEA_SETUP_COMMON(int, const char*, char*, unsigned)
    .\build\greentea_test_env.o(i._Z21greentea_write_stringPKc) refers to .\build\greentea_test_env.o(t._ZN12SingletonPtrI14GreenteaSerialEptEv) for SingletonPtr<GreenteaSerial>::operator ->()
    .\build\greentea_test_env.o(i._Z21greentea_write_stringPKc) refers to .\build\rawserial.o(i._ZN4mbed9RawSerial4putcEi) for mbed::RawSerial::putc(int)
    .\build\greentea_test_env.o(i._Z21greentea_write_stringPKc) refers to .\build\greentea_serial.o(.bss) for greentea_serial
    .\build\greentea_test_env.o(i._Z22_GREENTEA_SETUP_COMMONiPKcPcj) refers to .\build\greentea_metrics.o(i._Z22greentea_metrics_setupv) for greentea_metrics_setup()
    .\build\greentea_test_env.o(i._Z22_GREENTEA_SETUP_COMMONiPKcPcj) refers to .\build\greentea_test_env.o(i.greentea_parse_kv) for greentea_parse_kv
    .\build\greentea_test_env.o(i._Z22_GREENTEA_SETUP_COMMONiPKcPcj) refers to .\build\greentea_test_env.o(i._Z21greentea_write_stringPKc) for greentea_write_string(const char*)
    .\build\greentea_test_env.o(i._Z22_GREENTEA_SETUP_COMMONiPKcPcj) refers to D:\Keil_v5\ARM\ARMCC\Bin\..\lib\armlib\c_w.l(strcmpv7m.o)(.text) for strcmp
    .\build\greentea_test_env.o(i._Z22_GREENTEA_SETUP_COMMONiPKcPcj) refers to .\build\greentea_test_env.o(i.greentea_send_kv) for greentea_send_kv
    .\build\greentea_test_env.o(i._Z22_GREENTEA_SETUP_COMMONiPKcPcj) refers to .\build\greentea_test_env.o(i._Z23greentea_notify_versionv) for greentea_notify_version()
    .\build\greentea_test_env.o(i._Z22_GREENTEA_SETUP_COMMONiPKcPcj) refers to .\build\greentea_test_env.o(i._Z23greentea_notify_timeouti) for greentea_notify_timeout(int)
    .\build\greentea_test_env.o(i._Z22_GREENTEA_SETUP_COMMONiPKcPcj) refers to .\build\greentea_test_env.o(i._Z24greentea_notify_hosttestPKc) for greentea_notify_hosttest(const char*)
    .\build\greentea_test_env.o(i._Z22_GREENTEA_SETUP_COMMONiPKcPcj) refers to .\build\greentea_test_env.o(.data) for .data
    .\build\greentea_test_env.o(i._Z23GREENTEA_TESTCASE_STARTPKc) refers to .\build\greentea_test_env.o(i.greentea_send_kv) for greentea_send_kv
    .\build\greentea_test_env.o(i._Z23GREENTEA_TESTCASE_STARTPKc) refers to .\build\greentea_test_env.o(.data) for .data
    .\build\greentea_test_env.o(i._Z23greentea_notify_timeouti) refers to .\build\greentea_test_env.o(i._Z16greentea_send_kvPKci) for greentea_send_kv(const char*, int)
    .\build\greentea_test_env.o(i._Z23greentea_notify_timeouti) refers to .\build\greentea_test_env.o(.data) for .data
    .\build\greentea_test_env.o(i._Z23greentea_notify_versionv) refers to .\build\greentea_test_env.o(i.greentea_send_kv) for greentea_send_kv
    .\build\greentea_test_env.o(i._Z23greentea_notify_versionv) refers to .\build\greentea_test_env.o(.data) for .data
    .\build\greentea_test_env.o(i._Z24GREENTEA_TESTCASE_FINISHPKcjj) refers to .\build\greentea_test_env.o(i._Z16greentea_send_kvPKcS0_ii) for greentea_send_kv(const char*, const char*, int, int)
    .\build\greentea_test_env.o(i._Z24GREENTEA_TESTCASE_FINISHPKcjj) refers to .\build\greentea_test_env.o(.data) for .data
    .\build\greentea_test_env.o(i._Z24greentea_notify_hosttestPKc) refers to .\build\greentea_test_env.o(i.greentea_send_kv) for greentea_send_kv
    .\build\greentea_test_env.o(i._Z24greentea_notify_hosttestPKc) refers to .\build\greentea_test_env.o(.data) for .data
    .\build\greentea_test_env.o(i._Z25GREENTEA_TESTSUITE_RESULTi) refers to .\build\greentea_test_env.o(i._Z26greentea_notify_completioni) for greentea_notify_completion(int)
    .\build\greentea_test_env.o(i._Z26greentea_notify_completioni) refers to .\build\greentea_metrics.o(i._Z23greentea_metrics_reportv) for greentea_metrics_report()
    .\build\greentea_test_env.o(i._Z26greentea_notify_completioni) refers to .\build\greentea_test_env.o(i.greentea_send_kv) for greentea_send_kv
    .\build\greentea_test_env.o(i._Z26greentea_notify_completioni) refers to .\build\greentea_test_env.o(i._Z16greentea_send_kvPKci) for greentea_send_kv(const char*, int)
    .\build\greentea_test_env.o(i._Z26greentea_notify_completioni) refers to .\build\greentea_test_env.o(.data) for .data
    .\build\greentea_test_env.o(i._Z6gettokPci) refers to .\build\greentea_test_env.o(i.greentea_getc) for greentea_getc
    .\build\greentea_test_env.o(i._Z6gettokPci) refers to .\build\greentea_test_env.o(i.isspace) for isspace
    .\build\greentea_test_env.o(i._Z6gettokPci) refers to .\build\greentea_test_env.o(i._Z8isstringi) for isstring(int)
    .\build\greentea_test_env.o(i._Z6gettokPci) refers to .\build\greentea_test_env.o(.data) for .data
    .\build\greentea_test_env.o(i._Z8HandleKVPcS_ii) refers to .\build\greentea_test_env.o(i._Z12getNextTokenPci) for getNextToken(char*, int)
    .\build\greentea_test_env.o(i._Z8isstringi) refers to D:\Keil_v5\ARM\ARMCC\Bin\..\lib\armlib\c_w.l(rt_ctype_table.o)(.text) for __rt_ctype_table
    .\build\greentea_test_env.o(i._Z8isstringi) refers to .\build\greentea_test_env.o(i.isspace) for isspace
    .\build\greentea_test_env.o(i._Z8isstringi) refers to .\build\greentea_test_env.o(i._Z13ispunctuationi) for ispunctuation(int)
    .\build\greentea_test_env.o(i.greentea_getc) refers to .\build\greentea_test_env.o(t._ZN12SingletonPtrI14GreenteaSerialEptEv) for SingletonPtr<GreenteaSerial>::operator ->()
    .\build\greentea_test_env.o(i.greentea_getc) refers to .\build\rawserial.o(i._ZN4mbed9RawSerial4getcEv) for mbed::RawSerial::getc()
    .\build\greentea_test_env.o(i.greentea_getc) refers to .\build\greentea_serial.o(.bss) for greentea_serial
    .\build\greentea_test_env.o(i.greentea_parse_kv) refers to .\build\greentea_test_env.o(i._Z12getNextTokenPci) for getNextToken(char*, int)
    .\build\greentea_test_env.o(i.greentea_parse_kv) refers to .\build\greentea_test_env.o(i._Z8HandleKVPcS_ii) for HandleKV(char*, char*, int, int)
    .\build\greentea_test_env.o(i.greentea_parse_kv) refers to .\build\greentea_test_env.o(.data) for .data
    .\build\greentea_test_env.o(i.greentea_send_kv) refers to .\build\greentea_test_env.o(i._Z23greentea_write_preamblev) for greentea_write_preamble()
    .\build\greentea_test_env.o(i.greentea_send_kv) refers to .\build\greentea_test_env.o(i._Z21greentea_write_stringPKc) for greentea_write_string(const char*)
    .\build\greentea_test_env.o(i.greentea_send_kv) refers to .\build\greentea_test_env.o(t._ZN12SingletonPtrI14GreenteaSerialEptEv) for SingletonPtr<GreenteaSerial>::operator ->()
    .\build\greentea_test_env.o(i.greentea_send_kv) refers to .\build\rawserial.o(i._ZN4mbed9RawSerial4putcEi) for mbed::RawSerial::putc(int)
    .\build\greentea_test_env.o(i.greentea_send_kv) refers to .\build\greentea_test_env.o(i._Z24greentea_write_postamblev) for greentea_write_postamble()
    .\build\greentea_test_env.o(i.greentea_send_kv) refers to .\build\greentea_serial.o(.bss) for greentea_serial
    .\build\greentea_test_env.o(.ARM.exidx) refers to .\build\greentea_test_env.o(i.greentea_send_kv) for i.greentea_send_kv
    .\build\greentea_test_env.o(.ARM.exidx) refers to .\build\greentea_test_env.o(i._Z24greentea_notify_hosttestPKc) for i._Z24greentea_notify_hosttestPKc
    .\build\greentea_test_env.o(.ARM.exidx) refers to .\build\greentea_test_env.o(i._Z16greentea_send_kvPKci) for i._Z16greentea_send_kvPKci
    .\build\greentea_test_env.o(.ARM.exidx) refers to .\build\greentea_test_env.o(i._Z23greentea_notify_timeouti) for i._Z23greentea_notify_timeouti
    .\build\greentea_test_env.o(.ARM.exidx) refers to .\build\greentea_test_env.o(i._Z23greentea_notify_versionv) for i._Z23greentea_notify_versionv
    .\build\greentea_test_env.o(.ARM.exidx) refers to .\build\greentea_test_env.o(i.greentea_getc) for i.greentea_getc
    .\build\greentea_test_env.o(.ARM.exidx) refers to .\build\greentea_test_env.o(i._Z13ispunctuationi) for i._Z13ispunctuationi
    .\build\greentea_test_env.o(.ARM.exidx) refers to .\build\greentea_test_env.o(i._Z8isstringi) for i._Z8isstringi
    .\build\greentea_test_env.o(.ARM.exidx) refers to .\build\greentea_test_env.o(i._Z6gettokPci) for i._Z6gettokPci
    .\build\greentea_test_env.o(.ARM.exidx) refers to .\build\greentea_test_env.o(i._Z12getNextTokenPci) for i._Z12getNextTokenPci
    .\build\greentea_test_env.o(.ARM.exidx) refers to .\build\greentea_test_env.o(i._Z8HandleKVPcS_ii) for i._Z8HandleKVPcS_ii
    .\build\greentea_test_env.o(.ARM.exidx) refers to .\build\greentea_test_env.o(i.greentea_parse_kv) for i.greentea_parse_kv
    .\build\greentea_test_env.o(.ARM.exidx) refers to .\build\greentea_test_env.o(i._Z22_GREENTEA_SETUP_COMMONiPKcPcj) for i._Z22_GREENTEA_SETUP_COMMONiPKcPcj
    .\build\greentea_test_env.o(.ARM.exidx) refers to .\build\greentea_test_env.o(i.GREENTEA_SETUP) for i.GREENTEA_SETUP
    .\build\greentea_test_env.o(.ARM.exidx) refers to .\build\greentea_test_env.o(i._Z19GREENTEA_SETUP_UUIDiPKcPcj) for i._Z19GREENTEA_SETUP_UUIDiPKcPcj
    .\build\greentea_test_env.o(.ARM.exidx) refers to .\build\greentea_test_env.o(i._Z26greentea_notify_completioni) for i._Z26greentea_notify_completioni
    .\build\greentea_test_env.o(.ARM.exidx) refers to .\build\greentea_test_env.o(i._Z25GREENTEA_TESTSUITE_RESULTi) for i._Z25GREENTEA_TESTSUITE_RESULTi
    .\build\greentea_test_env.o(.ARM.exidx) refers to .\build\greentea_test_env.o(i._Z23GREENTEA_TESTCASE_STARTPKc) for i._Z23GREENTEA_TESTCASE_STARTPKc
    .\build\greentea_test_env.o(.ARM.exidx) refers to .\build\greentea_test_env.o(i._Z16greentea_send_kvPKcS0_ii) for i._Z16greentea_send_kvPKcS0_ii
    .\build\greentea_test_env.o(.ARM.exidx) refers to .\build\greentea_test_env.o(i._Z24GREENTEA_TESTCASE_FINISHPKcjj) for i._Z24GREENTEA_TESTCASE_FINISHPKcjj
    .\build\greentea_test_env.o(.ARM.exidx) refers to .\build\greentea_test_env.o(i._Z16greentea_send_kvPKcS0_i) for i._Z16greentea_send_kvPKcS0_i
    .\build\greentea_test_env.o(.ARM.exidx) refers to .\build\greentea_test_env.o(i._Z16greentea_send_kvPKcii) for i._Z16greentea_send_kvPKcii
    .\build\greentea_test_env.o(.ARM.exidx) refers to .\build\greentea_test_env.o(i._Z21greentea_write_stringPKc) for i._Z21greentea_write_stringPKc
    .\build\greentea_test_env.o(.data) refers to .\build\greentea_test_env.o(.conststring) for .conststring
    .\build\greentea_test_env.o(.data) refers to .\build\greentea_test_env.o(.conststring) for .conststring
    .\build\greentea_test_env.o(.data) refers to .\build\greentea_test_env.o(.conststring) for .conststring
    .\build\greentea_test_env.o(.data) refers to .\build\greentea_test_env.o(.conststring) for .conststring
    .\build\greentea_test_env.o(.data) refers to .\build\greentea_test_env.o(.conststring) for .conststring
    .\build\hal_tick_16b.o(i.HAL_InitTick) refers to .\build\system_stm32f1xx.o(i.SystemCoreClockUpdate) for SystemCoreClockUpdate
    .\build\hal_tick_16b.o(i.HAL_InitTick) refers to .\build\stm32f1xx_hal_tim.o(i.HAL_TIM_Base_Init) for HAL_TIM_Base_Init
    .\build\hal_tick_16b.o(i.HAL_InitTick) refers to .\build\stm32f1xx_hal_tim.o(i.HAL_TIM_OC_Start) for HAL_TIM_OC_Start
    .\build\hal_tick_16b.o(i.HAL_InitTick) refers to .\build\stm32f1xx_hal_tim.o(i.HAL_TIM_Base_Start) for HAL_TIM_Base_Start
    .\build\hal_tick_16b.o(i.HAL_InitTick) refers to .\build\us_ticker_16b.o(.bss) for TimMasterHandle
    .\build\hal_tick_16b.o(i.HAL_InitTick) refers to .\build\system_stm32f1xx.o(.data) for SystemCoreClock
    .\build\hal_tick_16b.o(i.HAL_InitTick) refers to .\build\hal_tick_16b.o(.data) for .data
    .\build\hal_tick_16b.o(i.HAL_InitTick) refers to .\build\hal_tick_16b.o(i.timer_irq_handler) for timer_irq_handler
    .\build\hal_tick_16b.o(i.HAL_ResumeTick) refers to .\build\us_ticker_16b.o(.bss) for TimMasterHandle
    .\build\hal_tick_16b.o(i.HAL_SuspendTick) refers to .\build\us_ticker_16b.o(.bss) for TimMasterHandle
    .\build\hal_tick_16b.o(i.timer_irq_handler) refers to .\build\mbed_us_ticker_api.o(i.us_ticker_irq_handler) for us_ticker_irq_handler
    .\build\hal_tick_16b.o(i.timer_irq_handler) refers to .\build\stm32f1xx_hal.o(i.HAL_IncTick) for HAL_IncTick
    .\build\hal_tick_16b.o(i.timer_irq_handler) refers to .\build\us_ticker_16b.o(.bss) for TimMasterHandle
    .\build\hal_tick_16b.o(i.timer_irq_handler) refers to .\build\us_ticker_16b.o(.data) for SlaveCounter
    .\build\hal_tick_16b.o(i.timer_irq_handler) refers to .\build\hal_tick_16b.o(.data) for .data
    .\build\heapblockdevice.o(i._ZN15HeapBlockDevice4initEv) refers to .\build\mbed_retarget.o(i._Znaj) for operator new[] (unsigned)
    .\build\heapblockdevice.o(i._ZN15HeapBlockDevice4readEPvyy) refers to .\build\mbed_assert.o(i.mbed_assert_internal) for mbed_assert_internal
    .\build\heapblockdevice.o(i._ZN15HeapBlockDevice4readEPvyy) refers to D:\Keil_v5\ARM\ARMCC\Bin\..\lib\armlib\c_w.l(lludivv7m.o)(.text) for __aeabi_uldivmod
    .\build\heapblockdevice.o(i._ZN15HeapBlockDevice4readEPvyy) refers to D:\Keil_v5\ARM\ARMCC\Bin\..\lib\armlib\c_w.l(rt_memcpy_v6.o)(.text) for __aeabi_memcpy
    .\build\heapblockdevice.o(i._ZN15HeapBlockDevice4readEPvyy) refers to D:\Keil_v5\ARM\ARMCC\Bin\..\lib\armlib\c_w.l(rt_memclr.o)(.text) for __aeabi_memclr
    .\build\heapblockdevice.o(i._ZN15HeapBlockDevice5eraseEyy) refers to .\build\mbed_assert.o(i.mbed_assert_internal) for mbed_assert_internal
    .\build\heapblockdevice.o(i._ZN15HeapBlockDevice5eraseEyy) refers to D:\Keil_v5\ARM\ARMCC\Bin\..\lib\armlib\c_w.l(lludivv7m.o)(.text) for __aeabi_uldivmod
    .\build\heapblockdevice.o(i._ZN15HeapBlockDevice6deinitEv) refers to .\build\mbed_assert.o(i.mbed_assert_internal) for mbed_assert_internal
    .\build\heapblockdevice.o(i._ZN15HeapBlockDevice7programEPKvyy) refers to .\build\mbed_assert.o(i.mbed_assert_internal) for mbed_assert_internal
    .\build\heapblockdevice.o(i._ZN15HeapBlockDevice7programEPKvyy) refers to D:\Keil_v5\ARM\ARMCC\Bin\..\lib\armlib\c_w.l(lludivv7m.o)(.text) for __aeabi_uldivmod
    .\build\heapblockdevice.o(i._ZN15HeapBlockDevice7programEPKvyy) refers to D:\Keil_v5\ARM\ARMCC\Bin\..\lib\armlib\c_w.l(h1_alloc_mt.o)(.text) for malloc
    .\build\heapblockdevice.o(i._ZN15HeapBlockDevice7programEPKvyy) refers to D:\Keil_v5\ARM\ARMCC\Bin\..\lib\armlib\c_w.l(rt_memcpy_v6.o)(.text) for __aeabi_memcpy
    .\build\heapblockdevice.o(i._ZN15HeapBlockDeviceC1Eyy) refers to D:\Keil_v5\ARM\ARMCC\Bin\..\lib\armlib\c_w.l(lludivv7m.o)(.text) for __aeabi_uldivmod
    .\build\heapblockdevice.o(i._ZN15HeapBlockDeviceC1Eyy) refers to .\build\mbed_assert.o(i.mbed_assert_internal) for mbed_assert_internal
    .\build\heapblockdevice.o(i._ZN15HeapBlockDeviceC1Eyy) refers to .\build\heapblockdevice.o(.constdata__ZTV15HeapBlockDevice) for vtable for HeapBlockDevice
    .\build\heapblockdevice.o(i._ZN15HeapBlockDeviceC1Eyyyy) refers to D:\Keil_v5\ARM\ARMCC\Bin\..\lib\armlib\c_w.l(lludivv7m.o)(.text) for __aeabi_uldivmod
    .\build\heapblockdevice.o(i._ZN15HeapBlockDeviceC1Eyyyy) refers to .\build\mbed_assert.o(i.mbed_assert_internal) for mbed_assert_internal
    .\build\heapblockdevice.o(i._ZN15HeapBlockDeviceC1Eyyyy) refers to .\build\heapblockdevice.o(.constdata__ZTV15HeapBlockDevice) for vtable for HeapBlockDevice
    .\build\heapblockdevice.o(i._ZN15HeapBlockDeviceD0Ev) refers to .\build\heapblockdevice.o(i._ZN15HeapBlockDeviceD1Ev) for HeapBlockDevice::~HeapBlockDevice()
    .\build\heapblockdevice.o(i._ZN15HeapBlockDeviceD0Ev) refers to .\build\mbed_retarget.o(i._ZdlPv) for operator delete (void*)
    .\build\heapblockdevice.o(i._ZN15HeapBlockDeviceD1Ev) refers to D:\Keil_v5\ARM\ARMCC\Bin\..\lib\armlib\c_w.l(h1_free_mt.o)(.text) for free
    .\build\heapblockdevice.o(i._ZN15HeapBlockDeviceD1Ev) refers to .\build\mbed_retarget.o(i._ZdaPv) for operator delete[] (void*)
    .\build\heapblockdevice.o(i._ZN15HeapBlockDeviceD1Ev) refers to .\build\heapblockdevice.o(.constdata__ZTV15HeapBlockDevice) for vtable for HeapBlockDevice
    .\build\heapblockdevice.o(i._ZNK15HeapBlockDevice13get_read_sizeEv) refers to .\build\mbed_assert.o(i.mbed_assert_internal) for mbed_assert_internal
    .\build\heapblockdevice.o(i._ZNK15HeapBlockDevice14get_erase_sizeEv) refers to .\build\mbed_assert.o(i.mbed_assert_internal) for mbed_assert_internal
    .\build\heapblockdevice.o(i._ZNK15HeapBlockDevice16get_program_sizeEv) refers to .\build\mbed_assert.o(i.mbed_assert_internal) for mbed_assert_internal
    .\build\heapblockdevice.o(i._ZNK15HeapBlockDevice4sizeEv) refers to .\build\mbed_assert.o(i.mbed_assert_internal) for mbed_assert_internal
    .\build\heapblockdevice.o(.ARM.exidx) refers to .\build\heapblockdevice.o(i._ZN15HeapBlockDeviceC1Eyy) for i._ZN15HeapBlockDeviceC1Eyy
    .\build\heapblockdevice.o(.ARM.exidx) refers to .\build\heapblockdevice.o(i._ZN15HeapBlockDeviceC1Eyyyy) for i._ZN15HeapBlockDeviceC1Eyyyy
    .\build\heapblockdevice.o(.ARM.exidx) refers to .\build\heapblockdevice.o(i._ZN15HeapBlockDeviceD1Ev) for i._ZN15HeapBlockDeviceD1Ev
    .\build\heapblockdevice.o(.ARM.exidx) refers to .\build\heapblockdevice.o(i._ZN15HeapBlockDeviceD0Ev) for i._ZN15HeapBlockDeviceD0Ev
    .\build\heapblockdevice.o(.ARM.exidx) refers to .\build\heapblockdevice.o(i._ZN15HeapBlockDevice4initEv) for i._ZN15HeapBlockDevice4initEv
    .\build\heapblockdevice.o(.ARM.exidx) refers to .\build\heapblockdevice.o(i._ZN15HeapBlockDevice6deinitEv) for i._ZN15HeapBlockDevice6deinitEv
    .\build\heapblockdevice.o(.ARM.exidx) refers to .\build\heapblockdevice.o(i._ZN15HeapBlockDevice4readEPvyy) for i._ZN15HeapBlockDevice4readEPvyy
    .\build\heapblockdevice.o(.ARM.exidx) refers to .\build\heapblockdevice.o(i._ZN15HeapBlockDevice7programEPKvyy) for i._ZN15HeapBlockDevice7programEPKvyy
    .\build\heapblockdevice.o(.ARM.exidx) refers to .\build\heapblockdevice.o(i._ZN15HeapBlockDevice5eraseEyy) for i._ZN15HeapBlockDevice5eraseEyy
    .\build\heapblockdevice.o(.ARM.exidx) refers to .\build\heapblockdevice.o(i._ZNK15HeapBlockDevice13get_read_sizeEv) for i._ZNK15HeapBlockDevice13get_read_sizeEv
    .\build\heapblockdevice.o(.ARM.exidx) refers to .\build\heapblockdevice.o(i._ZNK15HeapBlockDevice16get_program_sizeEv) for i._ZNK15HeapBlockDevice16get_program_sizeEv
    .\build\heapblockdevice.o(.ARM.exidx) refers to .\build\heapblockdevice.o(i._ZNK15HeapBlockDevice14get_erase_sizeEv) for i._ZNK15HeapBlockDevice14get_erase_sizeEv
    .\build\heapblockdevice.o(.ARM.exidx) refers to .\build\heapblockdevice.o(i._ZNK15HeapBlockDevice4sizeEv) for i._ZNK15HeapBlockDevice4sizeEv
    .\build\hmac_drbg.o(i.mbedtls_hmac_drbg_free) refers to .\build\md.o(i.mbedtls_md_free) for mbedtls_md_free
    .\build\hmac_drbg.o(i.mbedtls_hmac_drbg_free) refers to .\build\hmac_drbg.o(i.mbedtls_zeroize) for mbedtls_zeroize
    .\build\hmac_drbg.o(i.mbedtls_hmac_drbg_init) refers to D:\Keil_v5\ARM\ARMCC\Bin\..\lib\armlib\c_w.l(rt_memclr_w.o)(.text) for __aeabi_memclr4
    .\build\hmac_drbg.o(i.mbedtls_hmac_drbg_random) refers to .\build\hmac_drbg.o(i.mbedtls_hmac_drbg_random_with_add) for mbedtls_hmac_drbg_random_with_add
    .\build\hmac_drbg.o(i.mbedtls_hmac_drbg_random_with_add) refers to .\build\md.o(i.mbedtls_md_get_size) for mbedtls_md_get_size
    .\build\hmac_drbg.o(i.mbedtls_hmac_drbg_random_with_add) refers to .\build\hmac_drbg.o(i.mbedtls_hmac_drbg_reseed) for mbedtls_hmac_drbg_reseed
    .\build\hmac_drbg.o(i.mbedtls_hmac_drbg_random_with_add) refers to .\build\hmac_drbg.o(i.mbedtls_hmac_drbg_update) for mbedtls_hmac_drbg_update
    .\build\hmac_drbg.o(i.mbedtls_hmac_drbg_random_with_add) refers to .\build\md.o(i.mbedtls_md_hmac_reset) for mbedtls_md_hmac_reset
    .\build\hmac_drbg.o(i.mbedtls_hmac_drbg_random_with_add) refers to .\build\md.o(i.mbedtls_md_hmac_update) for mbedtls_md_hmac_update
    .\build\hmac_drbg.o(i.mbedtls_hmac_drbg_random_with_add) refers to .\build\md.o(i.mbedtls_md_hmac_finish) for mbedtls_md_hmac_finish
    .\build\hmac_drbg.o(i.mbedtls_hmac_drbg_random_with_add) refers to D:\Keil_v5\ARM\ARMCC\Bin\..\lib\armlib\c_w.l(rt_memcpy_v6.o)(.text) for __aeabi_memcpy
    .\build\hmac_drbg.o(i.mbedtls_hmac_drbg_reseed) refers to D:\Keil_v5\ARM\ARMCC\Bin\..\lib\armlib\c_w.l(rt_memclr_w.o)(.text) for __aeabi_memclr4
    .\build\hmac_drbg.o(i.mbedtls_hmac_drbg_reseed) refers to D:\Keil_v5\ARM\ARMCC\Bin\..\lib\armlib\c_w.l(rt_memcpy_v6.o)(.text) for __aeabi_memcpy
    .\build\hmac_drbg.o(i.mbedtls_hmac_drbg_reseed) refers to .\build\hmac_drbg.o(i.mbedtls_hmac_drbg_update) for mbedtls_hmac_drbg_update
    .\build\hmac_drbg.o(i.mbedtls_hmac_drbg_seed) refers to .\build\md.o(i.mbedtls_md_setup) for mbedtls_md_setup
    .\build\hmac_drbg.o(i.mbedtls_hmac_drbg_seed) refers to .\build\md.o(i.mbedtls_md_get_size) for mbedtls_md_get_size
    .\build\hmac_drbg.o(i.mbedtls_hmac_drbg_seed) refers to .\build\md.o(i.mbedtls_md_hmac_starts) for mbedtls_md_hmac_starts
    .\build\hmac_drbg.o(i.mbedtls_hmac_drbg_seed) refers to D:\Keil_v5\ARM\ARMCC\Bin\..\lib\armlib\c_w.l(aeabi_memset.o)(.text) for __aeabi_memset
    .\build\hmac_drbg.o(i.mbedtls_hmac_drbg_seed) refers to .\build\hmac_drbg.o(i.mbedtls_hmac_drbg_reseed) for mbedtls_hmac_drbg_reseed
    .\build\hmac_drbg.o(i.mbedtls_hmac_drbg_seed_buf) refers to .\build\md.o(i.mbedtls_md_setup) for mbedtls_md_setup
    .\build\hmac_drbg.o(i.mbedtls_hmac_drbg_seed_buf) refers to .\build\md.o(i.mbedtls_md_get_size) for mbedtls_md_get_size
    .\build\hmac_drbg.o(i.mbedtls_hmac_drbg_seed_buf) refers to .\build\md.o(i.mbedtls_md_hmac_starts) for mbedtls_md_hmac_starts
    .\build\hmac_drbg.o(i.mbedtls_hmac_drbg_seed_buf) refers to D:\Keil_v5\ARM\ARMCC\Bin\..\lib\armlib\c_w.l(aeabi_memset.o)(.text) for __aeabi_memset
    .\build\hmac_drbg.o(i.mbedtls_hmac_drbg_seed_buf) refers to .\build\hmac_drbg.o(i.mbedtls_hmac_drbg_update) for mbedtls_hmac_drbg_update
    .\build\hmac_drbg.o(i.mbedtls_hmac_drbg_update) refers to .\build\md.o(i.mbedtls_md_get_size) for mbedtls_md_get_size
    .\build\hmac_drbg.o(i.mbedtls_hmac_drbg_update) refers to .\build\md.o(i.mbedtls_md_hmac_reset) for mbedtls_md_hmac_reset
    .\build\hmac_drbg.o(i.mbedtls_hmac_drbg_update) refers to .\build\md.o(i.mbedtls_md_hmac_update) for mbedtls_md_hmac_update
    .\build\hmac_drbg.o(i.mbedtls_hmac_drbg_update) refers to .\build\md.o(i.mbedtls_md_hmac_finish) for mbedtls_md_hmac_finish
    .\build\hmac_drbg.o(i.mbedtls_hmac_drbg_update) refers to .\build\md.o(i.mbedtls_md_hmac_starts) for mbedtls_md_hmac_starts
    .\build\i2c.o(i._ZN4mbed3I2C14abort_transferEv) refers to .\build\i2c_api.o(i.i2c_abort_asynch) for i2c_abort_asynch
    .\build\i2c.o(i._ZN4mbed3I2C14abort_transferEv) refers to .\build\i2c.o(i._ZN4mbed3I2C17unlock_deep_sleepEv) for mbed::I2C::unlock_deep_sleep()
    .\build\i2c.o(i._ZN4mbed3I2C15lock_deep_sleepEv) refers to .\build\mbed_sleep_manager.o(i.sleep_manager_lock_deep_sleep_internal) for sleep_manager_lock_deep_sleep_internal
    .\build\i2c.o(i._ZN4mbed3I2C17unlock_deep_sleepEv) refers to .\build\mbed_sleep_manager.o(i.sleep_manager_unlock_deep_sleep_internal) for sleep_manager_unlock_deep_sleep_internal
    .\build\i2c.o(i._ZN4mbed3I2C18irq_handler_asynchEv) refers to .\build\i2c_api.o(i.i2c_irq_handler_asynch) for i2c_irq_handler_asynch
    .\build\i2c.o(i._ZN4mbed3I2C18irq_handler_asynchEv) refers to .\build\mbed_assert.o(i.mbed_assert_internal) for mbed_assert_internal
    .\build\i2c.o(i._ZN4mbed3I2C18irq_handler_asynchEv) refers to .\build\i2c.o(i._ZN4mbed3I2C17unlock_deep_sleepEv) for mbed::I2C::unlock_deep_sleep()
    .\build\i2c.o(i._ZN4mbed3I2C18irq_handler_asynchEv) refers to .\build\eventqueue.o(.constdata__ZZNK4mbed8CallbackIFviEE4callEiEs_0) for mbed::Callback<void(int)>::call(int) const::string (instance 2)
    .\build\i2c.o(i._ZN4mbed3I2C18irq_handler_asynchEv) refers to .\build\eventqueue.o(.constdata__ZZNK4mbed8CallbackIFviEE4callEiEs) for mbed::Callback<void(int)>::call(int) const::string
    .\build\i2c.o(i._ZN4mbed3I2C4lockEv) refers to .\build\mbed_retarget.o(t._ZN12SingletonPtrIN4rtos5MutexEEptEv) for SingletonPtr<rtos::Mutex>::operator ->()
    .\build\i2c.o(i._ZN4mbed3I2C4lockEv) refers to .\build\mutex.o(i._ZN4rtos5Mutex4lockEj) for rtos::Mutex::lock(unsigned)
    .\build\i2c.o(i._ZN4mbed3I2C4lockEv) refers to .\build\i2c.o(.bss) for .bss
    .\build\i2c.o(i._ZN4mbed3I2C4readEi) refers to .\build\i2c_api.o(i.i2c_byte_read) for i2c_byte_read
    .\build\i2c.o(i._ZN4mbed3I2C4readEiPcib) refers to .\build\i2c.o(i._ZN4mbed3I2C6aquireEv) for mbed::I2C::aquire()
    .\build\i2c.o(i._ZN4mbed3I2C4readEiPcib) refers to .\build\i2c_api.o(i.i2c_read) for i2c_read
    .\build\i2c.o(i._ZN4mbed3I2C4stopEv) refers to .\build\i2c_api.o(i.i2c_stop) for i2c_stop
    .\build\i2c.o(i._ZN4mbed3I2C5startEv) refers to .\build\i2c_api.o(i.i2c_start) for i2c_start
    .\build\i2c.o(i._ZN4mbed3I2C5writeEi) refers to .\build\i2c_api.o(i.i2c_byte_write) for i2c_byte_write
    .\build\i2c.o(i._ZN4mbed3I2C5writeEiPKcib) refers to .\build\i2c.o(i._ZN4mbed3I2C6aquireEv) for mbed::I2C::aquire()
    .\build\i2c.o(i._ZN4mbed3I2C5writeEiPKcib) refers to .\build\i2c_api.o(i.i2c_write) for i2c_write
    .\build\i2c.o(i._ZN4mbed3I2C6aquireEv) refers to .\build\i2c_api.o(i.i2c_frequency) for i2c_frequency
    .\build\i2c.o(i._ZN4mbed3I2C6aquireEv) refers to .\build\i2c.o(.data) for .data
    .\build\i2c.o(i._ZN4mbed3I2C6unlockEv) refers to .\build\mbed_retarget.o(t._ZN12SingletonPtrIN4rtos5MutexEEptEv) for SingletonPtr<rtos::Mutex>::operator ->()
    .\build\i2c.o(i._ZN4mbed3I2C6unlockEv) refers to .\build\mutex.o(i._ZN4rtos5Mutex6unlockEv) for rtos::Mutex::unlock()
    .\build\i2c.o(i._ZN4mbed3I2C6unlockEv) refers to .\build\i2c.o(.bss) for .bss
    .\build\i2c.o(i._ZN4mbed3I2C8transferEiPKciPciRKNS_8CallbackIFviEEEib) refers to .\build\i2c_api.o(i.i2c_active) for i2c_active
    .\build\i2c.o(i._ZN4mbed3I2C8transferEiPKciPciRKNS_8CallbackIFviEEEib) refers to .\build\i2c.o(i._ZN4mbed3I2C15lock_deep_sleepEv) for mbed::I2C::lock_deep_sleep()
    .\build\i2c.o(i._ZN4mbed3I2C8transferEiPKciPciRKNS_8CallbackIFviEEEib) refers to .\build\i2c.o(i._ZN4mbed3I2C6aquireEv) for mbed::I2C::aquire()
    .\build\i2c.o(i._ZN4mbed3I2C8transferEiPKciPciRKNS_8CallbackIFviEEEib) refers to .\build\eventqueue.o(t._ZN4mbed8CallbackIFviEED1Ev) for mbed::Callback<void(int)>::~Callback()
    .\build\i2c.o(i._ZN4mbed3I2C8transferEiPKciPciRKNS_8CallbackIFviEEEib) refers to .\build\i2c_api.o(i.i2c_transfer_asynch) for i2c_transfer_asynch
    .\build\i2c.o(i._ZN4mbed3I2C8transferEiPKciPciRKNS_8CallbackIFviEEEib) refers to .\build\i2c.o(.constdata) for .constdata
    .\build\i2c.o(i._ZN4mbed3I2C9frequencyEi) refers to .\build\i2c_api.o(i.i2c_frequency) for i2c_frequency
    .\build\i2c.o(i._ZN4mbed3I2C9frequencyEi) refers to .\build\i2c.o(.data) for .data
    .\build\i2c.o(i._ZN4mbed3I2CC1E7PinNameS1_) refers to D:\Keil_v5\ARM\ARMCC\Bin\..\lib\armlib\c_w.l(rt_memclr_w.o)(.text) for __aeabi_memclr4
    .\build\i2c.o(i._ZN4mbed3I2CC1E7PinNameS1_) refers to .\build\i2c_api.o(i.i2c_init) for i2c_init
    .\build\i2c.o(i._ZN4mbed3I2CC1E7PinNameS1_) refers to .\build\i2c.o(.constdata__ZTVN4mbed3I2CE) for vtable for mbed::I2C
    .\build\i2c.o(i._ZN4mbed3I2CC1E7PinNameS1_) refers to .\build\i2c.o(.constdata) for .constdata
    .\build\i2c.o(i._ZN4mbed3I2CC1E7PinNameS1_) refers to .\build\i2c.o(t._ZN6CThunkIN4mbed3I2CEE10trampolineEPS1_PvPMS1_FvS4_E) for CThunk<mbed::I2C>::trampoline(mbed::I2C*, void*, void(mbed::I2C::**)(void*))
    .\build\i2c.o(i._ZN4mbed3I2CC1E7PinNameS1_) refers to .\build\i2c.o(.data) for .data
    .\build\i2c.o(.ARM.exidx) refers to .\build\i2c.o(i._ZN4mbed3I2CC1E7PinNameS1_) for i._ZN4mbed3I2CC1E7PinNameS1_
    .\build\i2c.o(.ARM.exidx) refers to .\build\i2c.o(i._ZN4mbed3I2C9frequencyEi) for i._ZN4mbed3I2C9frequencyEi
    .\build\i2c.o(.ARM.exidx) refers to .\build\i2c.o(i._ZN4mbed3I2C6aquireEv) for i._ZN4mbed3I2C6aquireEv
    .\build\i2c.o(.ARM.exidx) refers to .\build\i2c.o(i._ZN4mbed3I2C4readEiPcib) for i._ZN4mbed3I2C4readEiPcib
    .\build\i2c.o(.ARM.exidx) refers to .\build\i2c.o(i._ZN4mbed3I2C4readEi) for i._ZN4mbed3I2C4readEi
    .\build\i2c.o(.ARM.exidx) refers to .\build\i2c.o(i._ZN4mbed3I2C5writeEiPKcib) for i._ZN4mbed3I2C5writeEiPKcib
    .\build\i2c.o(.ARM.exidx) refers to .\build\i2c.o(i._ZN4mbed3I2C5writeEi) for i._ZN4mbed3I2C5writeEi
    .\build\i2c.o(.ARM.exidx) refers to .\build\i2c.o(i._ZN4mbed3I2C5startEv) for i._ZN4mbed3I2C5startEv
    .\build\i2c.o(.ARM.exidx) refers to .\build\i2c.o(i._ZN4mbed3I2C4stopEv) for i._ZN4mbed3I2C4stopEv
    .\build\i2c.o(.ARM.exidx) refers to .\build\i2c.o(i._ZN4mbed3I2C4lockEv) for i._ZN4mbed3I2C4lockEv
    .\build\i2c.o(.ARM.exidx) refers to .\build\i2c.o(i._ZN4mbed3I2C6unlockEv) for i._ZN4mbed3I2C6unlockEv
    .\build\i2c.o(.ARM.exidx) refers to .\build\i2c.o(i._ZN4mbed3I2C15lock_deep_sleepEv) for i._ZN4mbed3I2C15lock_deep_sleepEv
    .\build\i2c.o(.ARM.exidx) refers to .\build\i2c.o(i._ZN4mbed3I2C8transferEiPKciPciRKNS_8CallbackIFviEEEib) for i._ZN4mbed3I2C8transferEiPKciPciRKNS_8CallbackIFviEEEib
    .\build\i2c.o(.ARM.exidx) refers to .\build\i2c.o(i._ZN4mbed3I2C17unlock_deep_sleepEv) for i._ZN4mbed3I2C17unlock_deep_sleepEv
    .\build\i2c.o(.ARM.exidx) refers to .\build\i2c.o(i._ZN4mbed3I2C14abort_transferEv) for i._ZN4mbed3I2C14abort_transferEv
    .\build\i2c.o(.ARM.exidx) refers to .\build\i2c.o(i._ZN4mbed3I2C18irq_handler_asynchEv) for i._ZN4mbed3I2C18irq_handler_asynchEv
    .\build\i2c.o(.constdata) refers to .\build\i2c.o(i._ZN4mbed3I2C18irq_handler_asynchEv) for mbed::I2C::irq_handler_asynch()
    .\build\i2c_api.o(i.HAL_I2C_AbortCpltCallback) refers to .\build\i2c_api.o(i.get_i2c_obj) for get_i2c_obj
    .\build\i2c_api.o(i.HAL_I2C_AbortCpltCallback) refers to .\build\i2c_api.o(i.i2c_ev_err_disable) for i2c_ev_err_disable
    .\build\i2c_api.o(i.HAL_I2C_AddrCallback) refers to .\build\i2c_api.o(i.get_i2c_obj) for get_i2c_obj
    .\build\i2c_api.o(i.HAL_I2C_ErrorCallback) refers to .\build\i2c_api.o(i.get_i2c_obj) for get_i2c_obj
    .\build\i2c_api.o(i.HAL_I2C_ErrorCallback) refers to .\build\i2c_api.o(i.i2c_init) for i2c_init
    .\build\i2c_api.o(i.HAL_I2C_ErrorCallback) refers to .\build\i2c_api.o(i.i2c_slave_address) for i2c_slave_address
    .\build\i2c_api.o(i.HAL_I2C_ListenCpltCallback) refers to .\build\stm32f1xx_hal_i2c.o(i.HAL_I2C_EnableListen_IT) for HAL_I2C_EnableListen_IT
    .\build\i2c_api.o(i.HAL_I2C_MasterRxCpltCallback) refers to .\build\i2c_api.o(i.get_i2c_obj) for get_i2c_obj
    .\build\i2c_api.o(i.HAL_I2C_MasterTxCpltCallback) refers to .\build\i2c_api.o(i.get_i2c_obj) for get_i2c_obj
    .\build\i2c_api.o(i.HAL_I2C_MasterTxCpltCallback) refers to .\build\stm32f1xx_hal_i2c.o(i.HAL_I2C_Master_Sequential_Receive_IT) for HAL_I2C_Master_Sequential_Receive_IT
    .\build\i2c_api.o(i.HAL_I2C_SlaveRxCpltCallback) refers to .\build\i2c_api.o(i.get_i2c_obj) for get_i2c_obj
    .\build\i2c_api.o(i.HAL_I2C_SlaveTxCpltCallback) refers to .\build\i2c_api.o(i.get_i2c_obj) for get_i2c_obj
    .\build\i2c_api.o(i.i2c1_irq) refers to .\build\stm32f1xx_hal_i2c.o(i.HAL_I2C_EV_IRQHandler) for HAL_I2C_EV_IRQHandler
    .\build\i2c_api.o(i.i2c1_irq) refers to .\build\stm32f1xx_hal_i2c.o(i.HAL_I2C_ER_IRQHandler) for HAL_I2C_ER_IRQHandler
    .\build\i2c_api.o(i.i2c1_irq) refers to .\build\i2c_api.o(.bss) for .bss
    .\build\i2c_api.o(i.i2c2_irq) refers to .\build\stm32f1xx_hal_i2c.o(i.HAL_I2C_EV_IRQHandler) for HAL_I2C_EV_IRQHandler
    .\build\i2c_api.o(i.i2c2_irq) refers to .\build\stm32f1xx_hal_i2c.o(i.HAL_I2C_ER_IRQHandler) for HAL_I2C_ER_IRQHandler
    .\build\i2c_api.o(i.i2c2_irq) refers to .\build\i2c_api.o(.bss) for .bss
    .\build\i2c_api.o(i.i2c_abort_asynch) refers to .\build\stm32f1xx_hal_i2c.o(i.HAL_I2C_Master_Abort_IT) for HAL_I2C_Master_Abort_IT
    .\build\i2c_api.o(i.i2c_ev_err_disable) refers to .\build\stm32f1xx_hal_cortex.o(i.HAL_NVIC_DisableIRQ) for HAL_NVIC_DisableIRQ
    .\build\i2c_api.o(i.i2c_ev_err_enable) refers to .\build\i2c_api.o(i.__NVIC_SetPriority) for __NVIC_SetPriority
    .\build\i2c_api.o(i.i2c_ev_err_enable) refers to .\build\i2c_api.o(i.__NVIC_EnableIRQ) for __NVIC_EnableIRQ
    .\build\i2c_api.o(i.i2c_frequency) refers to .\build\stm32f1xx_hal_i2c.o(i.HAL_I2C_Init) for HAL_I2C_Init
    .\build\i2c_api.o(i.i2c_frequency) refers to .\build\system_stm32f1xx.o(.data) for SystemCoreClock
    .\build\i2c_api.o(i.i2c_get_irq_handler) refers to .\build\i2c_api.o(i.i2c1_irq) for i2c1_irq
    .\build\i2c_api.o(i.i2c_get_irq_handler) refers to .\build\i2c_api.o(i.i2c2_irq) for i2c2_irq
    .\build\i2c_api.o(i.i2c_get_irq_handler) refers to .\build\i2c_api.o(.bss) for .bss
    .\build\i2c_api.o(i.i2c_hw_reset) refers to .\build\system_stm32f1xx.o(.data) for SystemCoreClock
    .\build\i2c_api.o(i.i2c_init) refers to .\build\mbed_pinmap_common.o(i.pinmap_peripheral) for pinmap_peripheral
    .\build\i2c_api.o(i.i2c_init) refers to .\build\mbed_pinmap_common.o(i.pinmap_merge) for pinmap_merge
    .\build\i2c_api.o(i.i2c_init) refers to .\build\mbed_assert.o(i.mbed_assert_internal) for mbed_assert_internal
    .\build\i2c_api.o(i.i2c_init) refers to .\build\mbed_pinmap_common.o(i.pinmap_pinout) for pinmap_pinout
    .\build\i2c_api.o(i.i2c_init) refers to .\build\pinmap.o(i.pin_mode) for pin_mode
    .\build\i2c_api.o(i.i2c_init) refers to .\build\i2c_api.o(i.i2c_hw_reset) for i2c_hw_reset
    .\build\i2c_api.o(i.i2c_init) refers to .\build\i2c_api.o(i.i2c_frequency) for i2c_frequency
    .\build\i2c_api.o(i.i2c_init) refers to .\build\peripheralpins.o(.constdata) for PinMap_I2C_SDA
    .\build\i2c_api.o(i.i2c_init) refers to .\build\peripheralpins.o(.constdata) for PinMap_I2C_SCL
    .\build\i2c_api.o(i.i2c_irq_handler_asynch) refers to .\build\stm32f1xx_hal_i2c.o(i.HAL_I2C_EV_IRQHandler) for HAL_I2C_EV_IRQHandler
    .\build\i2c_api.o(i.i2c_irq_handler_asynch) refers to .\build\stm32f1xx_hal_i2c.o(i.HAL_I2C_ER_IRQHandler) for HAL_I2C_ER_IRQHandler
    .\build\i2c_api.o(i.i2c_read) refers to .\build\i2c_api.o(i.i2c_get_irq_handler) for i2c_get_irq_handler
    .\build\i2c_api.o(i.i2c_read) refers to .\build\i2c_api.o(i.i2c_ev_err_enable) for i2c_ev_err_enable
    .\build\i2c_api.o(i.i2c_read) refers to .\build\stm32f1xx_hal_i2c.o(i.HAL_I2C_Master_Sequential_Receive_IT) for HAL_I2C_Master_Sequential_Receive_IT
    .\build\i2c_api.o(i.i2c_read) refers to .\build\mbed_wait_api_rtos.o(i.wait_us) for wait_us
    .\build\i2c_api.o(i.i2c_read) refers to .\build\i2c_api.o(i.i2c_ev_err_disable) for i2c_ev_err_disable
    .\build\i2c_api.o(i.i2c_read) refers to .\build\i2c_api.o(i.i2c_init) for i2c_init
    .\build\i2c_api.o(i.i2c_read) refers to .\build\system_stm32f1xx.o(.data) for SystemCoreClock
    .\build\i2c_api.o(i.i2c_reset) refers to .\build\i2c_api.o(i.i2c_stop) for i2c_stop
    .\build\i2c_api.o(i.i2c_reset) refers to .\build\i2c_api.o(i.i2c_init) for i2c_init
    .\build\i2c_api.o(i.i2c_slave_address) refers to .\build\stm32f1xx_hal_i2c.o(i.HAL_I2C_Init) for HAL_I2C_Init
    .\build\i2c_api.o(i.i2c_slave_address) refers to .\build\i2c_api.o(i.i2c_get_irq_handler) for i2c_get_irq_handler
    .\build\i2c_api.o(i.i2c_slave_address) refers to .\build\i2c_api.o(i.i2c_ev_err_enable) for i2c_ev_err_enable
    .\build\i2c_api.o(i.i2c_slave_address) refers to .\build\stm32f1xx_hal_i2c.o(i.HAL_I2C_EnableListen_IT) for HAL_I2C_EnableListen_IT
    .\build\i2c_api.o(i.i2c_slave_mode) refers to .\build\stm32f1xx_hal_i2c.o(i.HAL_I2C_EnableListen_IT) for HAL_I2C_EnableListen_IT
    .\build\i2c_api.o(i.i2c_slave_mode) refers to .\build\stm32f1xx_hal_i2c.o(i.HAL_I2C_DisableListen_IT) for HAL_I2C_DisableListen_IT
    .\build\i2c_api.o(i.i2c_slave_read) refers to .\build\stm32f1xx_hal_i2c.o(i.HAL_I2C_Slave_Sequential_Receive_IT) for HAL_I2C_Slave_Sequential_Receive_IT
    .\build\i2c_api.o(i.i2c_slave_read) refers to .\build\mbed_wait_api_rtos.o(i.wait_us) for wait_us
    .\build\i2c_api.o(i.i2c_slave_read) refers to .\build\system_stm32f1xx.o(.data) for SystemCoreClock
    .\build\i2c_api.o(i.i2c_slave_write) refers to .\build\stm32f1xx_hal_i2c.o(i.HAL_I2C_Slave_Sequential_Transmit_IT) for HAL_I2C_Slave_Sequential_Transmit_IT
    .\build\i2c_api.o(i.i2c_slave_write) refers to .\build\mbed_wait_api_rtos.o(i.wait_us) for wait_us
    .\build\i2c_api.o(i.i2c_slave_write) refers to .\build\system_stm32f1xx.o(.data) for SystemCoreClock
    .\build\i2c_api.o(i.i2c_stop) refers to .\build\i2c_api.o(i.i2c_init) for i2c_init
    .\build\i2c_api.o(i.i2c_transfer_asynch) refers to .\build\i2c_api.o(i.i2c_ev_err_enable) for i2c_ev_err_enable
    .\build\i2c_api.o(i.i2c_transfer_asynch) refers to .\build\stm32f1xx_hal_i2c.o(i.HAL_I2C_Master_Sequential_Transmit_IT) for HAL_I2C_Master_Sequential_Transmit_IT
    .\build\i2c_api.o(i.i2c_transfer_asynch) refers to .\build\stm32f1xx_hal_i2c.o(i.HAL_I2C_Master_Sequential_Receive_IT) for HAL_I2C_Master_Sequential_Receive_IT
    .\build\i2c_api.o(i.i2c_write) refers to .\build\i2c_api.o(i.i2c_get_irq_handler) for i2c_get_irq_handler
    .\build\i2c_api.o(i.i2c_write) refers to .\build\i2c_api.o(i.i2c_ev_err_enable) for i2c_ev_err_enable
    .\build\i2c_api.o(i.i2c_write) refers to .\build\stm32f1xx_hal_i2c.o(i.HAL_I2C_Master_Sequential_Transmit_IT) for HAL_I2C_Master_Sequential_Transmit_IT
    .\build\i2c_api.o(i.i2c_write) refers to .\build\mbed_wait_api_rtos.o(i.wait_us) for wait_us
    .\build\i2c_api.o(i.i2c_write) refers to .\build\i2c_api.o(i.i2c_ev_err_disable) for i2c_ev_err_disable
    .\build\i2c_api.o(i.i2c_write) refers to .\build\i2c_api.o(i.i2c_init) for i2c_init
    .\build\i2c_api.o(i.i2c_write) refers to .\build\system_stm32f1xx.o(.data) for SystemCoreClock
    .\build\i2cslave.o(i._ZN4mbed8I2CSlave4readEPci) refers to .\build\i2c_api.o(i.i2c_slave_read) for i2c_slave_read
    .\build\i2cslave.o(i._ZN4mbed8I2CSlave4readEv) refers to .\build\i2c_api.o(i.i2c_byte_read) for i2c_byte_read
    .\build\i2cslave.o(i._ZN4mbed8I2CSlave4stopEv) refers to .\build\i2c_api.o(i.i2c_stop) for i2c_stop
    .\build\i2cslave.o(i._ZN4mbed8I2CSlave5writeEPKci) refers to .\build\i2c_api.o(i.i2c_slave_write) for i2c_slave_write
    .\build\i2cslave.o(i._ZN4mbed8I2CSlave5writeEi) refers to .\build\i2c_api.o(i.i2c_byte_write) for i2c_byte_write
    .\build\i2cslave.o(i._ZN4mbed8I2CSlave7addressEi) refers to .\build\i2c_api.o(i.i2c_slave_address) for i2c_slave_address
    .\build\i2cslave.o(i._ZN4mbed8I2CSlave7receiveEv) refers to .\build\i2c_api.o(i.i2c_slave_receive) for i2c_slave_receive
    .\build\i2cslave.o(i._ZN4mbed8I2CSlave9frequencyEi) refers to .\build\i2c_api.o(i.i2c_frequency) for i2c_frequency
    .\build\i2cslave.o(i._ZN4mbed8I2CSlaveC1E7PinNameS1_) refers to D:\Keil_v5\ARM\ARMCC\Bin\..\lib\armlib\c_w.l(rt_memclr_w.o)(.text) for __aeabi_memclr4
    .\build\i2cslave.o(i._ZN4mbed8I2CSlaveC1E7PinNameS1_) refers to .\build\i2c_api.o(i.i2c_init) for i2c_init
    .\build\i2cslave.o(i._ZN4mbed8I2CSlaveC1E7PinNameS1_) refers to .\build\i2c_api.o(i.i2c_frequency) for i2c_frequency
    .\build\i2cslave.o(i._ZN4mbed8I2CSlaveC1E7PinNameS1_) refers to .\build\i2c_api.o(i.i2c_slave_mode) for i2c_slave_mode
    .\build\i2cslave.o(.ARM.exidx) refers to .\build\i2cslave.o(i._ZN4mbed8I2CSlaveC1E7PinNameS1_) for i._ZN4mbed8I2CSlaveC1E7PinNameS1_
    .\build\i2cslave.o(.ARM.exidx) refers to .\build\i2cslave.o(i._ZN4mbed8I2CSlave9frequencyEi) for i._ZN4mbed8I2CSlave9frequencyEi
    .\build\i2cslave.o(.ARM.exidx) refers to .\build\i2cslave.o(i._ZN4mbed8I2CSlave7receiveEv) for i._ZN4mbed8I2CSlave7receiveEv
    .\build\i2cslave.o(.ARM.exidx) refers to .\build\i2cslave.o(i._ZN4mbed8I2CSlave4readEPci) for i._ZN4mbed8I2CSlave4readEPci
    .\build\i2cslave.o(.ARM.exidx) refers to .\build\i2cslave.o(i._ZN4mbed8I2CSlave4readEv) for i._ZN4mbed8I2CSlave4readEv
    .\build\i2cslave.o(.ARM.exidx) refers to .\build\i2cslave.o(i._ZN4mbed8I2CSlave5writeEPKci) for i._ZN4mbed8I2CSlave5writeEPKci
    .\build\i2cslave.o(.ARM.exidx) refers to .\build\i2cslave.o(i._ZN4mbed8I2CSlave5writeEi) for i._ZN4mbed8I2CSlave5writeEi
    .\build\i2cslave.o(.ARM.exidx) refers to .\build\i2cslave.o(i._ZN4mbed8I2CSlave7addressEi) for i._ZN4mbed8I2CSlave7addressEi
    .\build\i2cslave.o(.ARM.exidx) refers to .\build\i2cslave.o(i._ZN4mbed8I2CSlave4stopEv) for i._ZN4mbed8I2CSlave4stopEv
    .\build\interruptin.o(i._ZN4mbed11InterruptIn10enable_irqEv) refers to .\build\mbed_critical.o(i.core_util_critical_section_enter) for core_util_critical_section_enter
    .\build\interruptin.o(i._ZN4mbed11InterruptIn10enable_irqEv) refers to .\build\gpio_irq_api.o(i.gpio_irq_enable) for gpio_irq_enable
    .\build\interruptin.o(i._ZN4mbed11InterruptIn10enable_irqEv) refers to .\build\mbed_critical.o(i.core_util_critical_section_exit) for core_util_critical_section_exit
    .\build\interruptin.o(i._ZN4mbed11InterruptIn11disable_irqEv) refers to .\build\mbed_critical.o(i.core_util_critical_section_enter) for core_util_critical_section_enter
    .\build\interruptin.o(i._ZN4mbed11InterruptIn11disable_irqEv) refers to .\build\gpio_irq_api.o(i.gpio_irq_disable) for gpio_irq_disable
    .\build\interruptin.o(i._ZN4mbed11InterruptIn11disable_irqEv) refers to .\build\mbed_critical.o(i.core_util_critical_section_exit) for core_util_critical_section_exit
    .\build\interruptin.o(i._ZN4mbed11InterruptIn12_irq_handlerEj14gpio_irq_event) refers to .\build\at_cellularsms.o(t._ZNK4mbed8CallbackIFvvEEcvbEv) for mbed::Callback<void()>::operator bool() const
    .\build\interruptin.o(i._ZN4mbed11InterruptIn12_irq_handlerEj14gpio_irq_event) refers to .\build\at_cellularsms.o(t._ZNK4mbed8CallbackIFvvEEclEv) for mbed::Callback<void()>::operator ()() const
    .\build\interruptin.o(i._ZN4mbed11InterruptIn4fallENS_8CallbackIFvvEEE) refers to .\build\mbed_critical.o(i.core_util_critical_section_enter) for core_util_critical_section_enter
    .\build\interruptin.o(i._ZN4mbed11InterruptIn4fallENS_8CallbackIFvvEEE) refers to .\build\at_cellularsms.o(t._ZNK4mbed8CallbackIFvvEEcvbEv) for mbed::Callback<void()>::operator bool() const
    .\build\interruptin.o(i._ZN4mbed11InterruptIn4fallENS_8CallbackIFvvEEE) refers to .\build\loramac.o(t._ZN4mbed8CallbackIFvvEEaSERKS2_) for mbed::Callback<void()>::operator =(const mbed::Callback<void()>&)
    .\build\interruptin.o(i._ZN4mbed11InterruptIn4fallENS_8CallbackIFvvEEE) refers to .\build\gpio_irq_api.o(i.gpio_irq_set) for gpio_irq_set
    .\build\interruptin.o(i._ZN4mbed11InterruptIn4fallENS_8CallbackIFvvEEE) refers to .\build\can.o(t._ZN4mbed8CallbackIFvvEEC1EPS1_) for mbed::Callback<void()>::Callback(void(*)())
    .\build\interruptin.o(i._ZN4mbed11InterruptIn4fallENS_8CallbackIFvvEEE) refers to .\build\at_cellularsms.o(t._ZN4mbed8CallbackIFvvEED1Ev) for mbed::Callback<void()>::~Callback()
    .\build\interruptin.o(i._ZN4mbed11InterruptIn4fallENS_8CallbackIFvvEEE) refers to .\build\mbed_critical.o(i.core_util_critical_section_exit) for core_util_critical_section_exit
    .\build\interruptin.o(i._ZN4mbed11InterruptIn4modeE7PinMode) refers to .\build\mbed_critical.o(i.core_util_critical_section_enter) for core_util_critical_section_enter
    .\build\interruptin.o(i._ZN4mbed11InterruptIn4modeE7PinMode) refers to .\build\gpio_api.o(i.gpio_mode) for gpio_mode
    .\build\interruptin.o(i._ZN4mbed11InterruptIn4modeE7PinMode) refers to .\build\mbed_critical.o(i.core_util_critical_section_exit) for core_util_critical_section_exit
    .\build\interruptin.o(i._ZN4mbed11InterruptIn4riseENS_8CallbackIFvvEEE) refers to .\build\mbed_critical.o(i.core_util_critical_section_enter) for core_util_critical_section_enter
    .\build\interruptin.o(i._ZN4mbed11InterruptIn4riseENS_8CallbackIFvvEEE) refers to .\build\at_cellularsms.o(t._ZNK4mbed8CallbackIFvvEEcvbEv) for mbed::Callback<void()>::operator bool() const
    .\build\interruptin.o(i._ZN4mbed11InterruptIn4riseENS_8CallbackIFvvEEE) refers to .\build\loramac.o(t._ZN4mbed8CallbackIFvvEEaSERKS2_) for mbed::Callback<void()>::operator =(const mbed::Callback<void()>&)
    .\build\interruptin.o(i._ZN4mbed11InterruptIn4riseENS_8CallbackIFvvEEE) refers to .\build\gpio_irq_api.o(i.gpio_irq_set) for gpio_irq_set
    .\build\interruptin.o(i._ZN4mbed11InterruptIn4riseENS_8CallbackIFvvEEE) refers to .\build\can.o(t._ZN4mbed8CallbackIFvvEEC1EPS1_) for mbed::Callback<void()>::Callback(void(*)())
    .\build\interruptin.o(i._ZN4mbed11InterruptIn4riseENS_8CallbackIFvvEEE) refers to .\build\at_cellularsms.o(t._ZN4mbed8CallbackIFvvEED1Ev) for mbed::Callback<void()>::~Callback()
    .\build\interruptin.o(i._ZN4mbed11InterruptIn4riseENS_8CallbackIFvvEEE) refers to .\build\mbed_critical.o(i.core_util_critical_section_exit) for core_util_critical_section_exit
    .\build\interruptin.o(i._ZN4mbed11InterruptInC1E7PinName) refers to D:\Keil_v5\ARM\ARMCC\Bin\..\lib\armlib\c_w.l(rt_memclr_w.o)(.text) for __aeabi_memclr4
    .\build\interruptin.o(i._ZN4mbed11InterruptInC1E7PinName) refers to .\build\can.o(t._ZN4mbed8CallbackIFvvEEC1EPS1_) for mbed::Callback<void()>::Callback(void(*)())
    .\build\interruptin.o(i._ZN4mbed11InterruptInC1E7PinName) refers to .\build\gpio_irq_api.o(i.gpio_irq_init) for gpio_irq_init
    .\build\interruptin.o(i._ZN4mbed11InterruptInC1E7PinName) refers to .\build\mbed_gpio.o(i.gpio_init_in) for gpio_init_in
    .\build\interruptin.o(i._ZN4mbed11InterruptInC1E7PinName) refers to .\build\interruptin.o(.constdata__ZTVN4mbed11InterruptInE) for vtable for mbed::InterruptIn
    .\build\interruptin.o(i._ZN4mbed11InterruptInC1E7PinName) refers to .\build\interruptin.o(i._ZN4mbed11InterruptIn12_irq_handlerEj14gpio_irq_event) for mbed::InterruptIn::_irq_handler(unsigned, gpio_irq_event)
    .\build\interruptin.o(i._ZN4mbed11InterruptInD0Ev) refers to .\build\interruptin.o(i._ZN4mbed11InterruptInD1Ev) for mbed::InterruptIn::~InterruptIn()
    .\build\interruptin.o(i._ZN4mbed11InterruptInD0Ev) refers to .\build\mbed_retarget.o(i._ZdlPv) for operator delete (void*)
    .\build\interruptin.o(i._ZN4mbed11InterruptInD1Ev) refers to .\build\gpio_irq_api.o(i.gpio_irq_free) for gpio_irq_free
